 nodejieba

 Timestamp is 5bc5c2ee (Tue Oct 16 18:52:30 2018)

 Preferred load address is 0000000180000000

 Start         Length     Name                   Class
 0001:00000000 000001dbH .text                   CODE
 0001:000001e0 0000013cH .text$di                CODE
 0001:00000320 00043120H .text$mn                CODE
 0001:00043440 00000012H .text$mn$00             CODE
 0001:00043460 00001830H .text$x                 CODE
 0001:00044c90 00000174H .text$yd                CODE
 0002:00000000 000002e0H .idata$5                DATA
 0002:000002e0 00000010H .00cfg                  DATA
 0002:000002f0 00000008H .CRT$XCA                DATA
 0002:000002f8 00000038H .CRT$XCC                DATA
 0002:00000330 00000010H .CRT$XCL                DATA
 0002:00000340 00000008H .CRT$XCU                DATA
 0002:00000348 00000008H .CRT$XCZ                DATA
 0002:00000350 00000008H .CRT$XIA                DATA
 0002:00000358 00000030H .CRT$XIC                DATA
 0002:00000388 00000008H .CRT$XIZ                DATA
 0002:00000390 00000008H .CRT$XLA                DATA
 0002:00000398 00000008H .CRT$XLZ                DATA
 0002:000003a0 00000008H .CRT$XPA                DATA
 0002:000003a8 00000010H .CRT$XPX                DATA
 0002:000003b8 00000008H .CRT$XPXA               DATA
 0002:000003c0 00000008H .CRT$XPZ                DATA
 0002:000003c8 00000008H .CRT$XTA                DATA
 0002:000003d0 00000008H .CRT$XTZ                DATA
 0002:000003d8 00000000H .gfids$x                DATA
 0002:000003e0 00010714H .rdata                  DATA
 0002:00010af8 00000028H .rdata$T                DATA
 0002:00010b20 0000100cH .rdata$r                DATA
 0002:00011b30 00000010H .rdata$zETW0            DATA
 0002:00011b40 00000077H .rdata$zETW1            DATA
 0002:00011bb7 0000002cH .rdata$zETW2            DATA
 0002:00011be3 00000001H .rdata$zETW9            DATA
 0002:00011be4 000004e8H .rdata$zzzdbg           DATA
 0002:000120d0 00000008H .rtc$IAA                DATA
 0002:000120d8 00000008H .rtc$IZZ                DATA
 0002:000120e0 00000008H .rtc$TAA                DATA
 0002:000120e8 00000008H .rtc$TZZ                DATA
 0002:000120f0 000058d4H .xdata                  DATA
 0002:000179c8 00000244H .xdata$x                DATA
 0002:00017c0c 00000020H .didat$2                DATA
 0002:00017c2c 00000020H .didat$3                DATA
 0002:00017c50 00000100H .didat$4                DATA
 0002:00017d50 000007beH .didat$6                DATA
 0002:00018510 00000100H .didat$7                DATA
 0002:00018610 00000056H .edata                  DATA
 0002:00018668 00000028H .idata$2                DATA
 0002:00018690 00000014H .idata$3                DATA
 0002:000186a8 000002e0H .idata$4                DATA
 0002:00018988 000006acH .idata$6                DATA
 0003:00000000 00000d60H .data                   DATA
 0003:00000d60 000005f0H .data$r                 DATA
 0003:00001350 00000100H .didat$5                DATA
 0003:00001450 000018b4H .bss                    DATA
 0004:00000000 000038d0H .pdata                  DATA
 0005:00000000 00000001H .tls                    DATA
 0005:00000004 00000004H .tls$                   DATA
 0005:00000008 00000001H .tls$ZZZ                DATA
 0006:00000000 00000058H .rsrc$01                DATA
 0006:00000060 00000180H .rsrc$02                DATA

  Address         Publics by Value              Rva+Base               Lib:Object

 0000:00000000       __guard_fids_count         0000000000000000     <absolute>
 0000:00000000       ___safe_se_handler_count   0000000000000000     <absolute>
 0000:00000000       ___safe_se_handler_table   0000000000000000     <absolute>
 0000:00000000       __guard_fids_table         0000000000000000     <absolute>
 0000:00000100       __guard_flags              0000000000000100     <absolute>
 0000:00000000       __ImageBase                0000000180000000     <linker-defined>
 0001:00000000       ?TraceLoggingRegister@__vcrt_trace_logging_provider@@YAJPEBU_TlgProvider_t@1@PEBU_GUID@@P6AX1KE_K2PEAU_EVENT_FILTER_DESCRIPTOR@@PEAX@Z4@Z 0000000180001000 f i libvcruntime:telemetry.obj
 0001:0000007c       ?_TlgEnableCallback@__vcrt_trace_logging_provider@@YAXPEBU_GUID@@KE_K1PEAU_EVENT_FILTER_DESCRIPTOR@@PEAX@Z 000000018000107c f i libvcruntime:telemetry.obj
 0001:00000140       ?_TlgWrite@__vcrt_trace_logging_provider@@YAJPEBU_TlgProvider_t@1@PEFBXPEBU_GUID@@2IPEAU_EVENT_DATA_DESCRIPTOR@@@Z 0000000180001140 f i libvcruntime:telemetry.obj
 0001:000003f0       ?NewInstance@Nan@@YA?AV?$MaybeLocal@VObject@v8@@@v8@@V?$Local@VObjectTemplate@v8@@@3@@Z 00000001800013f0 f i index.obj
 0001:00000470       ?New@?$Factory@VFunctionTemplate@v8@@@imp@Nan@@SA?AV?$Local@VFunctionTemplate@v8@@@v8@@P6AXAEBV?$FunctionCallbackInfo@VValue@v8@@@3@@ZV?$Local@VValue@v8@@@5@V?$Local@VSignature@v8@@@5@@Z 0000000180001470 f i index.obj
 0001:000005f0       ?init@@YAXV?$Local@VObject@v8@@@v8@@@Z 00000001800015f0 f   index.obj
 0001:000009f0       __local_stdio_printf_options 00000001800019f0 f i nodejieba.obj
 0001:00000a00       sprintf_s                  0000000180001a00 f i nodejieba.obj
 0001:00000a60       ?what@exception@stdext@@UEBAPEBDXZ 0000000180001a60 f i nodejieba.obj
 0001:00000a80       ?_Raise@exception@stdext@@QEBAXXZ 0000000180001a80 f i nodejieba.obj
 0001:00000ac0       ?imbue@?$basic_streambuf@DU?$char_traits@D@std@@@std@@MEAAXAEBVlocale@2@@Z 0000000180001ac0 f i nodejieba.obj
 0001:00000ac0       ?_Doraise@exception@stdext@@MEBAXXZ 0000000180001ac0 f i nodejieba.obj
 0001:00000ac0       _guard_check_icall_nop     0000000180001ac0 f i LIBCMT:guard_support.obj
 0001:00000ac0       ?_Unlock@?$basic_streambuf@DU?$char_traits@D@std@@@std@@UEAAXXZ 0000000180001ac0 f i nodejieba.obj
 0001:00000ac0       __except_validate_context_record 0000000180001ac0 f i libvcruntime:jbcxrval.obj
 0001:00000ac0       ??3@YAXPEAX0@Z             0000000180001ac0 f i nodejieba.obj
 0001:00000ac0       ?_Lock@?$basic_streambuf@DU?$char_traits@D@std@@@std@@UEAAXXZ 0000000180001ac0 f i nodejieba.obj
 0001:00000ad0       ??_Eruntime_error@std@@UEAAPEAXI@Z 0000000180001ad0 f i * CIL library *:* CIL module *
 0001:00000ad0       ??_Gruntime_error@std@@UEAAPEAXI@Z 0000000180001ad0 f i nodejieba.obj
 0001:00000ad0       ??_Eexception@stdext@@UEAAPEAXI@Z 0000000180001ad0 f i * CIL library *:* CIL module *
 0001:00000ad0       ??_Gexception@stdext@@UEAAPEAXI@Z 0000000180001ad0 f i nodejieba.obj
 0001:00000b00       ??1runtime_error@std@@UEAA@XZ 0000000180001b00 f i nodejieba.obj
 0001:00000b00       ??1failure@ios_base@std@@UEAA@XZ 0000000180001b00 f i nodejieba.obj
 0001:00000b10       ??1_Locinfo@std@@QEAA@XZ   0000000180001b10 f i nodejieba.obj
 0001:00000bb0       ??_G_Facet_base@std@@UEAAPEAXI@Z 0000000180001bb0 f i nodejieba.obj
 0001:00000bb0       ??_E_Facet_base@std@@UEAAPEAXI@Z 0000000180001bb0 f i * CIL library *:* CIL module *
 0001:00000be0       ?_Incref@facet@locale@std@@UEAAXXZ 0000000180001be0 f i nodejieba.obj
 0001:00000bf0       ?_Decref@facet@locale@std@@UEAAPEAV_Facet_base@3@XZ 0000000180001bf0 f i nodejieba.obj
 0001:00000c10       ??1facet@locale@std@@MEAA@XZ 0000000180001c10 f i nodejieba.obj
 0001:00000c20       ??1locale@std@@QEAA@XZ     0000000180001c20 f i nodejieba.obj
 0001:00000c50       DllMain                    0000000180001c50 f i LIBCMT:dll_dllmain_stub.obj
 0001:00000c50       ?do_encoding@codecvt_base@std@@MEBAHXZ 0000000180001c50 f i nodejieba.obj
 0001:00000c50       ?do_max_length@codecvt_base@std@@MEBAHXZ 0000000180001c50 f i nodejieba.obj
 0001:00000c60       ?_Getcat@?$ctype@D@std@@SA_KPEAPEBVfacet@locale@2@PEBV42@@Z 0000000180001c60 f i nodejieba.obj
 0001:00000dc0       ?do_tolower@?$ctype@D@std@@MEBADD@Z 0000000180001dc0 f i nodejieba.obj
 0001:00000dd0       ?do_tolower@?$ctype@D@std@@MEBAPEBDPEADPEBD@Z 0000000180001dd0 f i nodejieba.obj
 0001:00000e30       ?do_toupper@?$ctype@D@std@@MEBADD@Z 0000000180001e30 f i nodejieba.obj
 0001:00000e40       ?do_toupper@?$ctype@D@std@@MEBAPEBDPEADPEBD@Z 0000000180001e40 f i nodejieba.obj
 0001:00000ea0       ?do_narrow@?$ctype@D@std@@MEBADDD@Z 0000000180001ea0 f i nodejieba.obj
 0001:00000ea0       ?do_widen@?$ctype@D@std@@MEBADD@Z 0000000180001ea0 f i nodejieba.obj
 0001:00000eb0       ?do_widen@?$ctype@D@std@@MEBAPEBDPEBD0PEAD@Z 0000000180001eb0 f i nodejieba.obj
 0001:00000ed0       ?do_narrow@?$ctype@D@std@@MEBAPEBDPEBD0DPEAD@Z 0000000180001ed0 f i nodejieba.obj
 0001:00000ef0       ??_G?$ctype@D@std@@MEAAPEAXI@Z 0000000180001ef0 f i nodejieba.obj
 0001:00000ef0       ??_E?$ctype@D@std@@MEAAPEAXI@Z 0000000180001ef0 f i * CIL library *:* CIL module *
 0001:00000f60       ??_Gerror_category@std@@UEAAPEAXI@Z 0000000180001f60 f i nodejieba.obj
 0001:00000f60       ??_G_Iostream_error_category@std@@UEAAPEAXI@Z 0000000180001f60 f i nodejieba.obj
 0001:00000f60       ??_E_Iostream_error_category@std@@UEAAPEAXI@Z 0000000180001f60 f i * CIL library *:* CIL module *
 0001:00000f60       ??_Eerror_category@std@@UEAAPEAXI@Z 0000000180001f60 f i * CIL library *:* CIL module *
 0001:00000f90       ?message@error_code@std@@QEBA?AV?$basic_string@DU?$char_traits@D@std@@V?$allocator@D@2@@2@XZ 0000000180001f90 f i nodejieba.obj
 0001:00000fc0       ?default_error_condition@error_category@std@@UEBA?AVerror_condition@2@H@Z 0000000180001fc0 f i nodejieba.obj
 0001:00000fd0       ?equivalent@error_category@std@@UEBA_NHAEBVerror_condition@2@@Z 0000000180001fd0 f i nodejieba.obj
 0001:00001030       ?equivalent@error_category@std@@UEBA_NAEBVerror_code@2@H@Z 0000000180002030 f i nodejieba.obj
 0001:00001050       ?_Makestr@_System_error@std@@CA?AV?$basic_string@DU?$char_traits@D@std@@V?$allocator@D@2@@2@Verror_code@2@V32@@Z 0000000180002050 f i nodejieba.obj
 0001:00001130       ??_Esystem_error@std@@UEAAPEAXI@Z 0000000180002130 f i * CIL library *:* CIL module *
 0001:00001130       ??_Gfailure@ios_base@std@@UEAAPEAXI@Z 0000000180002130 f i nodejieba.obj
 0001:00001130       ??_E_System_error@std@@UEAAPEAXI@Z 0000000180002130 f i * CIL library *:* CIL module *
 0001:00001130       ??_Efailure@ios_base@std@@UEAAPEAXI@Z 0000000180002130 f i * CIL library *:* CIL module *
 0001:00001130       ??_Gsystem_error@std@@UEAAPEAXI@Z 0000000180002130 f i nodejieba.obj
 0001:00001130       ??_G_System_error@std@@UEAAPEAXI@Z 0000000180002130 f i nodejieba.obj
 0001:00001160       ??0system_error@std@@QEAA@Verror_code@1@PEBD@Z 0000000180002160 f i nodejieba.obj
 0001:000012c0       ?message@_Generic_error_category@std@@UEBA?AV?$basic_string@DU?$char_traits@D@std@@V?$allocator@D@2@@2@H@Z 00000001800022c0 f i nodejieba.obj
 0001:00001320       ?name@_Iostream_error_category@std@@UEBAPEBDXZ 0000000180002320 f i nodejieba.obj
 0001:00001330       ?message@_Iostream_error_category@std@@UEBA?AV?$basic_string@DU?$char_traits@D@std@@V?$allocator@D@2@@2@H@Z 0000000180002330 f i nodejieba.obj
 0001:00001380       ?clear@ios_base@std@@QEAAXH_N@Z 0000000180002380 f i nodejieba.obj
 0001:00001480       ?getloc@ios_base@std@@QEBA?AVlocale@2@XZ 0000000180002480 f i nodejieba.obj
 0001:000014b0       ?_Init@ios_base@std@@IEAAXXZ 00000001800024b0 f i nodejieba.obj
 0001:00001530       ??_Eios_base@std@@UEAAPEAXI@Z 0000000180002530 f i * CIL library *:* CIL module *
 0001:00001530       ??_Gios_base@std@@UEAAPEAXI@Z 0000000180002530 f i nodejieba.obj
 0001:00001570       ?WrapPairVector@@YAXAEAV?$vector@U?$pair@V?$basic_string@DU?$char_traits@D@std@@V?$allocator@D@2@@std@@N@std@@V?$allocator@U?$pair@V?$basic_string@DU?$char_traits@D@std@@V?$allocator@D@2@@std@@N@std@@@2@@std@@AEAV?$Local@VArray@v8@@@v8@@@Z 0000000180002570 f i nodejieba.obj
 0001:000017b0       ?WrapPairVector@@YAXAEAV?$vector@U?$pair@V?$basic_string@DU?$char_traits@D@std@@V?$allocator@D@2@@std@@V12@@std@@V?$allocator@U?$pair@V?$basic_string@DU?$char_traits@D@std@@V?$allocator@D@2@@std@@V12@@std@@@2@@std@@AEAV?$Local@VArray@v8@@@v8@@@Z 00000001800027b0 f i nodejieba.obj
 0001:00001990       ??0Logger@limonp@@QEAA@_KPEBDH@Z 0000000180002990 f i nodejieba.obj
 0001:00001ac0       ??1Logger@limonp@@QEAA@XZ  0000000180002ac0 f i nodejieba.obj
 0001:00001b80       ??_D?$basic_ostringstream@DU?$char_traits@D@std@@V?$allocator@D@2@@std@@QEAAXXZ 0000000180002b80 f i nodejieba.obj
 0001:00001bb0       ?IsSpace@limonp@@YA_NI@Z   0000000180002bb0 f i nodejieba.obj
 0001:00001be0       ?LTrim@limonp@@YAAEAV?$basic_string@DU?$char_traits@D@std@@V?$allocator@D@2@@std@@AEAV23@@Z 0000000180002be0 f i nodejieba.obj
 0001:00001c80       ?RTrim@limonp@@YAAEAV?$basic_string@DU?$char_traits@D@std@@V?$allocator@D@2@@std@@AEAV23@@Z 0000000180002c80 f i nodejieba.obj
 0001:00001d40       ?Split@limonp@@YAXAEBV?$basic_string@DU?$char_traits@D@std@@V?$allocator@D@2@@std@@AEAV?$vector@V?$basic_string@DU?$char_traits@D@std@@V?$allocator@D@2@@std@@V?$allocator@V?$basic_string@DU?$char_traits@D@std@@V?$allocator@D@2@@std@@@2@@3@0_K@Z 0000000180002d40 f i nodejieba.obj
 0001:00002250       ?Split@limonp@@YA?AV?$vector@V?$basic_string@DU?$char_traits@D@std@@V?$allocator@D@2@@std@@V?$allocator@V?$basic_string@DU?$char_traits@D@std@@V?$allocator@D@2@@std@@@2@@std@@AEBV?$basic_string@DU?$char_traits@D@std@@V?$allocator@D@2@@3@0_K@Z 0000000180003250 f i nodejieba.obj
 0001:000022a0       ?DecodeRunesInString@cppjieba@@YA_NPEBD_KAEAV?$LocalVector@URuneStr@cppjieba@@@limonp@@@Z 00000001800032a0 f i nodejieba.obj
 0001:000024a0       ?DecodeRunesInString@cppjieba@@YA_NPEBD_KAEAV?$LocalVector@I@limonp@@@Z 00000001800034a0 f i nodejieba.obj
 0001:00002630       ?GetWordFromRunes@cppjieba@@YA?AUWord@1@AEBV?$basic_string@DU?$char_traits@D@std@@V?$allocator@D@2@@std@@PEBURuneStr@1@1@Z 0000000180003630 f i nodejieba.obj
 0001:00002710       ??1?$pair@V?$basic_string@DU?$char_traits@D@std@@V?$allocator@D@2@@std@@N@std@@QEAA@XZ 0000000180003710 f i nodejieba.obj
 0001:00002710       ??1?$basic_string@DU?$char_traits@D@std@@V?$allocator@D@2@@std@@QEAA@XZ 0000000180003710 f i nodejieba.obj
 0001:00002710       ??1Word@cppjieba@@QEAA@XZ  0000000180003710 f i nodejieba.obj
 0001:00002750       ?GetWordsFromWordRanges@cppjieba@@YAXAEBV?$basic_string@DU?$char_traits@D@std@@V?$allocator@D@2@@std@@AEBV?$vector@UWordRange@cppjieba@@V?$allocator@UWordRange@cppjieba@@@std@@@3@AEAV?$vector@UWord@cppjieba@@V?$allocator@UWord@cppjieba@@@std@@@3@@Z 0000000180003750 f i nodejieba.obj
 0001:00002860       ?GetStringsFromWords@cppjieba@@YAXAEBV?$vector@UWord@cppjieba@@V?$allocator@UWord@cppjieba@@@std@@@std@@AEAV?$vector@V?$basic_string@DU?$char_traits@D@std@@V?$allocator@D@2@@std@@V?$allocator@V?$basic_string@DU?$char_traits@D@std@@V?$allocator@D@2@@std@@@2@@3@@Z 0000000180003860 f i nodejieba.obj
 0001:00002940       ?Find@Trie@cppjieba@@QEBAPEBUDictUnit@2@PEBURuneStr@2@0@Z 0000000180003940 f i nodejieba.obj
 0001:000029d0       ?Find@Trie@cppjieba@@QEBAXPEBURuneStr@2@0AEAV?$vector@UDag@cppjieba@@V?$allocator@UDag@cppjieba@@@std@@@std@@_K@Z 00000001800039d0 f i nodejieba.obj
 0001:00002e20       ?InsertNode@Trie@cppjieba@@QEAAXAEBV?$LocalVector@I@limonp@@PEBUDictUnit@2@@Z 0000000180003e20 f i nodejieba.obj
 0001:00003050       ?DeleteNode@Trie@cppjieba@@AEAAXPEAVTrieNode@2@@Z 0000000180004050 f i nodejieba.obj
 0001:000030e0       ??0DictTrie@cppjieba@@QEAA@AEBV?$basic_string@DU?$char_traits@D@std@@V?$allocator@D@2@@std@@0W4UserWordWeightOption@01@@Z 00000001800040e0 f i nodejieba.obj
 0001:000031d0       ??1DictTrie@cppjieba@@QEAA@XZ 00000001800041d0 f i nodejieba.obj
 0001:00003280       ?InsertUserWord@DictTrie@cppjieba@@QEAA_NAEBV?$basic_string@DU?$char_traits@D@std@@V?$allocator@D@2@@std@@0@Z 0000000180004280 f i nodejieba.obj
 0001:00003470       ?CreateTrie@DictTrie@cppjieba@@AEAAXAEBV?$vector@UDictUnit@cppjieba@@V?$allocator@UDictUnit@cppjieba@@@std@@@std@@@Z 0000000180004470 f i nodejieba.obj
 0001:000039d0       ?LoadUserDict@DictTrie@cppjieba@@AEAAXAEBV?$basic_string@DU?$char_traits@D@std@@V?$allocator@D@2@@std@@@Z 00000001800049d0 f i nodejieba.obj
 0001:00004520       ?MakeNodeInfo@DictTrie@cppjieba@@AEAA_NAEAUDictUnit@2@AEBV?$basic_string@DU?$char_traits@D@std@@V?$allocator@D@2@@std@@N1@Z 0000000180005520 f i nodejieba.obj
 0001:000046e0       ?LoadDict@DictTrie@cppjieba@@AEAAXAEBV?$basic_string@DU?$char_traits@D@std@@V?$allocator@D@2@@std@@@Z 00000001800056e0 f i nodejieba.obj
 0001:00004fc0       ?WeightCompare@DictTrie@cppjieba@@CA_NAEBUDictUnit@2@0@Z 0000000180005fc0 f i nodejieba.obj
 0001:00004fd0       ?SetStaticWordWeights@DictTrie@cppjieba@@AEAAXW4UserWordWeightOption@12@@Z 0000000180005fd0 f i nodejieba.obj
 0001:00005240       ?CalcFreqSum@DictTrie@cppjieba@@AEBANAEBV?$vector@UDictUnit@cppjieba@@V?$allocator@UDictUnit@cppjieba@@@std@@@std@@@Z 0000000180006240 f i nodejieba.obj
 0001:000052d0       ?CalculateWeight@DictTrie@cppjieba@@AEBAXAEAV?$vector@UDictUnit@cppjieba@@V?$allocator@UDictUnit@cppjieba@@@std@@@std@@N@Z 00000001800062d0 f i nodejieba.obj
 0001:000053b0       ?Shrink@DictTrie@cppjieba@@AEBAXAEAV?$vector@UDictUnit@cppjieba@@V?$allocator@UDictUnit@cppjieba@@@std@@@std@@@Z 00000001800063b0 f i nodejieba.obj
 0001:000054b0       ??1?$unordered_map@INU?$hash@I@std@@U?$equal_to@I@2@V?$allocator@U?$pair@$$CBIN@std@@@2@@std@@QEAA@XZ 00000001800064b0 f i nodejieba.obj
 0001:000054b0       ??1?$unordered_set@IU?$hash@I@std@@U?$equal_to@I@2@V?$allocator@I@2@@std@@QEAA@XZ 00000001800064b0 f i nodejieba.obj
 0001:000054c0       ??1DictUnit@cppjieba@@QEAA@XZ 00000001800064c0 f i nodejieba.obj
 0001:00005520       ??_D?$basic_ifstream@DU?$char_traits@D@std@@@std@@QEAAXXZ 0000000180006520 f i nodejieba.obj
 0001:00005550       ??0PreFilter@cppjieba@@QEAA@AEBV?$unordered_set@IU?$hash@I@std@@U?$equal_to@I@2@V?$allocator@I@2@@std@@AEBV?$basic_string@DU?$char_traits@D@std@@V?$allocator@D@2@@3@@Z 0000000180006550 f i nodejieba.obj
 0001:00005710       ??1PreFilter@cppjieba@@QEAA@XZ 0000000180006710 f i nodejieba.obj
 0001:00005730       ?Next@PreFilter@cppjieba@@QEAA?AURange@12@XZ 0000000180006730 f i nodejieba.obj
 0001:00005890       ??0SegmentBase@cppjieba@@QEAA@XZ 0000000180006890 f i nodejieba.obj
 0001:00005a80       ??1SegmentBase@cppjieba@@UEAA@XZ 0000000180006a80 f i nodejieba.obj
 0001:00005a80       ??1SegmentTagged@cppjieba@@UEAA@XZ 0000000180006a80 f i nodejieba.obj
 0001:00005aa0       ?ResetSeparators@SegmentBase@cppjieba@@QEAA_NAEBV?$basic_string@DU?$char_traits@D@std@@V?$allocator@D@2@@std@@@Z 0000000180006aa0 f i nodejieba.obj
 0001:00005ea0       ??_ESegmentBase@cppjieba@@UEAAPEAXI@Z 0000000180006ea0 f i * CIL library *:* CIL module *
 0001:00005ea0       ??_GSegmentBase@cppjieba@@UEAAPEAXI@Z 0000000180006ea0 f i nodejieba.obj
 0001:00005ef0       ??1FullSegment@cppjieba@@UEAA@XZ 0000000180006ef0 f i nodejieba.obj
 0001:00005f50       ?Cut@FullSegment@cppjieba@@UEBAXAEBV?$basic_string@DU?$char_traits@D@std@@V?$allocator@D@2@@std@@AEAV?$vector@V?$basic_string@DU?$char_traits@D@std@@V?$allocator@D@2@@std@@V?$allocator@V?$basic_string@DU?$char_traits@D@std@@V?$allocator@D@2@@std@@@2@@4@@Z 0000000180006f50 f i nodejieba.obj
 0001:00005fe0       ?Cut@FullSegment@cppjieba@@QEBAXAEBV?$basic_string@DU?$char_traits@D@std@@V?$allocator@D@2@@std@@AEAV?$vector@UWord@cppjieba@@V?$allocator@UWord@cppjieba@@@std@@@4@@Z 0000000180006fe0 f i nodejieba.obj
 0001:000061a0       ?Cut@FullSegment@cppjieba@@QEBAXPEBURuneStr@2@0AEAV?$vector@UWordRange@cppjieba@@V?$allocator@UWordRange@cppjieba@@@std@@@std@@@Z 00000001800071a0 f i nodejieba.obj
 0001:00006610       ??_EFullSegment@cppjieba@@UEAAPEAXI@Z 0000000180007610 f i * CIL library *:* CIL module *
 0001:00006610       ??_GFullSegment@cppjieba@@UEAAPEAXI@Z 0000000180007610 f i nodejieba.obj
 0001:00006690       ?Tag@PosTagger@cppjieba@@QEBA_NAEBV?$basic_string@DU?$char_traits@D@std@@V?$allocator@D@2@@std@@AEAV?$vector@U?$pair@V?$basic_string@DU?$char_traits@D@std@@V?$allocator@D@2@@std@@V12@@std@@V?$allocator@U?$pair@V?$basic_string@DU?$char_traits@D@std@@V?$allocator@D@2@@std@@V12@@std@@@2@@4@AEBVSegmentTagged@2@@Z 0000000180007690 f i nodejieba.obj
 0001:00006920       ?LookupTag@PosTagger@cppjieba@@QEBA?AV?$basic_string@DU?$char_traits@D@std@@V?$allocator@D@2@@std@@AEBV34@AEBVSegmentTagged@2@@Z 0000000180007920 f i nodejieba.obj
 0001:00006c10       ??1?$pair@V?$basic_string@DU?$char_traits@D@std@@V?$allocator@D@2@@std@@V12@@std@@QEAA@XZ 0000000180007c10 f i nodejieba.obj
 0001:00006c90       ??1MPSegment@cppjieba@@UEAA@XZ 0000000180007c90 f i nodejieba.obj
 0001:00006cf0       ?Cut@MPSegment@cppjieba@@UEBAXAEBV?$basic_string@DU?$char_traits@D@std@@V?$allocator@D@2@@std@@AEAV?$vector@V?$basic_string@DU?$char_traits@D@std@@V?$allocator@D@2@@std@@V?$allocator@V?$basic_string@DU?$char_traits@D@std@@V?$allocator@D@2@@std@@@2@@4@@Z 0000000180007cf0 f i nodejieba.obj
 0001:00006d00       ?Cut@MPSegment@cppjieba@@QEBAXAEBV?$basic_string@DU?$char_traits@D@std@@V?$allocator@D@2@@std@@AEAV?$vector@V?$basic_string@DU?$char_traits@D@std@@V?$allocator@D@2@@std@@V?$allocator@V?$basic_string@DU?$char_traits@D@std@@V?$allocator@D@2@@std@@@2@@4@_K@Z 0000000180007d00 f i nodejieba.obj
 0001:00006d90       ?Cut@MPSegment@cppjieba@@QEBAXAEBV?$basic_string@DU?$char_traits@D@std@@V?$allocator@D@2@@std@@AEAV?$vector@UWord@cppjieba@@V?$allocator@UWord@cppjieba@@@std@@@4@_K@Z 0000000180007d90 f i nodejieba.obj
 0001:00007080       ?Cut@MPSegment@cppjieba@@QEBAXPEBURuneStr@2@0AEAV?$vector@UWordRange@cppjieba@@V?$allocator@UWordRange@cppjieba@@@std@@@std@@_K@Z 0000000180008080 f i nodejieba.obj
 0001:00007110       ?GetDictTrie@MPSegment@cppjieba@@UEBAPEBVDictTrie@2@XZ 0000000180008110 f i nodejieba.obj
 0001:00007120       ?Tag@MPSegment@cppjieba@@UEBA_NAEBV?$basic_string@DU?$char_traits@D@std@@V?$allocator@D@2@@std@@AEAV?$vector@U?$pair@V?$basic_string@DU?$char_traits@D@std@@V?$allocator@D@2@@std@@V12@@std@@V?$allocator@U?$pair@V?$basic_string@DU?$char_traits@D@std@@V?$allocator@D@2@@std@@V12@@std@@@2@@4@@Z 0000000180008120 f i nodejieba.obj
 0001:00007120       ?Tag@MixSegment@cppjieba@@UEBA_NAEBV?$basic_string@DU?$char_traits@D@std@@V?$allocator@D@2@@std@@AEAV?$vector@U?$pair@V?$basic_string@DU?$char_traits@D@std@@V?$allocator@D@2@@std@@V12@@std@@V?$allocator@U?$pair@V?$basic_string@DU?$char_traits@D@std@@V?$allocator@D@2@@std@@V12@@std@@@2@@4@@Z 0000000180008120 f i nodejieba.obj
 0001:00007130       ?CalcDP@MPSegment@cppjieba@@AEBAXAEAV?$vector@UDag@cppjieba@@V?$allocator@UDag@cppjieba@@@std@@@std@@@Z 0000000180008130 f i nodejieba.obj
 0001:00007280       ?CutByDag@MPSegment@cppjieba@@AEBAXPEBURuneStr@2@0AEBV?$vector@UDag@cppjieba@@V?$allocator@UDag@cppjieba@@@std@@@std@@AEAV?$vector@UWordRange@cppjieba@@V?$allocator@UWordRange@cppjieba@@@std@@@5@@Z 0000000180008280 f i nodejieba.obj
 0001:00007490       ??_GMPSegment@cppjieba@@UEAAPEAXI@Z 0000000180008490 f i nodejieba.obj
 0001:00007490       ??_EMPSegment@cppjieba@@UEAAPEAXI@Z 0000000180008490 f i * CIL library *:* CIL module *
 0001:00007510       ??0HMMModel@cppjieba@@QEAA@AEBV?$basic_string@DU?$char_traits@D@std@@V?$allocator@D@2@@std@@@Z 0000000180008510 f i nodejieba.obj
 0001:00007790       ??1HMMModel@cppjieba@@QEAA@XZ 0000000180008790 f i nodejieba.obj
 0001:00007810       ?LoadModel@HMMModel@cppjieba@@QEAAXAEBV?$basic_string@DU?$char_traits@D@std@@V?$allocator@D@2@@std@@@Z 0000000180008810 f i nodejieba.obj
 0001:00008d30       ?GetEmitProb@HMMModel@cppjieba@@QEBANPEBV?$unordered_map@INU?$hash@I@std@@U?$equal_to@I@2@V?$allocator@U?$pair@$$CBIN@std@@@2@@std@@IN@Z 0000000180009d30 f i nodejieba.obj
 0001:00008df0       ?GetLine@HMMModel@cppjieba@@QEAA_NAEAV?$basic_ifstream@DU?$char_traits@D@std@@@std@@AEAV?$basic_string@DU?$char_traits@D@std@@V?$allocator@D@2@@4@@Z 0000000180009df0 f i nodejieba.obj
 0001:00008f60       ?LoadEmitProb@HMMModel@cppjieba@@QEAA_NAEBV?$basic_string@DU?$char_traits@D@std@@V?$allocator@D@2@@std@@AEAV?$unordered_map@INU?$hash@I@std@@U?$equal_to@I@2@V?$allocator@U?$pair@$$CBIN@std@@@2@@4@@Z 0000000180009f60 f i nodejieba.obj
 0001:000094e0       ??1HMMSegment@cppjieba@@UEAA@XZ 000000018000a4e0 f i nodejieba.obj
 0001:00009540       ?Cut@HMMSegment@cppjieba@@UEBAXAEBV?$basic_string@DU?$char_traits@D@std@@V?$allocator@D@2@@std@@AEAV?$vector@V?$basic_string@DU?$char_traits@D@std@@V?$allocator@D@2@@std@@V?$allocator@V?$basic_string@DU?$char_traits@D@std@@V?$allocator@D@2@@std@@@2@@4@@Z 000000018000a540 f i nodejieba.obj
 0001:000095d0       ?Cut@HMMSegment@cppjieba@@QEBAXAEBV?$basic_string@DU?$char_traits@D@std@@V?$allocator@D@2@@std@@AEAV?$vector@UWord@cppjieba@@V?$allocator@UWord@cppjieba@@@std@@@4@@Z 000000018000a5d0 f i nodejieba.obj
 0001:00009790       ?Cut@HMMSegment@cppjieba@@QEBAXPEBURuneStr@2@0AEAV?$vector@UWordRange@cppjieba@@V?$allocator@UWordRange@cppjieba@@@std@@@std@@@Z 000000018000a790 f i nodejieba.obj
 0001:000098d0       ?SequentialLetterRule@HMMSegment@cppjieba@@AEBAPEBURuneStr@2@PEBU32@0@Z 000000018000a8d0 f i nodejieba.obj
 0001:00009920       ?NumbersRule@HMMSegment@cppjieba@@AEBAPEBURuneStr@2@PEBU32@0@Z 000000018000a920 f i nodejieba.obj
 0001:00009950       ?InternalCut@HMMSegment@cppjieba@@AEBAXPEBURuneStr@2@0AEAV?$vector@UWordRange@cppjieba@@V?$allocator@UWordRange@cppjieba@@@std@@@std@@@Z 000000018000a950 f i nodejieba.obj
 0001:00009ae0       ?Viterbi@HMMSegment@cppjieba@@AEBAXPEBURuneStr@2@0AEAV?$vector@_KV?$allocator@_K@std@@@std@@@Z 000000018000aae0 f i nodejieba.obj
 0001:00009f40       ??_GHMMSegment@cppjieba@@UEAAPEAXI@Z 000000018000af40 f i nodejieba.obj
 0001:00009f40       ??_EHMMSegment@cppjieba@@UEAAPEAXI@Z 000000018000af40 f i * CIL library *:* CIL module *
 0001:00009fc0       ??0MixSegment@cppjieba@@QEAA@PEBVDictTrie@1@PEBUHMMModel@1@@Z 000000018000afc0 f i nodejieba.obj
 0001:0000a070       ??1MixSegment@cppjieba@@UEAA@XZ 000000018000b070 f i nodejieba.obj
 0001:0000a140       ?Cut@MixSegment@cppjieba@@UEBAXAEBV?$basic_string@DU?$char_traits@D@std@@V?$allocator@D@2@@std@@AEAV?$vector@V?$basic_string@DU?$char_traits@D@std@@V?$allocator@D@2@@std@@V?$allocator@V?$basic_string@DU?$char_traits@D@std@@V?$allocator@D@2@@std@@@2@@4@@Z 000000018000b140 f i nodejieba.obj
 0001:0000a150       ?Cut@MixSegment@cppjieba@@QEBAXAEBV?$basic_string@DU?$char_traits@D@std@@V?$allocator@D@2@@std@@AEAV?$vector@V?$basic_string@DU?$char_traits@D@std@@V?$allocator@D@2@@std@@V?$allocator@V?$basic_string@DU?$char_traits@D@std@@V?$allocator@D@2@@std@@@2@@4@_N@Z 000000018000b150 f i nodejieba.obj
 0001:0000a1e0       ?Cut@MixSegment@cppjieba@@QEBAXAEBV?$basic_string@DU?$char_traits@D@std@@V?$allocator@D@2@@std@@AEAV?$vector@UWord@cppjieba@@V?$allocator@UWord@cppjieba@@@std@@@4@_N@Z 000000018000b1e0 f i nodejieba.obj
 0001:0000a3c0       ?Cut@MixSegment@cppjieba@@QEBAXPEBURuneStr@2@0AEAV?$vector@UWordRange@cppjieba@@V?$allocator@UWordRange@cppjieba@@@std@@@std@@_N@Z 000000018000b3c0 f i nodejieba.obj
 0001:0000a8c0       ?GetDictTrie@MixSegment@cppjieba@@UEBAPEBVDictTrie@2@XZ 000000018000b8c0 f i nodejieba.obj
 0001:0000a8d0       ??_EMixSegment@cppjieba@@UEAAPEAXI@Z 000000018000b8d0 f i * CIL library *:* CIL module *
 0001:0000a8d0       ??_GMixSegment@cppjieba@@UEAAPEAXI@Z 000000018000b8d0 f i nodejieba.obj
 0001:0000a910       ?Cut@QuerySegment@cppjieba@@UEBAXAEBV?$basic_string@DU?$char_traits@D@std@@V?$allocator@D@2@@std@@AEAV?$vector@V?$basic_string@DU?$char_traits@D@std@@V?$allocator@D@2@@std@@V?$allocator@V?$basic_string@DU?$char_traits@D@std@@V?$allocator@D@2@@std@@@2@@4@@Z 000000018000b910 f i nodejieba.obj
 0001:0000a920       ?Cut@QuerySegment@cppjieba@@QEBAXAEBV?$basic_string@DU?$char_traits@D@std@@V?$allocator@D@2@@std@@AEAV?$vector@V?$basic_string@DU?$char_traits@D@std@@V?$allocator@D@2@@std@@V?$allocator@V?$basic_string@DU?$char_traits@D@std@@V?$allocator@D@2@@std@@@2@@4@_N@Z 000000018000b920 f i nodejieba.obj
 0001:0000a9b0       ?Cut@QuerySegment@cppjieba@@QEBAXAEBV?$basic_string@DU?$char_traits@D@std@@V?$allocator@D@2@@std@@AEAV?$vector@UWord@cppjieba@@V?$allocator@UWord@cppjieba@@@std@@@4@_N@Z 000000018000b9b0 f i nodejieba.obj
 0001:0000ab90       ?Cut@QuerySegment@cppjieba@@QEBAXPEBURuneStr@2@0AEAV?$vector@UWordRange@cppjieba@@V?$allocator@UWordRange@cppjieba@@@std@@@std@@_N@Z 000000018000bb90 f i nodejieba.obj
 0001:0000b2f0       ??_GQuerySegment@cppjieba@@UEAAPEAXI@Z 000000018000c2f0 f i nodejieba.obj
 0001:0000b2f0       ??_EQuerySegment@cppjieba@@UEAAPEAXI@Z 000000018000c2f0 f i * CIL library *:* CIL module *
 0001:0000b350       ??0Jieba@cppjieba@@QEAA@AEBV?$basic_string@DU?$char_traits@D@std@@V?$allocator@D@2@@std@@00@Z 000000018000c350 f i nodejieba.obj
 0001:0000b4a0       ??1Jieba@cppjieba@@QEAA@XZ 000000018000c4a0 f i nodejieba.obj
 0001:0000b600       ??1KeywordExtractor@cppjieba@@QEAA@XZ 000000018000c600 f i nodejieba.obj
 0001:0000b6d0       ?Extract@KeywordExtractor@cppjieba@@QEBAXAEBV?$basic_string@DU?$char_traits@D@std@@V?$allocator@D@2@@std@@AEAV?$vector@U?$pair@V?$basic_string@DU?$char_traits@D@std@@V?$allocator@D@2@@std@@N@std@@V?$allocator@U?$pair@V?$basic_string@DU?$char_traits@D@std@@V?$allocator@D@2@@std@@N@std@@@2@@4@_K@Z 000000018000c6d0 f i nodejieba.obj
 0001:0000b8a0       ?Extract@KeywordExtractor@cppjieba@@QEBAXAEBV?$basic_string@DU?$char_traits@D@std@@V?$allocator@D@2@@std@@AEAV?$vector@UWord@KeywordExtractor@cppjieba@@V?$allocator@UWord@KeywordExtractor@cppjieba@@@std@@@4@_K@Z 000000018000c8a0 f i nodejieba.obj
 0001:0000bf50       ?LoadIdfDict@KeywordExtractor@cppjieba@@AEAAXAEBV?$basic_string@DU?$char_traits@D@std@@V?$allocator@D@2@@std@@@Z 000000018000cf50 f i nodejieba.obj
 0001:0000c7d0       ?LoadStopWordDict@KeywordExtractor@cppjieba@@AEAAXAEBV?$basic_string@DU?$char_traits@D@std@@V?$allocator@D@2@@std@@@Z 000000018000d7d0 f i nodejieba.obj
 0001:0000cab0       ?Compare@KeywordExtractor@cppjieba@@CA_NAEBUWord@12@0@Z 000000018000dab0 f i nodejieba.obj
 0001:0000cac0       ??1?$unordered_map@V?$basic_string@DU?$char_traits@D@std@@V?$allocator@D@2@@std@@NU?$hash@V?$basic_string@DU?$char_traits@D@std@@V?$allocator@D@2@@std@@@2@U?$equal_to@V?$basic_string@DU?$char_traits@D@std@@V?$allocator@D@2@@std@@@2@V?$allocator@U?$pair@$$CBV?$basic_string@DU?$char_traits@D@std@@V?$allocator@D@2@@std@@N@std@@@2@@std@@QEAA@XZ 000000018000dac0 f i nodejieba.obj
 0001:0000cac0       ??1?$unordered_set@V?$basic_string@DU?$char_traits@D@std@@V?$allocator@D@2@@std@@U?$hash@V?$basic_string@DU?$char_traits@D@std@@V?$allocator@D@2@@std@@@2@U?$equal_to@V?$basic_string@DU?$char_traits@D@std@@V?$allocator@D@2@@std@@@2@V?$allocator@V?$basic_string@DU?$char_traits@D@std@@V?$allocator@D@2@@std@@@2@@std@@QEAA@XZ 000000018000dac0 f i nodejieba.obj
 0001:0000cb10       ??1?$map@V?$basic_string@DU?$char_traits@D@std@@V?$allocator@D@2@@std@@UWord@KeywordExtractor@cppjieba@@U?$less@V?$basic_string@DU?$char_traits@D@std@@V?$allocator@D@2@@std@@@2@V?$allocator@U?$pair@$$CBV?$basic_string@DU?$char_traits@D@std@@V?$allocator@D@2@@std@@UWord@KeywordExtractor@cppjieba@@@std@@@2@@std@@QEAA@XZ 000000018000db10 f i nodejieba.obj
 0001:0000cb40       ?load@@YAXAEBV?$FunctionCallbackInfo@VValue@v8@@@Nan@@@Z 000000018000db40 f   nodejieba.obj
 0001:0000d030       ?insertWord@@YAXAEBV?$FunctionCallbackInfo@VValue@v8@@@Nan@@@Z 000000018000e030 f   nodejieba.obj
 0001:0000d280       ?cut@@YAXAEBV?$FunctionCallbackInfo@VValue@v8@@@Nan@@@Z 000000018000e280 f   nodejieba.obj
 0001:0000d590       ?cutHMM@@YAXAEBV?$FunctionCallbackInfo@VValue@v8@@@Nan@@@Z 000000018000e590 f   nodejieba.obj
 0001:0000d7e0       ?cutAll@@YAXAEBV?$FunctionCallbackInfo@VValue@v8@@@Nan@@@Z 000000018000e7e0 f   nodejieba.obj
 0001:0000da30       ?cutForSearch@@YAXAEBV?$FunctionCallbackInfo@VValue@v8@@@Nan@@@Z 000000018000ea30 f   nodejieba.obj
 0001:0000dd40       ?cutSmall@@YAXAEBV?$FunctionCallbackInfo@VValue@v8@@@Nan@@@Z 000000018000ed40 f   nodejieba.obj
 0001:0000e050       ?tag@@YAXAEBV?$FunctionCallbackInfo@VValue@v8@@@Nan@@@Z 000000018000f050 f   nodejieba.obj
 0001:0000e230       ?extract@@YAXAEBV?$FunctionCallbackInfo@VValue@v8@@@Nan@@@Z 000000018000f230 f   nodejieba.obj
 0001:0000e440       ??A?$map@V?$basic_string@DU?$char_traits@D@std@@V?$allocator@D@2@@std@@UWord@KeywordExtractor@cppjieba@@U?$less@V?$basic_string@DU?$char_traits@D@std@@V?$allocator@D@2@@std@@@2@V?$allocator@U?$pair@$$CBV?$basic_string@DU?$char_traits@D@std@@V?$allocator@D@2@@std@@UWord@KeywordExtractor@cppjieba@@@std@@@2@@std@@QEAAAEAUWord@KeywordExtractor@cppjieba@@AEBV?$basic_string@DU?$char_traits@D@std@@V?$allocator@D@2@@1@@Z 000000018000f440 f i nodejieba.obj
 0001:0000e560       ??0?$unordered_set@V?$basic_string@DU?$char_traits@D@std@@V?$allocator@D@2@@std@@U?$hash@V?$basic_string@DU?$char_traits@D@std@@V?$allocator@D@2@@std@@@2@U?$equal_to@V?$basic_string@DU?$char_traits@D@std@@V?$allocator@D@2@@std@@@2@V?$allocator@V?$basic_string@DU?$char_traits@D@std@@V?$allocator@D@2@@std@@@2@@std@@QEAA@XZ 000000018000f560 f i nodejieba.obj
 0001:0000e5f0       ??A?$unordered_map@V?$basic_string@DU?$char_traits@D@std@@V?$allocator@D@2@@std@@NU?$hash@V?$basic_string@DU?$char_traits@D@std@@V?$allocator@D@2@@std@@@2@U?$equal_to@V?$basic_string@DU?$char_traits@D@std@@V?$allocator@D@2@@std@@@2@V?$allocator@U?$pair@$$CBV?$basic_string@DU?$char_traits@D@std@@V?$allocator@D@2@@std@@N@std@@@2@@std@@QEAAAEANAEBV?$basic_string@DU?$char_traits@D@std@@V?$allocator@D@2@@1@@Z 000000018000f5f0 f i nodejieba.obj
 0001:0000e710       ??0?$unordered_map@V?$basic_string@DU?$char_traits@D@std@@V?$allocator@D@2@@std@@NU?$hash@V?$basic_string@DU?$char_traits@D@std@@V?$allocator@D@2@@std@@@2@U?$equal_to@V?$basic_string@DU?$char_traits@D@std@@V?$allocator@D@2@@std@@@2@V?$allocator@U?$pair@$$CBV?$basic_string@DU?$char_traits@D@std@@V?$allocator@D@2@@std@@N@std@@@2@@std@@QEAA@XZ 000000018000f710 f i nodejieba.obj
 0001:0000e7a0       ?push_back@?$vector@UWord@KeywordExtractor@cppjieba@@V?$allocator@UWord@KeywordExtractor@cppjieba@@@std@@@std@@QEAAXAEBUWord@KeywordExtractor@cppjieba@@@Z 000000018000f7a0 f i nodejieba.obj
 0001:0000e8c0       ?resize@?$vector@UWord@KeywordExtractor@cppjieba@@V?$allocator@UWord@KeywordExtractor@cppjieba@@@std@@@std@@QEAAX_K@Z 000000018000f8c0 f i nodejieba.obj
 0001:0000ea20       ??1?$vector@UWord@KeywordExtractor@cppjieba@@V?$allocator@UWord@KeywordExtractor@cppjieba@@@std@@@std@@QEAA@XZ 000000018000fa20 f i nodejieba.obj
 0001:0000ea60       ??1?$vector@NV?$allocator@N@std@@@std@@QEAA@XZ 000000018000fa60 f i nodejieba.obj
 0001:0000ea70       ??1?$vector@HV?$allocator@H@std@@@std@@QEAA@XZ 000000018000fa70 f i nodejieba.obj
 0001:0000ea80       ?resize@?$vector@_KV?$allocator@_K@std@@@std@@QEAAX_K@Z 000000018000fa80 f i nodejieba.obj
 0001:0000eb80       ??1?$vector@V?$_List_unchecked_iterator@V?$_List_val@U?$_List_simple_types@U?$pair@$$CBIN@std@@@std@@@std@@@std@@U?$_Wrap_alloc@V?$allocator@V?$_List_unchecked_iterator@V?$_List_val@U?$_List_simple_types@U?$pair@$$CBIN@std@@@std@@@std@@@std@@@std@@@2@@std@@QEAA@XZ 000000018000fb80 f i nodejieba.obj
 0001:0000eb80       ??1?$vector@V?$_List_unchecked_iterator@V?$_List_val@U?$_List_simple_types@U?$pair@$$CBV?$basic_string@DU?$char_traits@D@std@@V?$allocator@D@2@@std@@N@std@@@std@@@std@@@std@@U?$_Wrap_alloc@V?$allocator@V?$_List_unchecked_iterator@V?$_List_val@U?$_List_simple_types@U?$pair@$$CBV?$basic_string@DU?$char_traits@D@std@@V?$allocator@D@2@@std@@N@std@@@std@@@std@@@std@@@std@@@2@@std@@QEAA@XZ 000000018000fb80 f i nodejieba.obj
 0001:0000eb80       ??1?$vector@PEAV?$unordered_map@INU?$hash@I@std@@U?$equal_to@I@2@V?$allocator@U?$pair@$$CBIN@std@@@2@@std@@V?$allocator@PEAV?$unordered_map@INU?$hash@I@std@@U?$equal_to@I@2@V?$allocator@U?$pair@$$CBIN@std@@@2@@std@@@2@@std@@QEAA@XZ 000000018000fb80 f i nodejieba.obj
 0001:0000eb80       ??1?$vector@_KV?$allocator@_K@std@@@std@@QEAA@XZ 000000018000fb80 f i nodejieba.obj
 0001:0000eb80       ??1?$vector@PEBUDictUnit@cppjieba@@V?$allocator@PEBUDictUnit@cppjieba@@@std@@@std@@QEAA@XZ 000000018000fb80 f i nodejieba.obj
 0001:0000eb80       ??1?$vector@V?$_List_unchecked_const_iterator@V?$_List_val@U?$_List_simple_types@V?$basic_string@DU?$char_traits@D@std@@V?$allocator@D@2@@std@@@std@@@std@@U_Iterator_base0@2@@std@@U?$_Wrap_alloc@V?$allocator@V?$_List_unchecked_const_iterator@V?$_List_val@U?$_List_simple_types@V?$basic_string@DU?$char_traits@D@std@@V?$allocator@D@2@@std@@@std@@@std@@U_Iterator_base0@2@@std@@@std@@@2@@std@@QEAA@XZ 000000018000fb80 f i nodejieba.obj
 0001:0000eb80       ??1?$vector@V?$_List_unchecked_const_iterator@V?$_List_val@U?$_List_simple_types@I@std@@@std@@U_Iterator_base0@2@@std@@U?$_Wrap_alloc@V?$allocator@V?$_List_unchecked_const_iterator@V?$_List_val@U?$_List_simple_types@I@std@@@std@@U_Iterator_base0@2@@std@@@std@@@2@@std@@QEAA@XZ 000000018000fb80 f i nodejieba.obj
 0001:0000eb80       ??1?$vector@V?$_List_unchecked_iterator@V?$_List_val@U?$_List_simple_types@U?$pair@$$CBIPEAVTrieNode@cppjieba@@@std@@@std@@@std@@@std@@U?$_Wrap_alloc@V?$allocator@V?$_List_unchecked_iterator@V?$_List_val@U?$_List_simple_types@U?$pair@$$CBIPEAVTrieNode@cppjieba@@@std@@@std@@@std@@@std@@@std@@@2@@std@@QEAA@XZ 000000018000fb80 f i nodejieba.obj
 0001:0000ebc0       ??1?$_Hash@V?$_Uset_traits@IV?$_Uhash_compare@IU?$hash@I@std@@U?$equal_to@I@2@@std@@V?$allocator@I@2@$0A@@std@@@std@@QEAA@XZ 000000018000fbc0 f i nodejieba.obj
 0001:0000ebc0       ??1?$_Hash@V?$_Umap_traits@IPEAVTrieNode@cppjieba@@V?$_Uhash_compare@IU?$hash@I@std@@U?$equal_to@I@2@@std@@V?$allocator@U?$pair@$$CBIPEAVTrieNode@cppjieba@@@std@@@4@$0A@@std@@@std@@QEAA@XZ 000000018000fbc0 f i nodejieba.obj
 0001:0000ebc0       ??1?$_Hash@V?$_Umap_traits@INV?$_Uhash_compare@IU?$hash@I@std@@U?$equal_to@I@2@@std@@V?$allocator@U?$pair@$$CBIN@std@@@2@$0A@@std@@@std@@QEAA@XZ 000000018000fbc0 f i nodejieba.obj
 0001:0000ec40       ??A?$unordered_map@INU?$hash@I@std@@U?$equal_to@I@2@V?$allocator@U?$pair@$$CBIN@std@@@2@@std@@QEAAAEANAEBI@Z 000000018000fc40 f i nodejieba.obj
 0001:0000ed30       ??0?$unordered_map@INU?$hash@I@std@@U?$equal_to@I@2@V?$allocator@U?$pair@$$CBIN@std@@@2@@std@@QEAA@XZ 000000018000fd30 f i nodejieba.obj
 0001:0000ed30       ??0?$unordered_map@IPEAVTrieNode@cppjieba@@U?$hash@I@std@@U?$equal_to@I@4@V?$allocator@U?$pair@$$CBIPEAVTrieNode@cppjieba@@@std@@@4@@std@@QEAA@XZ 000000018000fd30 f i nodejieba.obj
 0001:0000edc0       ??0?$unordered_set@IU?$hash@I@std@@U?$equal_to@I@2@V?$allocator@I@2@@std@@QEAA@XZ 000000018000fdc0 f i nodejieba.obj
 0001:0000ee50       ??1?$deque@UDictUnit@cppjieba@@V?$allocator@UDictUnit@cppjieba@@@std@@@std@@QEAA@XZ 000000018000fe50 f i nodejieba.obj
 0001:0000ee80       ??1?$vector@UDictUnit@cppjieba@@V?$allocator@UDictUnit@cppjieba@@@std@@@std@@QEAA@XZ 000000018000fe80 f i nodejieba.obj
 0001:0000eec0       ?resize@?$vector@UDag@cppjieba@@V?$allocator@UDag@cppjieba@@@std@@@std@@QEAAX_K@Z 000000018000fec0 f i nodejieba.obj
 0001:0000ef90       ??1?$vector@UDag@cppjieba@@V?$allocator@UDag@cppjieba@@@std@@@std@@QEAA@XZ 000000018000ff90 f i nodejieba.obj
 0001:0000efa0       ??1?$vector@V?$LocalVector@I@limonp@@V?$allocator@V?$LocalVector@I@limonp@@@std@@@std@@QEAA@XZ 000000018000ffa0 f i nodejieba.obj
 0001:0000efb0       ??1?$LocalVector@U?$pair@_KPEBUDictUnit@cppjieba@@@std@@@limonp@@QEAA@XZ 000000018000ffb0 f i nodejieba.obj
 0001:0000efd0       ??1?$vector@UWord@cppjieba@@V?$allocator@UWord@cppjieba@@@std@@@std@@QEAA@XZ 000000018000ffd0 f i nodejieba.obj
 0001:0000efd0       ??1?$vector@U?$pair@V?$basic_string@DU?$char_traits@D@std@@V?$allocator@D@2@@std@@N@std@@V?$allocator@U?$pair@V?$basic_string@DU?$char_traits@D@std@@V?$allocator@D@2@@std@@N@std@@@2@@std@@QEAA@XZ 000000018000ffd0 f i nodejieba.obj
 0001:0000f030       ?push_back@?$vector@UWord@cppjieba@@V?$allocator@UWord@cppjieba@@@std@@@std@@QEAAX$$QEAUWord@cppjieba@@@Z 0000000180010030 f i nodejieba.obj
 0001:0000f0f0       ??1?$vector@UWordRange@cppjieba@@V?$allocator@UWordRange@cppjieba@@@std@@@std@@QEAA@XZ 00000001800100f0 f i nodejieba.obj
 0001:0000f130       ?reserve@?$LocalVector@URuneStr@cppjieba@@@limonp@@QEAAX_K@Z 0000000180010130 f i nodejieba.obj
 0001:0000f1d0       ??1?$LocalVector@URuneStr@cppjieba@@@limonp@@QEAA@XZ 00000001800101d0 f i nodejieba.obj
 0001:0000f1f0       ?reserve@?$LocalVector@I@limonp@@QEAAX_K@Z 00000001800101f0 f i nodejieba.obj
 0001:0000f280       ??1?$LocalVector@I@limonp@@QEAA@XZ 0000000180010280 f i nodejieba.obj
 0001:0000f2a0       ??1?$vector@U?$pair@V?$basic_string@DU?$char_traits@D@std@@V?$allocator@D@2@@std@@V12@@std@@V?$allocator@U?$pair@V?$basic_string@DU?$char_traits@D@std@@V?$allocator@D@2@@std@@V12@@std@@@2@@std@@QEAA@XZ 00000001800102a0 f i nodejieba.obj
 0001:0000f2e0       ?push_back@?$vector@U?$pair@V?$basic_string@DU?$char_traits@D@std@@V?$allocator@D@2@@std@@N@std@@V?$allocator@U?$pair@V?$basic_string@DU?$char_traits@D@std@@V?$allocator@D@2@@std@@N@std@@@2@@std@@QEAAX$$QEAU?$pair@V?$basic_string@DU?$char_traits@D@std@@V?$allocator@D@2@@std@@N@2@@Z 00000001800102e0 f i nodejieba.obj
 0001:0000f3a0       ?push_back@?$vector@V?$basic_string@DU?$char_traits@D@std@@V?$allocator@D@2@@std@@V?$allocator@V?$basic_string@DU?$char_traits@D@std@@V?$allocator@D@2@@std@@@2@@std@@QEAAXAEBV?$basic_string@DU?$char_traits@D@std@@V?$allocator@D@2@@2@@Z 00000001800103a0 f i nodejieba.obj
 0001:0000f480       ?resize@?$vector@V?$basic_string@DU?$char_traits@D@std@@V?$allocator@D@2@@std@@V?$allocator@V?$basic_string@DU?$char_traits@D@std@@V?$allocator@D@2@@std@@@2@@std@@QEAAX_K@Z 0000000180010480 f i nodejieba.obj
 0001:0000f5b0       ??1?$vector@V?$basic_string@DU?$char_traits@D@std@@V?$allocator@D@2@@std@@V?$allocator@V?$basic_string@DU?$char_traits@D@std@@V?$allocator@D@2@@std@@@2@@std@@QEAA@XZ 00000001800105b0 f i nodejieba.obj
 0001:0000f5f0       ??1?$_Yarn@D@std@@QEAA@XZ  00000001800105f0 f i nodejieba.obj
 0001:0000f5f0       ??1?$_Yarn@_W@std@@QEAA@XZ 00000001800105f0 f i nodejieba.obj
 0001:0000f620       ?compare@?$basic_string@DU?$char_traits@D@std@@V?$allocator@D@2@@std@@QEBAHAEBV12@@Z 0000000180010620 f i nodejieba.obj
 0001:0000f6a0       ?substr@?$basic_string@DU?$char_traits@D@std@@V?$allocator@D@2@@std@@QEBA?AV12@_K0@Z 00000001800106a0 f i nodejieba.obj
 0001:0000f6e0       ??0?$basic_string@DU?$char_traits@D@std@@V?$allocator@D@2@@std@@QEAA@$$QEAV01@@Z 00000001800106e0 f i nodejieba.obj
 0001:0000f760       ??1?$basic_ifstream@DU?$char_traits@D@std@@@std@@UEAA@XZ 0000000180010760 f i nodejieba.obj
 0001:0000f7e0       ??0?$basic_ifstream@DU?$char_traits@D@std@@@std@@QEAA@PEBDHH@Z 00000001800107e0 f i nodejieba.obj
 0001:0000f960       ?imbue@?$basic_filebuf@DU?$char_traits@D@std@@@std@@MEAAXAEBVlocale@2@@Z 0000000180010960 f i nodejieba.obj
 0001:0000f990       ?sync@?$basic_filebuf@DU?$char_traits@D@std@@@std@@MEAAHXZ 0000000180010990 f i nodejieba.obj
 0001:0000f9e0       ?setbuf@?$basic_filebuf@DU?$char_traits@D@std@@@std@@MEAAPEAV?$basic_streambuf@DU?$char_traits@D@std@@@2@PEAD_J@Z 00000001800109e0 f i nodejieba.obj
 0001:0000fa40       ?seekpos@?$basic_filebuf@DU?$char_traits@D@std@@@std@@MEAA?AV?$fpos@U_Mbstatet@@@2@V32@H@Z 0000000180010a40 f i nodejieba.obj
 0001:0000fb20       ?seekoff@?$basic_filebuf@DU?$char_traits@D@std@@@std@@MEAA?AV?$fpos@U_Mbstatet@@@2@_JHH@Z 0000000180010b20 f i nodejieba.obj
 0001:0000fc10       ?uflow@?$basic_filebuf@DU?$char_traits@D@std@@@std@@MEAAHXZ 0000000180010c10 f i nodejieba.obj
 0001:0000ffa0       ?underflow@?$basic_filebuf@DU?$char_traits@D@std@@@std@@MEAAHXZ 0000000180010fa0 f i nodejieba.obj
 0001:00010010       ?pbackfail@?$basic_filebuf@DU?$char_traits@D@std@@@std@@MEAAHH@Z 0000000180011010 f i nodejieba.obj
 0001:000100c0       ?overflow@?$basic_filebuf@DU?$char_traits@D@std@@@std@@MEAAHH@Z 00000001800110c0 f i nodejieba.obj
 0001:00010340       ?_Unlock@?$basic_filebuf@DU?$char_traits@D@std@@@std@@UEAAXXZ 0000000180011340 f i nodejieba.obj
 0001:00010360       ?_Lock@?$basic_filebuf@DU?$char_traits@D@std@@@std@@UEAAXXZ 0000000180011360 f i nodejieba.obj
 0001:00010380       ??1?$basic_filebuf@DU?$char_traits@D@std@@@std@@UEAA@XZ 0000000180011380 f i nodejieba.obj
 0001:00010430       ?str@?$basic_ostringstream@DU?$char_traits@D@std@@V?$allocator@D@2@@std@@QEBA?AV?$basic_string@DU?$char_traits@D@std@@V?$allocator@D@2@@2@XZ 0000000180011430 f i nodejieba.obj
 0001:00010460       ??1?$basic_ostringstream@DU?$char_traits@D@std@@V?$allocator@D@2@@std@@UEAA@XZ 0000000180011460 f i nodejieba.obj
 0001:00010540       ??0?$basic_ostringstream@DU?$char_traits@D@std@@V?$allocator@D@2@@std@@QEAA@H@Z 0000000180011540 f i nodejieba.obj
 0001:00010620       ?seekpos@?$basic_stringbuf@DU?$char_traits@D@std@@V?$allocator@D@2@@std@@MEAA?AV?$fpos@U_Mbstatet@@@2@V32@H@Z 0000000180011620 f i nodejieba.obj
 0001:00010730       ?seekoff@?$basic_stringbuf@DU?$char_traits@D@std@@V?$allocator@D@2@@std@@MEAA?AV?$fpos@U_Mbstatet@@@2@_JHH@Z 0000000180011730 f i nodejieba.obj
 0001:000108c0       ?underflow@?$basic_stringbuf@DU?$char_traits@D@std@@V?$allocator@D@2@@std@@MEAAHXZ 00000001800118c0 f i nodejieba.obj
 0001:00010920       ?pbackfail@?$basic_stringbuf@DU?$char_traits@D@std@@V?$allocator@D@2@@std@@MEAAHH@Z 0000000180011920 f i nodejieba.obj
 0001:00010970       ?overflow@?$basic_stringbuf@DU?$char_traits@D@std@@V?$allocator@D@2@@std@@MEAAHH@Z 0000000180011970 f i nodejieba.obj
 0001:00010be0       ??6?$basic_ostream@DU?$char_traits@D@std@@@std@@QEAAAEAV01@_K@Z 0000000180011be0 f i nodejieba.obj
 0001:00010d90       ??6?$basic_ostream@DU?$char_traits@D@std@@@std@@QEAAAEAV01@H@Z 0000000180011d90 f i nodejieba.obj
 0001:00010f40       ??1?$basic_ostream@DU?$char_traits@D@std@@@std@@UEAA@XZ 0000000180011f40 f i nodejieba.obj
 0001:00010f70       ??1?$basic_istream@DU?$char_traits@D@std@@@std@@UEAA@XZ 0000000180011f70 f i nodejieba.obj
 0001:00010fa0       ?sync@?$basic_streambuf@DU?$char_traits@D@std@@@std@@MEAAHXZ 0000000180011fa0 f i nodejieba.obj
 0001:00010fa0       ?showmanyc@?$basic_streambuf@DU?$char_traits@D@std@@@std@@MEAA_JXZ 0000000180011fa0 f i nodejieba.obj
 0001:00010fb0       ?setbuf@?$basic_streambuf@DU?$char_traits@D@std@@@std@@MEAAPEAV12@PEAD_J@Z 0000000180011fb0 f i nodejieba.obj
 0001:00010fc0       ?seekpos@?$basic_streambuf@DU?$char_traits@D@std@@@std@@MEAA?AV?$fpos@U_Mbstatet@@@2@V32@H@Z 0000000180011fc0 f i nodejieba.obj
 0001:00010fc0       ?seekoff@?$basic_streambuf@DU?$char_traits@D@std@@@std@@MEAA?AV?$fpos@U_Mbstatet@@@2@_JHH@Z 0000000180011fc0 f i nodejieba.obj
 0001:00010fe0       ?xsputn@?$basic_streambuf@DU?$char_traits@D@std@@@std@@MEAA_JPEBD_J@Z 0000000180011fe0 f i nodejieba.obj
 0001:000110a0       ?xsgetn@?$basic_streambuf@DU?$char_traits@D@std@@@std@@MEAA_JPEAD_J@Z 00000001800120a0 f i nodejieba.obj
 0001:00011160       ?uflow@?$basic_streambuf@DU?$char_traits@D@std@@@std@@MEAAHXZ 0000000180012160 f i nodejieba.obj
 0001:000111a0       ?overflow@?$basic_streambuf@DU?$char_traits@D@std@@@std@@MEAAHH@Z 00000001800121a0 f i nodejieba.obj
 0001:000111a0       ?underflow@?$basic_streambuf@DU?$char_traits@D@std@@@std@@MEAAHXZ 00000001800121a0 f i nodejieba.obj
 0001:000111a0       ?pbackfail@?$basic_streambuf@DU?$char_traits@D@std@@@std@@MEAAHH@Z 00000001800121a0 f i nodejieba.obj
 0001:000111b0       ??1?$basic_streambuf@DU?$char_traits@D@std@@@std@@UEAA@XZ 00000001800121b0 f i nodejieba.obj
 0001:00011210       ??1?$basic_ios@DU?$char_traits@D@std@@@std@@UEAA@XZ 0000000180012210 f i nodejieba.obj
 0001:00011220       ??_G?$basic_ifstream@DU?$char_traits@D@std@@@std@@UEAAPEAXI@Z 0000000180012220 f i nodejieba.obj
 0001:00011220       ??_E?$basic_ifstream@DU?$char_traits@D@std@@@std@@UEAAPEAXI@Z 0000000180012220 f i * CIL library *:* CIL module *
 0001:00011290       ??_G?$basic_filebuf@DU?$char_traits@D@std@@@std@@UEAAPEAXI@Z 0000000180012290 f i nodejieba.obj
 0001:00011290       ??_E?$basic_filebuf@DU?$char_traits@D@std@@@std@@UEAAPEAXI@Z 0000000180012290 f i * CIL library *:* CIL module *
 0001:000112d0       ??_G?$basic_ostringstream@DU?$char_traits@D@std@@V?$allocator@D@2@@std@@UEAAPEAXI@Z 00000001800122d0 f i nodejieba.obj
 0001:000112d0       ??_E?$basic_ostringstream@DU?$char_traits@D@std@@V?$allocator@D@2@@std@@UEAAPEAXI@Z 00000001800122d0 f i * CIL library *:* CIL module *
 0001:00011340       ??_E?$basic_stringbuf@DU?$char_traits@D@std@@V?$allocator@D@2@@std@@UEAAPEAXI@Z 0000000180012340 f i * CIL library *:* CIL module *
 0001:00011340       ??_G?$basic_stringbuf@DU?$char_traits@D@std@@V?$allocator@D@2@@std@@UEAAPEAXI@Z 0000000180012340 f i nodejieba.obj
 0001:000113d0       ??_G?$basic_ostream@DU?$char_traits@D@std@@@std@@UEAAPEAXI@Z 00000001800123d0 f i nodejieba.obj
 0001:000113d0       ??_E?$basic_ostream@DU?$char_traits@D@std@@@std@@UEAAPEAXI@Z 00000001800123d0 f i * CIL library *:* CIL module *
 0001:00011440       ??_G?$basic_istream@DU?$char_traits@D@std@@@std@@UEAAPEAXI@Z 0000000180012440 f i nodejieba.obj
 0001:00011440       ??_E?$basic_istream@DU?$char_traits@D@std@@@std@@UEAAPEAXI@Z 0000000180012440 f i * CIL library *:* CIL module *
 0001:000114b0       ??_E?$basic_streambuf@DU?$char_traits@D@std@@@std@@UEAAPEAXI@Z 00000001800124b0 f i * CIL library *:* CIL module *
 0001:000114b0       ??_G?$basic_streambuf@DU?$char_traits@D@std@@@std@@UEAAPEAXI@Z 00000001800124b0 f i nodejieba.obj
 0001:00011530       ??_Glocale@std@@QEAAPEAXI@Z 0000000180012530 f i nodejieba.obj
 0001:00011590       ??_E?$basic_ios@DU?$char_traits@D@std@@@std@@UEAAPEAXI@Z 0000000180012590 f i * CIL library *:* CIL module *
 0001:00011590       ??_G?$basic_ios@DU?$char_traits@D@std@@@std@@UEAAPEAXI@Z 0000000180012590 f i nodejieba.obj
 0001:000115d0       ??1?$list@V?$basic_string@DU?$char_traits@D@std@@V?$allocator@D@2@@std@@V?$allocator@V?$basic_string@DU?$char_traits@D@std@@V?$allocator@D@2@@std@@@2@@std@@QEAA@XZ 00000001800125d0 f i nodejieba.obj
 0001:000115d0       ??1?$list@U?$pair@$$CBV?$basic_string@DU?$char_traits@D@std@@V?$allocator@D@2@@std@@N@std@@V?$allocator@U?$pair@$$CBV?$basic_string@DU?$char_traits@D@std@@V?$allocator@D@2@@std@@N@std@@@2@@std@@QEAA@XZ 00000001800125d0 f i nodejieba.obj
 0001:000115f0       ?lower_bound@?$_Hash@V?$_Umap_traits@V?$basic_string@DU?$char_traits@D@std@@V?$allocator@D@2@@std@@NV?$_Uhash_compare@V?$basic_string@DU?$char_traits@D@std@@V?$allocator@D@2@@std@@U?$hash@V?$basic_string@DU?$char_traits@D@std@@V?$allocator@D@2@@std@@@2@U?$equal_to@V?$basic_string@DU?$char_traits@D@std@@V?$allocator@D@2@@std@@@2@@2@V?$allocator@U?$pair@$$CBV?$basic_string@DU?$char_traits@D@std@@V?$allocator@D@2@@std@@N@std@@@2@$0A@@std@@@std@@QEBA?AV?$_List_const_iterator@V?$_List_val@U?$_List_simple_types@U?$pair@$$CBV?$basic_string@DU?$char_traits@D@std@@V?$allocator@D@2@@std@@N@std@@@std@@@std@@@2@AEBV?$basic_string@DU?$char_traits@D@std@@V?$allocator@D@2@@2@@Z 00000001800125f0 f i nodejieba.obj
 0001:000115f0       ?lower_bound@?$_Hash@V?$_Uset_traits@V?$basic_string@DU?$char_traits@D@std@@V?$allocator@D@2@@std@@V?$_Uhash_compare@V?$basic_string@DU?$char_traits@D@std@@V?$allocator@D@2@@std@@U?$hash@V?$basic_string@DU?$char_traits@D@std@@V?$allocator@D@2@@std@@@2@U?$equal_to@V?$basic_string@DU?$char_traits@D@std@@V?$allocator@D@2@@std@@@2@@2@V?$allocator@V?$basic_string@DU?$char_traits@D@std@@V?$allocator@D@2@@std@@@2@$0A@@std@@@std@@QEBA?AV?$_List_const_iterator@V?$_List_val@U?$_List_simple_types@V?$basic_string@DU?$char_traits@D@std@@V?$allocator@D@2@@std@@@std@@@std@@@2@AEBV?$basic_string@DU?$char_traits@D@std@@V?$allocator@D@2@@2@@Z 00000001800125f0 f i nodejieba.obj
 0001:000115f0       ?lower_bound@?$_Hash@V?$_Umap_traits@V?$basic_string@DU?$char_traits@D@std@@V?$allocator@D@2@@std@@NV?$_Uhash_compare@V?$basic_string@DU?$char_traits@D@std@@V?$allocator@D@2@@std@@U?$hash@V?$basic_string@DU?$char_traits@D@std@@V?$allocator@D@2@@std@@@2@U?$equal_to@V?$basic_string@DU?$char_traits@D@std@@V?$allocator@D@2@@std@@@2@@2@V?$allocator@U?$pair@$$CBV?$basic_string@DU?$char_traits@D@std@@V?$allocator@D@2@@std@@N@std@@@2@$0A@@std@@@std@@QEAA?AV?$_List_iterator@V?$_List_val@U?$_List_simple_types@U?$pair@$$CBV?$basic_string@DU?$char_traits@D@std@@V?$allocator@D@2@@std@@N@std@@@std@@@std@@@2@AEBV?$basic_string@DU?$char_traits@D@std@@V?$allocator@D@2@@2@@Z 00000001800125f0 f i nodejieba.obj
 0001:00011780       ?_Reserve@?$vector@UWord@KeywordExtractor@cppjieba@@V?$allocator@UWord@KeywordExtractor@cppjieba@@@std@@@std@@IEAAX_K@Z 0000000180012780 f i nodejieba.obj
 0001:00011810       ?_Reallocate@?$vector@UWord@KeywordExtractor@cppjieba@@V?$allocator@UWord@KeywordExtractor@cppjieba@@@std@@@std@@IEAAX_K@Z 0000000180012810 f i nodejieba.obj
 0001:000118a0       ?_Tidy@?$vector@NV?$allocator@N@std@@@std@@IEAAXXZ 00000001800128a0 f i nodejieba.obj
 0001:00011940       ?_Tidy@?$vector@HV?$allocator@H@std@@@std@@IEAAXXZ 0000000180012940 f i nodejieba.obj
 0001:000119e0       ?_Reserve@?$vector@_KV?$allocator@_K@std@@@std@@IEAAX_K@Z 00000001800129e0 f i nodejieba.obj
 0001:00011a70       ?_Reserve@?$vector@PEAV?$unordered_map@INU?$hash@I@std@@U?$equal_to@I@2@V?$allocator@U?$pair@$$CBIN@std@@@2@@std@@V?$allocator@PEAV?$unordered_map@INU?$hash@I@std@@U?$equal_to@I@2@V?$allocator@U?$pair@$$CBIN@std@@@2@@std@@@2@@std@@IEAAX_K@Z 0000000180012a70 f i nodejieba.obj
 0001:00011b00       ??1?$list@U?$pair@$$CBIN@std@@V?$allocator@U?$pair@$$CBIN@std@@@2@@std@@QEAA@XZ 0000000180012b00 f i nodejieba.obj
 0001:00011b00       ??1?$list@IV?$allocator@I@std@@@std@@QEAA@XZ 0000000180012b00 f i nodejieba.obj
 0001:00011b00       ??1?$list@U?$pair@$$CBIPEAVTrieNode@cppjieba@@@std@@V?$allocator@U?$pair@$$CBIPEAVTrieNode@cppjieba@@@std@@@2@@std@@QEAA@XZ 0000000180012b00 f i nodejieba.obj
 0001:00011b60       ?lower_bound@?$_Hash@V?$_Umap_traits@INV?$_Uhash_compare@IU?$hash@I@std@@U?$equal_to@I@2@@std@@V?$allocator@U?$pair@$$CBIN@std@@@2@$0A@@std@@@std@@QEAA?AV?$_List_iterator@V?$_List_val@U?$_List_simple_types@U?$pair@$$CBIN@std@@@std@@@std@@@2@AEBI@Z 0000000180012b60 f i nodejieba.obj
 0001:00011b60       ?lower_bound@?$_Hash@V?$_Uset_traits@IV?$_Uhash_compare@IU?$hash@I@std@@U?$equal_to@I@2@@std@@V?$allocator@I@2@$0A@@std@@@std@@QEBA?AV?$_List_const_iterator@V?$_List_val@U?$_List_simple_types@I@std@@@std@@@2@AEBI@Z 0000000180012b60 f i nodejieba.obj
 0001:00011b60       ?lower_bound@?$_Hash@V?$_Umap_traits@IPEAVTrieNode@cppjieba@@V?$_Uhash_compare@IU?$hash@I@std@@U?$equal_to@I@2@@std@@V?$allocator@U?$pair@$$CBIPEAVTrieNode@cppjieba@@@std@@@4@$0A@@std@@@std@@QEAA?AV?$_List_iterator@V?$_List_val@U?$_List_simple_types@U?$pair@$$CBIPEAVTrieNode@cppjieba@@@std@@@std@@@std@@@2@AEBI@Z 0000000180012b60 f i nodejieba.obj
 0001:00011c20       ?do_length@?$codecvt@DDU_Mbstatet@@@std@@MEBAHAEAU_Mbstatet@@PEBD1_K@Z 0000000180012c20 f i nodejieba.obj
 0001:00011c40       ?do_unshift@?$codecvt@DDU_Mbstatet@@@std@@MEBAHAEAU_Mbstatet@@PEAD1AEAPEAD@Z 0000000180012c40 f i nodejieba.obj
 0001:00011c50       ?do_out@?$codecvt@DDU_Mbstatet@@@std@@MEBAHAEAU_Mbstatet@@PEBD1AEAPEBDPEAD3AEAPEAD@Z 0000000180012c50 f i nodejieba.obj
 0001:00011c50       ?do_in@?$codecvt@DDU_Mbstatet@@@std@@MEBAHAEAU_Mbstatet@@PEBD1AEAPEBDPEAD3AEAPEAD@Z 0000000180012c50 f i nodejieba.obj
 0001:00011c70       ?do_always_noconv@?$codecvt@DDU_Mbstatet@@@std@@MEBA_NXZ 0000000180012c70 f i nodejieba.obj
 0001:00011c70       __acrt_uninitialize_command_line 0000000180012c70 f i libucrt:argv_data.obj
 0001:00011c80       ?_Init@?$_Hash@V?$_Umap_traits@IPEAVTrieNode@cppjieba@@V?$_Uhash_compare@IU?$hash@I@std@@U?$equal_to@I@2@@std@@V?$allocator@U?$pair@$$CBIPEAVTrieNode@cppjieba@@@std@@@4@$0A@@std@@@std@@IEAAX_K@Z 0000000180012c80 f i nodejieba.obj
 0001:00011c80       ?_Init@?$_Hash@V?$_Umap_traits@V?$basic_string@DU?$char_traits@D@std@@V?$allocator@D@2@@std@@NV?$_Uhash_compare@V?$basic_string@DU?$char_traits@D@std@@V?$allocator@D@2@@std@@U?$hash@V?$basic_string@DU?$char_traits@D@std@@V?$allocator@D@2@@std@@@2@U?$equal_to@V?$basic_string@DU?$char_traits@D@std@@V?$allocator@D@2@@std@@@2@@2@V?$allocator@U?$pair@$$CBV?$basic_string@DU?$char_traits@D@std@@V?$allocator@D@2@@std@@N@std@@@2@$0A@@std@@@std@@IEAAX_K@Z 0000000180012c80 f i nodejieba.obj
 0001:00011c80       ?_Init@?$_Hash@V?$_Umap_traits@INV?$_Uhash_compare@IU?$hash@I@std@@U?$equal_to@I@2@@std@@V?$allocator@U?$pair@$$CBIN@std@@@2@$0A@@std@@@std@@IEAAX_K@Z 0000000180012c80 f i nodejieba.obj
 0001:00011c80       ?_Init@?$_Hash@V?$_Uset_traits@IV?$_Uhash_compare@IU?$hash@I@std@@U?$equal_to@I@2@@std@@V?$allocator@I@2@$0A@@std@@@std@@IEAAX_K@Z 0000000180012c80 f i nodejieba.obj
 0001:00011c80       ?_Init@?$_Hash@V?$_Uset_traits@V?$basic_string@DU?$char_traits@D@std@@V?$allocator@D@2@@std@@V?$_Uhash_compare@V?$basic_string@DU?$char_traits@D@std@@V?$allocator@D@2@@std@@U?$hash@V?$basic_string@DU?$char_traits@D@std@@V?$allocator@D@2@@std@@@2@U?$equal_to@V?$basic_string@DU?$char_traits@D@std@@V?$allocator@D@2@@std@@@2@@2@V?$allocator@V?$basic_string@DU?$char_traits@D@std@@V?$allocator@D@2@@std@@@2@$0A@@std@@@std@@IEAAX_K@Z 0000000180012c80 f i nodejieba.obj
 0001:00011d20       ??G?$_Deque_iterator@V?$_Deque_val@U?$_Deque_simple_types@UDictUnit@cppjieba@@@std@@@std@@@std@@QEBA?AV01@_J@Z 0000000180012d20 f i nodejieba.obj
 0001:00011d70       ?_Tidy@?$deque@UDictUnit@cppjieba@@V?$allocator@UDictUnit@cppjieba@@@std@@@std@@IEAAXXZ 0000000180012d70 f i nodejieba.obj
 0001:00011f10       ?_Growmap@?$deque@UDictUnit@cppjieba@@V?$allocator@UDictUnit@cppjieba@@@std@@@std@@IEAAX_K@Z 0000000180012f10 f i nodejieba.obj
 0001:00012100       ?end@?$deque@UDictUnit@cppjieba@@V?$allocator@UDictUnit@cppjieba@@@std@@@std@@QEAA?AV?$_Deque_iterator@V?$_Deque_val@U?$_Deque_simple_types@UDictUnit@cppjieba@@@std@@@std@@@2@XZ 0000000180013100 f i nodejieba.obj
 0001:00012120       ?_Reserve@?$vector@UDictUnit@cppjieba@@V?$allocator@UDictUnit@cppjieba@@@std@@@std@@IEAAX_K@Z 0000000180013120 f i nodejieba.obj
 0001:000121b0       ?_Tidy@?$vector@UDag@cppjieba@@V?$allocator@UDag@cppjieba@@@std@@@std@@IEAAXXZ 00000001800131b0 f i nodejieba.obj
 0001:00012270       ?_Reserve@?$vector@UDag@cppjieba@@V?$allocator@UDag@cppjieba@@@std@@@std@@IEAAX_K@Z 0000000180013270 f i nodejieba.obj
 0001:00012340       ?_Pop_back_n@?$vector@UDag@cppjieba@@V?$allocator@UDag@cppjieba@@@std@@@std@@QEAAX_K@Z 0000000180013340 f i nodejieba.obj
 0001:000123e0       ?_Tidy@?$vector@V?$LocalVector@I@limonp@@V?$allocator@V?$LocalVector@I@limonp@@@std@@@std@@IEAAXXZ 00000001800133e0 f i nodejieba.obj
 0001:00012470       ?_Reserve@?$vector@V?$LocalVector@I@limonp@@V?$allocator@V?$LocalVector@I@limonp@@@std@@@std@@IEAAX_K@Z 0000000180013470 f i nodejieba.obj
 0001:00012540       ?reserve@?$LocalVector@U?$pair@_KPEBUDictUnit@cppjieba@@@std@@@limonp@@QEAAX_K@Z 0000000180013540 f i nodejieba.obj
 0001:000125e0       ?_Reserve@?$vector@UWord@cppjieba@@V?$allocator@UWord@cppjieba@@@std@@@std@@IEAAX_K@Z 00000001800135e0 f i nodejieba.obj
 0001:000126b0       ?_Reallocate@?$vector@UWord@cppjieba@@V?$allocator@UWord@cppjieba@@@std@@@std@@IEAAX_K@Z 00000001800136b0 f i nodejieba.obj
 0001:00012780       ?_Reserve@?$vector@UWordRange@cppjieba@@V?$allocator@UWordRange@cppjieba@@@std@@@std@@IEAAX_K@Z 0000000180013780 f i nodejieba.obj
 0001:00012810       ?_Reallocate@?$vector@UWordRange@cppjieba@@V?$allocator@UWordRange@cppjieba@@@std@@@std@@IEAAX_K@Z 0000000180013810 f i nodejieba.obj
 0001:000128b0       ??4?$LocalVector@I@limonp@@QEAAAEAV01@AEBV01@@Z 00000001800138b0 f i nodejieba.obj
 0001:00012970       ?_Reserve@?$vector@U?$pair@V?$basic_string@DU?$char_traits@D@std@@V?$allocator@D@2@@std@@V12@@std@@V?$allocator@U?$pair@V?$basic_string@DU?$char_traits@D@std@@V?$allocator@D@2@@std@@V12@@std@@@2@@std@@IEAAX_K@Z 0000000180013970 f i nodejieba.obj
 0001:00012a00       ?_Reserve@?$vector@U?$pair@V?$basic_string@DU?$char_traits@D@std@@V?$allocator@D@2@@std@@N@std@@V?$allocator@U?$pair@V?$basic_string@DU?$char_traits@D@std@@V?$allocator@D@2@@std@@N@std@@@2@@std@@IEAAX_K@Z 0000000180013a00 f i nodejieba.obj
 0001:00012ad0       ?_Reserve@?$vector@V?$basic_string@DU?$char_traits@D@std@@V?$allocator@D@2@@std@@V?$allocator@V?$basic_string@DU?$char_traits@D@std@@V?$allocator@D@2@@std@@@2@@std@@IEAAX_K@Z 0000000180013ad0 f i nodejieba.obj
 0001:00012b60       ??1sentry@?$basic_ostream@DU?$char_traits@D@std@@@std@@QEAA@XZ 0000000180013b60 f i nodejieba.obj
 0001:00012be0       ??0sentry@?$basic_ostream@DU?$char_traits@D@std@@@std@@QEAA@AEAV12@@Z 0000000180013be0 f i nodejieba.obj
 0001:00012c60       ?do_put@?$num_put@DV?$ostreambuf_iterator@DU?$char_traits@D@std@@@std@@@std@@MEBA?AV?$ostreambuf_iterator@DU?$char_traits@D@std@@@2@V32@AEAVios_base@2@DPEBX@Z 0000000180013c60 f i nodejieba.obj
 0001:00012d00       ?do_put@?$num_put@DV?$ostreambuf_iterator@DU?$char_traits@D@std@@@std@@@std@@MEBA?AV?$ostreambuf_iterator@DU?$char_traits@D@std@@@2@V32@AEAVios_base@2@DO@Z 0000000180013d00 f i nodejieba.obj
 0001:00012f40       ?do_put@?$num_put@DV?$ostreambuf_iterator@DU?$char_traits@D@std@@@std@@@std@@MEBA?AV?$ostreambuf_iterator@DU?$char_traits@D@std@@@2@V32@AEAVios_base@2@DN@Z 0000000180013f40 f i nodejieba.obj
 0001:00013180       ?do_put@?$num_put@DV?$ostreambuf_iterator@DU?$char_traits@D@std@@@std@@@std@@MEBA?AV?$ostreambuf_iterator@DU?$char_traits@D@std@@@2@V32@AEAVios_base@2@D_K@Z 0000000180014180 f i nodejieba.obj
 0001:00013280       ?do_put@?$num_put@DV?$ostreambuf_iterator@DU?$char_traits@D@std@@@std@@@std@@MEBA?AV?$ostreambuf_iterator@DU?$char_traits@D@std@@@2@V32@AEAVios_base@2@D_J@Z 0000000180014280 f i nodejieba.obj
 0001:00013380       ?do_put@?$num_put@DV?$ostreambuf_iterator@DU?$char_traits@D@std@@@std@@@std@@MEBA?AV?$ostreambuf_iterator@DU?$char_traits@D@std@@@2@V32@AEAVios_base@2@DK@Z 0000000180014380 f i nodejieba.obj
 0001:00013480       ?do_put@?$num_put@DV?$ostreambuf_iterator@DU?$char_traits@D@std@@@std@@@std@@MEBA?AV?$ostreambuf_iterator@DU?$char_traits@D@std@@@2@V32@AEAVios_base@2@DJ@Z 0000000180014480 f i nodejieba.obj
 0001:00013580       ?do_put@?$num_put@DV?$ostreambuf_iterator@DU?$char_traits@D@std@@@std@@@std@@MEBA?AV?$ostreambuf_iterator@DU?$char_traits@D@std@@@2@V32@AEAVios_base@2@D_N@Z 0000000180014580 f i nodejieba.obj
 0001:00013890       ?erase@?$basic_string@DU?$char_traits@D@std@@V?$allocator@D@2@@std@@QEAAAEAV12@_K0@Z 0000000180014890 f i nodejieba.obj
 0001:00013960       ?assign@?$basic_string@DU?$char_traits@D@std@@V?$allocator@D@2@@std@@QEAAAEAV12@_KD@Z 0000000180014960 f i nodejieba.obj
 0001:00013a70       ?assign@?$basic_string@DU?$char_traits@D@std@@V?$allocator@D@2@@std@@QEAAAEAV12@PEBD_K@Z 0000000180014a70 f i nodejieba.obj
 0001:00013bb0       ?assign@?$basic_string@DU?$char_traits@D@std@@V?$allocator@D@2@@std@@QEAAAEAV12@AEBV12@_K1@Z 0000000180014bb0 f i nodejieba.obj
 0001:00013ce0       ?append@?$basic_string@DU?$char_traits@D@std@@V?$allocator@D@2@@std@@QEAAAEAV12@_KD@Z 0000000180014ce0 f i nodejieba.obj
 0001:00013df0       ?append@?$basic_string@DU?$char_traits@D@std@@V?$allocator@D@2@@std@@QEAAAEAV12@PEBD_K@Z 0000000180014df0 f i nodejieba.obj
 0001:00013f40       ?append@?$basic_string@DU?$char_traits@D@std@@V?$allocator@D@2@@std@@QEAAAEAV12@AEBV12@_K1@Z 0000000180014f40 f i nodejieba.obj
 0001:00014070       ?_Assign_rv@?$basic_string@DU?$char_traits@D@std@@V?$allocator@D@2@@std@@QEAAX$$QEAV12@@Z 0000000180015070 f i nodejieba.obj
 0001:000140e0       ?_Set_back@?$basic_filebuf@DU?$char_traits@D@std@@@std@@AEAAXXZ 00000001800150e0 f i nodejieba.obj
 0001:00014130       ?_Reset_back@?$basic_filebuf@DU?$char_traits@D@std@@@std@@AEAAXXZ 0000000180015130 f i nodejieba.obj
 0001:00014160       ?_Initcvt@?$basic_filebuf@DU?$char_traits@D@std@@@std@@IEAAXPEBV?$codecvt@DDU_Mbstatet@@@2@@Z 0000000180015160 f i nodejieba.obj
 0001:00014200       ?_Endwrite@?$basic_filebuf@DU?$char_traits@D@std@@@std@@IEAA_NXZ 0000000180015200 f i nodejieba.obj
 0001:00014460       ?_Init@?$basic_filebuf@DU?$char_traits@D@std@@@std@@IEAAXPEAU_iobuf@@W4_Initfl@12@@Z 0000000180015460 f i nodejieba.obj
 0001:00014550       ?close@?$basic_filebuf@DU?$char_traits@D@std@@@std@@QEAAPEAV12@XZ 0000000180015550 f i nodejieba.obj
 0001:00014620       ?open@?$basic_filebuf@DU?$char_traits@D@std@@@std@@QEAAPEAV12@PEBDHH@Z 0000000180015620 f i nodejieba.obj
 0001:000146c0       ?_Tidy@?$basic_stringbuf@DU?$char_traits@D@std@@V?$allocator@D@2@@std@@IEAAXXZ 00000001800156c0 f i nodejieba.obj
 0001:00014790       ?str@?$basic_stringbuf@DU?$char_traits@D@std@@V?$allocator@D@2@@std@@QEBA?AV?$basic_string@DU?$char_traits@D@std@@V?$allocator@D@2@@2@XZ 0000000180015790 f i nodejieba.obj
 0001:00014920       ?allocate@?$allocator@D@std@@QEAAPEAD_K@Z 0000000180015920 f i nodejieba.obj
 0001:00014920       ?allocate@?$_Wrap_alloc@V?$allocator@D@std@@@std@@QEAAPEAD_K@Z 0000000180015920 f i nodejieba.obj
 0001:00014990       ?deallocate@?$_Wrap_alloc@V?$allocator@D@std@@@std@@QEAAXPEAD_K@Z 0000000180015990 f i nodejieba.obj
 0001:00014990       ?deallocate@?$allocator@D@std@@QEAAXPEAD_K@Z 0000000180015990 f i nodejieba.obj
 0001:000149f0       ??0?$basic_ostream@DU?$char_traits@D@std@@@std@@QEAA@PEAV?$basic_streambuf@DU?$char_traits@D@std@@@1@_N@Z 00000001800159f0 f i nodejieba.obj
 0001:00014a70       ?_Pnavail@?$basic_streambuf@DU?$char_traits@D@std@@@std@@IEBA_JXZ 0000000180015a70 f i nodejieba.obj
 0001:00014a90       ?_Gnavail@?$basic_streambuf@DU?$char_traits@D@std@@@std@@IEBA_JXZ 0000000180015a90 f i nodejieba.obj
 0001:00014ab0       ??_G?$codecvt@DDU_Mbstatet@@@std@@MEAAPEAXI@Z 0000000180015ab0 f i nodejieba.obj
 0001:00014ab0       ??_E?$num_put@DV?$ostreambuf_iterator@DU?$char_traits@D@std@@@std@@@std@@MEAAPEAXI@Z 0000000180015ab0 f i * CIL library *:* CIL module *
 0001:00014ab0       ??_G?$num_put@DV?$ostreambuf_iterator@DU?$char_traits@D@std@@@std@@@std@@MEAAPEAXI@Z 0000000180015ab0 f i nodejieba.obj
 0001:00014ab0       ??_E?$codecvt@DDU_Mbstatet@@@std@@MEAAPEAXI@Z 0000000180015ab0 f i * CIL library *:* CIL module *
 0001:00014ae0       ?do_truename@?$numpunct@D@std@@MEBA?AV?$basic_string@DU?$char_traits@D@std@@V?$allocator@D@2@@2@XZ 0000000180015ae0 f i nodejieba.obj
 0001:00014b30       ?do_falsename@?$numpunct@D@std@@MEBA?AV?$basic_string@DU?$char_traits@D@std@@V?$allocator@D@2@@2@XZ 0000000180015b30 f i nodejieba.obj
 0001:00014b80       ?do_grouping@?$numpunct@D@std@@MEBA?AV?$basic_string@DU?$char_traits@D@std@@V?$allocator@D@2@@2@XZ 0000000180015b80 f i nodejieba.obj
 0001:00014bd0       ?do_thousands_sep@?$numpunct@D@std@@MEBADXZ 0000000180015bd0 f i nodejieba.obj
 0001:00014be0       ?do_decimal_point@?$numpunct@D@std@@MEBADXZ 0000000180015be0 f i nodejieba.obj
 0001:00014bf0       ?truename@?$numpunct@D@std@@QEBA?AV?$basic_string@DU?$char_traits@D@std@@V?$allocator@D@2@@2@XZ 0000000180015bf0 f i nodejieba.obj
 0001:00014c10       ?falsename@?$numpunct@D@std@@QEBA?AV?$basic_string@DU?$char_traits@D@std@@V?$allocator@D@2@@2@XZ 0000000180015c10 f i nodejieba.obj
 0001:00014c30       ?erase@?$_Tree@V?$_Tmap_traits@V?$basic_string@DU?$char_traits@D@std@@V?$allocator@D@2@@std@@UWord@KeywordExtractor@cppjieba@@U?$less@V?$basic_string@DU?$char_traits@D@std@@V?$allocator@D@2@@std@@@2@V?$allocator@U?$pair@$$CBV?$basic_string@DU?$char_traits@D@std@@V?$allocator@D@2@@std@@UWord@KeywordExtractor@cppjieba@@@std@@@2@$0A@@std@@@std@@QEAA?AV?$_Tree_iterator@V?$_Tree_val@U?$_Tree_simple_types@U?$pair@$$CBV?$basic_string@DU?$char_traits@D@std@@V?$allocator@D@2@@std@@UWord@KeywordExtractor@cppjieba@@@std@@@std@@@std@@@2@V?$_Tree_const_iterator@V?$_Tree_val@U?$_Tree_simple_types@U?$pair@$$CBV?$basic_string@DU?$char_traits@D@std@@V?$allocator@D@2@@std@@UWord@KeywordExtractor@cppjieba@@@std@@@std@@@std@@@2@0@Z 0000000180015c30 f i nodejieba.obj
 0001:00014d10       ?deallocate@?$_Wrap_alloc@V?$allocator@UWord@KeywordExtractor@cppjieba@@@std@@@std@@QEAAXPEAUWord@KeywordExtractor@cppjieba@@_K@Z 0000000180015d10 f i nodejieba.obj
 0001:00014d10       ?deallocate@?$_Wrap_alloc@V?$allocator@U?$pair@V?$basic_string@DU?$char_traits@D@std@@V?$allocator@D@2@@std@@V12@@std@@@std@@@std@@QEAAXPEAU?$pair@V?$basic_string@DU?$char_traits@D@std@@V?$allocator@D@2@@std@@V12@@2@_K@Z 0000000180015d10 f i nodejieba.obj
 0001:00014d80       ?deallocate@?$_Wrap_alloc@U?$_Wrap_alloc@V?$allocator@V?$_List_unchecked_const_iterator@V?$_List_val@U?$_List_simple_types@I@std@@@std@@U_Iterator_base0@2@@std@@@std@@@std@@@std@@QEAAXPEAV?$_List_unchecked_const_iterator@V?$_List_val@U?$_List_simple_types@I@std@@@std@@U_Iterator_base0@2@@2@_K@Z 0000000180015d80 f i nodejieba.obj
 0001:00014d80       ?deallocate@?$_Wrap_alloc@V?$allocator@_K@std@@@std@@QEAAXPEA_K_K@Z 0000000180015d80 f i nodejieba.obj
 0001:00014d80       ?deallocate@?$_Wrap_alloc@U?$_Wrap_alloc@V?$allocator@V?$_List_unchecked_iterator@V?$_List_val@U?$_List_simple_types@U?$pair@$$CBV?$basic_string@DU?$char_traits@D@std@@V?$allocator@D@2@@std@@N@std@@@std@@@std@@@std@@@std@@@std@@@std@@QEAAXPEAV?$_List_unchecked_iterator@V?$_List_val@U?$_List_simple_types@U?$pair@$$CBV?$basic_string@DU?$char_traits@D@std@@V?$allocator@D@2@@std@@N@std@@@std@@@std@@@2@_K@Z 0000000180015d80 f i nodejieba.obj
 0001:00014d80       ?deallocate@?$_Wrap_alloc@V?$allocator@PEAV?$unordered_map@INU?$hash@I@std@@U?$equal_to@I@2@V?$allocator@U?$pair@$$CBIN@std@@@2@@std@@@std@@@std@@QEAAXPEAPEAV?$unordered_map@INU?$hash@I@std@@U?$equal_to@I@2@V?$allocator@U?$pair@$$CBIN@std@@@2@@2@_K@Z 0000000180015d80 f i nodejieba.obj
 0001:00014d80       ?deallocate@?$_Wrap_alloc@V?$allocator@PEBUDictUnit@cppjieba@@@std@@@std@@QEAAXPEAPEBUDictUnit@cppjieba@@_K@Z 0000000180015d80 f i nodejieba.obj
 0001:00014d80       ?deallocate@?$_Wrap_alloc@U?$_Wrap_alloc@V?$allocator@V?$_List_unchecked_iterator@V?$_List_val@U?$_List_simple_types@U?$pair@$$CBIPEAVTrieNode@cppjieba@@@std@@@std@@@std@@@std@@@std@@@std@@@std@@QEAAXPEAV?$_List_unchecked_iterator@V?$_List_val@U?$_List_simple_types@U?$pair@$$CBIPEAVTrieNode@cppjieba@@@std@@@std@@@std@@@2@_K@Z 0000000180015d80 f i nodejieba.obj
 0001:00014d80       ?deallocate@?$_Wrap_alloc@U?$_Wrap_alloc@V?$allocator@V?$_List_unchecked_iterator@V?$_List_val@U?$_List_simple_types@U?$pair@$$CBIN@std@@@std@@@std@@@std@@@std@@@std@@@std@@QEAAXPEAV?$_List_unchecked_iterator@V?$_List_val@U?$_List_simple_types@U?$pair@$$CBIN@std@@@std@@@std@@@2@_K@Z 0000000180015d80 f i nodejieba.obj
 0001:00014d80       ?deallocate@?$_Wrap_alloc@U?$_Wrap_alloc@V?$allocator@V?$_List_unchecked_const_iterator@V?$_List_val@U?$_List_simple_types@V?$basic_string@DU?$char_traits@D@std@@V?$allocator@D@2@@std@@@std@@@std@@U_Iterator_base0@2@@std@@@std@@@std@@@std@@QEAAXPEAV?$_List_unchecked_const_iterator@V?$_List_val@U?$_List_simple_types@V?$basic_string@DU?$char_traits@D@std@@V?$allocator@D@2@@std@@@std@@@std@@U_Iterator_base0@2@@2@_K@Z 0000000180015d80 f i nodejieba.obj
 0001:00014df0       ?_Reallocate@?$vector@PEAV?$unordered_map@INU?$hash@I@std@@U?$equal_to@I@2@V?$allocator@U?$pair@$$CBIN@std@@@2@@std@@V?$allocator@PEAV?$unordered_map@INU?$hash@I@std@@U?$equal_to@I@2@V?$allocator@U?$pair@$$CBIN@std@@@2@@std@@@2@@std@@IEAAX_K@Z 0000000180015df0 f i nodejieba.obj
 0001:00014df0       ?_Reallocate@?$vector@_KV?$allocator@_K@std@@@std@@IEAAX_K@Z 0000000180015df0 f i nodejieba.obj
 0001:00014e80       ?deallocate@?$_Wrap_alloc@V?$allocator@UDictUnit@cppjieba@@@std@@@std@@QEAAXPEAUDictUnit@cppjieba@@_K@Z 0000000180015e80 f i nodejieba.obj
 0001:00014ef0       ?_Reallocate@?$vector@UDictUnit@cppjieba@@V?$allocator@UDictUnit@cppjieba@@@std@@@std@@IEAAX_K@Z 0000000180015ef0 f i nodejieba.obj
 0001:00014f80       ?deallocate@?$_Wrap_alloc@V?$allocator@V?$LocalVector@I@limonp@@@std@@@std@@QEAAXPEAV?$LocalVector@I@limonp@@_K@Z 0000000180015f80 f i nodejieba.obj
 0001:00014ff0       ?deallocate@?$_Wrap_alloc@V?$allocator@UDag@cppjieba@@@std@@@std@@QEAAXPEAUDag@cppjieba@@_K@Z 0000000180015ff0 f i nodejieba.obj
 0001:00015060       ?_Reallocate@?$vector@UDag@cppjieba@@V?$allocator@UDag@cppjieba@@@std@@@std@@IEAAX_K@Z 0000000180016060 f i nodejieba.obj
 0001:000151a0       ?_Reallocate@?$vector@V?$LocalVector@I@limonp@@V?$allocator@V?$LocalVector@I@limonp@@@std@@@std@@IEAAX_K@Z 00000001800161a0 f i nodejieba.obj
 0001:000152c0       ?deallocate@?$_Wrap_alloc@V?$allocator@UWord@cppjieba@@@std@@@std@@QEAAXPEAUWord@cppjieba@@_K@Z 00000001800162c0 f i nodejieba.obj
 0001:000152c0       ?deallocate@?$_Wrap_alloc@V?$allocator@U?$pair@V?$basic_string@DU?$char_traits@D@std@@V?$allocator@D@2@@std@@N@std@@@std@@@std@@QEAAXPEAU?$pair@V?$basic_string@DU?$char_traits@D@std@@V?$allocator@D@2@@std@@N@2@_K@Z 00000001800162c0 f i nodejieba.obj
 0001:00015330       ?deallocate@?$_Wrap_alloc@V?$allocator@UWordRange@cppjieba@@@std@@@std@@QEAAXPEAUWordRange@cppjieba@@_K@Z 0000000180016330 f i nodejieba.obj
 0001:000153a0       ?_Reallocate@?$vector@U?$pair@V?$basic_string@DU?$char_traits@D@std@@V?$allocator@D@2@@std@@V12@@std@@V?$allocator@U?$pair@V?$basic_string@DU?$char_traits@D@std@@V?$allocator@D@2@@std@@V12@@std@@@2@@std@@IEAAX_K@Z 00000001800163a0 f i nodejieba.obj
 0001:00015430       ?_Reallocate@?$vector@U?$pair@V?$basic_string@DU?$char_traits@D@std@@V?$allocator@D@2@@std@@N@std@@V?$allocator@U?$pair@V?$basic_string@DU?$char_traits@D@std@@V?$allocator@D@2@@std@@N@std@@@2@@std@@IEAAX_K@Z 0000000180016430 f i nodejieba.obj
 0001:00015500       ?deallocate@?$_Wrap_alloc@V?$allocator@V?$basic_string@DU?$char_traits@D@std@@V?$allocator@D@2@@std@@@std@@@std@@QEAAXPEAV?$basic_string@DU?$char_traits@D@std@@V?$allocator@D@2@@2@_K@Z 0000000180016500 f i nodejieba.obj
 0001:00015570       ?_Reallocate@?$vector@V?$basic_string@DU?$char_traits@D@std@@V?$allocator@D@2@@std@@V?$allocator@V?$basic_string@DU?$char_traits@D@std@@V?$allocator@D@2@@std@@@2@@std@@IEAAX_K@Z 0000000180016570 f i nodejieba.obj
 0001:00015600       ??1_Sentry_base@?$basic_istream@DU?$char_traits@D@std@@@std@@QEAA@XZ 0000000180016600 f i nodejieba.obj
 0001:00015600       ??1_Sentry_base@?$basic_ostream@DU?$char_traits@D@std@@@std@@QEAA@XZ 0000000180016600 f i nodejieba.obj
 0001:00015620       ?_Iput@?$num_put@DV?$ostreambuf_iterator@DU?$char_traits@D@std@@@std@@@std@@AEBA?AV?$ostreambuf_iterator@DU?$char_traits@D@std@@@2@V32@AEAVios_base@2@DPEAD_K@Z 0000000180016620 f i nodejieba.obj
 0001:00015c20       ?_Fput@?$num_put@DV?$ostreambuf_iterator@DU?$char_traits@D@std@@@std@@@std@@AEBA?AV?$ostreambuf_iterator@DU?$char_traits@D@std@@@2@V32@AEAVios_base@2@DPEBD_K@Z 0000000180016c20 f i nodejieba.obj
 0001:00016390       ?flush@?$basic_ostream@DU?$char_traits@D@std@@@std@@QEAAAEAV12@XZ 0000000180017390 f i nodejieba.obj
 0001:00016480       ?getloc@?$basic_streambuf@DU?$char_traits@D@std@@@std@@QEBA?AVlocale@2@XZ 0000000180017480 f i nodejieba.obj
 0001:000164b0       ??0?$basic_streambuf@DU?$char_traits@D@std@@@std@@IEAA@XZ 00000001800174b0 f i nodejieba.obj
 0001:00016560       ?init@?$basic_ios@DU?$char_traits@D@std@@@std@@IEAAXPEAV?$basic_streambuf@DU?$char_traits@D@std@@@2@_N@Z 0000000180017560 f i nodejieba.obj
 0001:00016630       ??_E?$numpunct@D@std@@MEAAPEAXI@Z 0000000180017630 f i * CIL library *:* CIL module *
 0001:00016630       ??_G?$numpunct@D@std@@MEAAPEAXI@Z 0000000180017630 f i nodejieba.obj
 0001:00016690       ?grouping@?$numpunct@D@std@@QEBA?AV?$basic_string@DU?$char_traits@D@std@@V?$allocator@D@2@@2@XZ 0000000180017690 f i nodejieba.obj
 0001:000166b0       ?clear@?$_Tree@V?$_Tmap_traits@V?$basic_string@DU?$char_traits@D@std@@V?$allocator@D@2@@std@@UWord@KeywordExtractor@cppjieba@@U?$less@V?$basic_string@DU?$char_traits@D@std@@V?$allocator@D@2@@std@@@2@V?$allocator@U?$pair@$$CBV?$basic_string@DU?$char_traits@D@std@@V?$allocator@D@2@@std@@UWord@KeywordExtractor@cppjieba@@@std@@@2@$0A@@std@@@std@@QEAAXXZ 00000001800176b0 f i nodejieba.obj
 0001:00016730       ?erase@?$_Tree@V?$_Tmap_traits@V?$basic_string@DU?$char_traits@D@std@@V?$allocator@D@2@@std@@UWord@KeywordExtractor@cppjieba@@U?$less@V?$basic_string@DU?$char_traits@D@std@@V?$allocator@D@2@@std@@@2@V?$allocator@U?$pair@$$CBV?$basic_string@DU?$char_traits@D@std@@V?$allocator@D@2@@std@@UWord@KeywordExtractor@cppjieba@@@std@@@2@$0A@@std@@@std@@QEAA?AV?$_Tree_iterator@V?$_Tree_val@U?$_Tree_simple_types@U?$pair@$$CBV?$basic_string@DU?$char_traits@D@std@@V?$allocator@D@2@@std@@UWord@KeywordExtractor@cppjieba@@@std@@@std@@@std@@@2@V?$_Tree_const_iterator@V?$_Tree_val@U?$_Tree_simple_types@U?$pair@$$CBV?$basic_string@DU?$char_traits@D@std@@V?$allocator@D@2@@std@@UWord@KeywordExtractor@cppjieba@@@std@@@std@@@std@@@2@@Z 0000000180017730 f i nodejieba.obj
 0001:00016b50       ?clear@?$list@U?$pair@$$CBV?$basic_string@DU?$char_traits@D@std@@V?$allocator@D@2@@std@@N@std@@V?$allocator@U?$pair@$$CBV?$basic_string@DU?$char_traits@D@std@@V?$allocator@D@2@@std@@N@std@@@2@@std@@QEAAXXZ 0000000180017b50 f i nodejieba.obj
 0001:00016b50       ?clear@?$list@V?$basic_string@DU?$char_traits@D@std@@V?$allocator@D@2@@std@@V?$allocator@V?$basic_string@DU?$char_traits@D@std@@V?$allocator@D@2@@std@@@2@@std@@QEAAXXZ 0000000180017b50 f i nodejieba.obj
 0001:00016c20       ?_Reallocate@?$vector@V?$_List_unchecked_iterator@V?$_List_val@U?$_List_simple_types@U?$pair@$$CBIPEAVTrieNode@cppjieba@@@std@@@std@@@std@@@std@@U?$_Wrap_alloc@V?$allocator@V?$_List_unchecked_iterator@V?$_List_val@U?$_List_simple_types@U?$pair@$$CBIPEAVTrieNode@cppjieba@@@std@@@std@@@std@@@std@@@std@@@2@@std@@IEAAX_K@Z 0000000180017c20 f i nodejieba.obj
 0001:00016c20       ?_Reallocate@?$vector@V?$_List_unchecked_const_iterator@V?$_List_val@U?$_List_simple_types@I@std@@@std@@U_Iterator_base0@2@@std@@U?$_Wrap_alloc@V?$allocator@V?$_List_unchecked_const_iterator@V?$_List_val@U?$_List_simple_types@I@std@@@std@@U_Iterator_base0@2@@std@@@std@@@2@@std@@IEAAX_K@Z 0000000180017c20 f i nodejieba.obj
 0001:00016c20       ?_Reallocate@?$vector@V?$_List_unchecked_iterator@V?$_List_val@U?$_List_simple_types@U?$pair@$$CBIN@std@@@std@@@std@@@std@@U?$_Wrap_alloc@V?$allocator@V?$_List_unchecked_iterator@V?$_List_val@U?$_List_simple_types@U?$pair@$$CBIN@std@@@std@@@std@@@std@@@std@@@2@@std@@IEAAX_K@Z 0000000180017c20 f i nodejieba.obj
 0001:00016c20       ?_Reallocate@?$vector@V?$_List_unchecked_iterator@V?$_List_val@U?$_List_simple_types@U?$pair@$$CBV?$basic_string@DU?$char_traits@D@std@@V?$allocator@D@2@@std@@N@std@@@std@@@std@@@std@@U?$_Wrap_alloc@V?$allocator@V?$_List_unchecked_iterator@V?$_List_val@U?$_List_simple_types@U?$pair@$$CBV?$basic_string@DU?$char_traits@D@std@@V?$allocator@D@2@@std@@N@std@@@std@@@std@@@std@@@std@@@2@@std@@IEAAX_K@Z 0000000180017c20 f i nodejieba.obj
 0001:00016c20       ?_Reallocate@?$vector@V?$_List_unchecked_const_iterator@V?$_List_val@U?$_List_simple_types@V?$basic_string@DU?$char_traits@D@std@@V?$allocator@D@2@@std@@@std@@@std@@U_Iterator_base0@2@@std@@U?$_Wrap_alloc@V?$allocator@V?$_List_unchecked_const_iterator@V?$_List_val@U?$_List_simple_types@V?$basic_string@DU?$char_traits@D@std@@V?$allocator@D@2@@std@@@std@@@std@@U_Iterator_base0@2@@std@@@std@@@2@@std@@IEAAX_K@Z 0000000180017c20 f i nodejieba.obj
 0001:00016ce0       ?_Copy@?$basic_string@DU?$char_traits@D@std@@V?$allocator@D@2@@std@@QEAAX_K0@Z 0000000180017ce0 f i nodejieba.obj
 0001:00016dc0       ?insert@?$basic_string@DU?$char_traits@D@std@@V?$allocator@D@2@@std@@QEAAAEAV12@_K0D@Z 0000000180017dc0 f i nodejieba.obj
 0001:00016f30       ?_Rrotate@?$_Tree@V?$_Tmap_traits@V?$basic_string@DU?$char_traits@D@std@@V?$allocator@D@2@@std@@UWord@KeywordExtractor@cppjieba@@U?$less@V?$basic_string@DU?$char_traits@D@std@@V?$allocator@D@2@@std@@@2@V?$allocator@U?$pair@$$CBV?$basic_string@DU?$char_traits@D@std@@V?$allocator@D@2@@std@@UWord@KeywordExtractor@cppjieba@@@std@@@2@$0A@@std@@@std@@IEAAXPEAU?$_Tree_node@U?$pair@$$CBV?$basic_string@DU?$char_traits@D@std@@V?$allocator@D@2@@std@@UWord@KeywordExtractor@cppjieba@@@std@@PEAX@2@@Z 0000000180017f30 f i nodejieba.obj
 0001:00016f90       ?_Lrotate@?$_Tree@V?$_Tmap_traits@V?$basic_string@DU?$char_traits@D@std@@V?$allocator@D@2@@std@@UWord@KeywordExtractor@cppjieba@@U?$less@V?$basic_string@DU?$char_traits@D@std@@V?$allocator@D@2@@std@@@2@V?$allocator@U?$pair@$$CBV?$basic_string@DU?$char_traits@D@std@@V?$allocator@D@2@@std@@UWord@KeywordExtractor@cppjieba@@@std@@@2@$0A@@std@@@std@@IEAAXPEAU?$_Tree_node@U?$pair@$$CBV?$basic_string@DU?$char_traits@D@std@@V?$allocator@D@2@@std@@UWord@KeywordExtractor@cppjieba@@@std@@PEAX@2@@Z 0000000180017f90 f i nodejieba.obj
 0001:00016ff0       ?_Erase@?$_Tree@V?$_Tmap_traits@V?$basic_string@DU?$char_traits@D@std@@V?$allocator@D@2@@std@@UWord@KeywordExtractor@cppjieba@@U?$less@V?$basic_string@DU?$char_traits@D@std@@V?$allocator@D@2@@std@@@2@V?$allocator@U?$pair@$$CBV?$basic_string@DU?$char_traits@D@std@@V?$allocator@D@2@@std@@UWord@KeywordExtractor@cppjieba@@@std@@@2@$0A@@std@@@std@@IEAAXPEAU?$_Tree_node@U?$pair@$$CBV?$basic_string@DU?$char_traits@D@std@@V?$allocator@D@2@@std@@UWord@KeywordExtractor@cppjieba@@@std@@PEAX@2@@Z 0000000180017ff0 f i nodejieba.obj
 0001:00017050       ?_Insert_n@?$vector@V?$_List_unchecked_iterator@V?$_List_val@U?$_List_simple_types@U?$pair@$$CBV?$basic_string@DU?$char_traits@D@std@@V?$allocator@D@2@@std@@N@std@@@std@@@std@@@std@@U?$_Wrap_alloc@V?$allocator@V?$_List_unchecked_iterator@V?$_List_val@U?$_List_simple_types@U?$pair@$$CBV?$basic_string@DU?$char_traits@D@std@@V?$allocator@D@2@@std@@N@std@@@std@@@std@@@std@@@std@@@2@@std@@IEAA?AV?$_Vector_iterator@V?$_Vector_val@U?$_Simple_types@V?$_List_unchecked_iterator@V?$_List_val@U?$_List_simple_types@U?$pair@$$CBV?$basic_string@DU?$char_traits@D@std@@V?$allocator@D@2@@std@@N@std@@@std@@@std@@@std@@@std@@@std@@@2@V?$_Vector_const_iterator@V?$_Vector_val@U?$_Simple_types@V?$_List_unchecked_iterator@V?$_List_val@U?$_List_simple_types@U?$pair@$$CBV?$basic_string@DU?$char_traits@D@std@@V?$allocator@D@2@@std@@N@std@@@std@@@std@@@std@@@std@@@std@@@2@_KAEBV?$_List_unchecked_iterator@V?$_List_val@U?$_List_simple_types@U?$pair@$$CBV?$basic_string@DU?$char_traits@D@std@@V?$allocator@D@2@@std@@N@std@@@std@@@std@@@2@@Z 0000000180018050 f i nodejieba.obj
 0001:00017050       ?_Insert_n@?$vector@V?$_List_unchecked_iterator@V?$_List_val@U?$_List_simple_types@U?$pair@$$CBIPEAVTrieNode@cppjieba@@@std@@@std@@@std@@@std@@U?$_Wrap_alloc@V?$allocator@V?$_List_unchecked_iterator@V?$_List_val@U?$_List_simple_types@U?$pair@$$CBIPEAVTrieNode@cppjieba@@@std@@@std@@@std@@@std@@@std@@@2@@std@@IEAA?AV?$_Vector_iterator@V?$_Vector_val@U?$_Simple_types@V?$_List_unchecked_iterator@V?$_List_val@U?$_List_simple_types@U?$pair@$$CBIPEAVTrieNode@cppjieba@@@std@@@std@@@std@@@std@@@std@@@std@@@2@V?$_Vector_const_iterator@V?$_Vector_val@U?$_Simple_types@V?$_List_unchecked_iterator@V?$_List_val@U?$_List_simple_types@U?$pair@$$CBIPEAVTrieNode@cppjieba@@@std@@@std@@@std@@@std@@@std@@@std@@@2@_KAEBV?$_List_unchecked_iterator@V?$_List_val@U?$_List_simple_types@U?$pair@$$CBIPEAVTrieNode@cppjieba@@@std@@@std@@@std@@@2@@Z 0000000180018050 f i nodejieba.obj
 0001:00017050       ?_Insert_n@?$vector@V?$_List_unchecked_const_iterator@V?$_List_val@U?$_List_simple_types@I@std@@@std@@U_Iterator_base0@2@@std@@U?$_Wrap_alloc@V?$allocator@V?$_List_unchecked_const_iterator@V?$_List_val@U?$_List_simple_types@I@std@@@std@@U_Iterator_base0@2@@std@@@std@@@2@@std@@IEAA?AV?$_Vector_iterator@V?$_Vector_val@U?$_Simple_types@V?$_List_unchecked_const_iterator@V?$_List_val@U?$_List_simple_types@I@std@@@std@@U_Iterator_base0@2@@std@@@std@@@std@@@2@V?$_Vector_const_iterator@V?$_Vector_val@U?$_Simple_types@V?$_List_unchecked_const_iterator@V?$_List_val@U?$_List_simple_types@I@std@@@std@@U_Iterator_base0@2@@std@@@std@@@std@@@2@_KAEBV?$_List_unchecked_const_iterator@V?$_List_val@U?$_List_simple_types@I@std@@@std@@U_Iterator_base0@2@@2@@Z 0000000180018050 f i nodejieba.obj
 0001:00017050       ?_Insert_n@?$vector@V?$_List_unchecked_iterator@V?$_List_val@U?$_List_simple_types@U?$pair@$$CBIN@std@@@std@@@std@@@std@@U?$_Wrap_alloc@V?$allocator@V?$_List_unchecked_iterator@V?$_List_val@U?$_List_simple_types@U?$pair@$$CBIN@std@@@std@@@std@@@std@@@std@@@2@@std@@IEAA?AV?$_Vector_iterator@V?$_Vector_val@U?$_Simple_types@V?$_List_unchecked_iterator@V?$_List_val@U?$_List_simple_types@U?$pair@$$CBIN@std@@@std@@@std@@@std@@@std@@@std@@@2@V?$_Vector_const_iterator@V?$_Vector_val@U?$_Simple_types@V?$_List_unchecked_iterator@V?$_List_val@U?$_List_simple_types@U?$pair@$$CBIN@std@@@std@@@std@@@std@@@std@@@std@@@2@_KAEBV?$_List_unchecked_iterator@V?$_List_val@U?$_List_simple_types@U?$pair@$$CBIN@std@@@std@@@std@@@2@@Z 0000000180018050 f i nodejieba.obj
 0001:00017050       ?_Insert_n@?$vector@V?$_List_unchecked_const_iterator@V?$_List_val@U?$_List_simple_types@V?$basic_string@DU?$char_traits@D@std@@V?$allocator@D@2@@std@@@std@@@std@@U_Iterator_base0@2@@std@@U?$_Wrap_alloc@V?$allocator@V?$_List_unchecked_const_iterator@V?$_List_val@U?$_List_simple_types@V?$basic_string@DU?$char_traits@D@std@@V?$allocator@D@2@@std@@@std@@@std@@U_Iterator_base0@2@@std@@@std@@@2@@std@@IEAA?AV?$_Vector_iterator@V?$_Vector_val@U?$_Simple_types@V?$_List_unchecked_const_iterator@V?$_List_val@U?$_List_simple_types@V?$basic_string@DU?$char_traits@D@std@@V?$allocator@D@2@@std@@@std@@@std@@U_Iterator_base0@2@@std@@@std@@@std@@@2@V?$_Vector_const_iterator@V?$_Vector_val@U?$_Simple_types@V?$_List_unchecked_const_iterator@V?$_List_val@U?$_List_simple_types@V?$basic_string@DU?$char_traits@D@std@@V?$allocator@D@2@@std@@@std@@@std@@U_Iterator_base0@2@@std@@@std@@@std@@@2@_KAEBV?$_List_unchecked_const_iterator@V?$_List_val@U?$_List_simple_types@V?$basic_string@DU?$char_traits@D@std@@V?$allocator@D@2@@std@@@std@@@std@@U_Iterator_base0@2@@2@@Z 0000000180018050 f i nodejieba.obj
 0001:00017340       ??$use_facet@V?$ctype@D@std@@@std@@YAAEBV?$ctype@D@0@AEBVlocale@0@@Z 0000000180018340 f i nodejieba.obj
 0001:00017470       ??$_Immortalize@V_Iostream_error_category@std@@@std@@YAAEAV_Iostream_error_category@0@XZ 0000000180018470 f i nodejieba.obj
 0001:000174f0       ??$New@VString@v8@@V?$basic_string@DU?$char_traits@D@std@@V?$allocator@D@2@@std@@@Nan@@YA?AV?$MaybeLocal@VString@v8@@@v8@@V?$basic_string@DU?$char_traits@D@std@@V?$allocator@D@2@@std@@@Z 00000001800184f0 f i nodejieba.obj
 0001:000175d0       ??$?6U?$char_traits@D@std@@@std@@YAAEAV?$basic_ostream@DU?$char_traits@D@std@@@0@AEAV10@PEBD@Z 00000001800185d0 f i nodejieba.obj
 0001:00017840       ??$?6DU?$char_traits@D@std@@V?$allocator@D@1@@std@@YAAEAV?$basic_ostream@DU?$char_traits@D@std@@@0@AEAV10@AEBV?$basic_string@DU?$char_traits@D@std@@V?$allocator@D@2@@0@@Z 0000000180018840 f i nodejieba.obj
 0001:00017aa0       ??$endl@DU?$char_traits@D@std@@@std@@YAAEAV?$basic_ostream@DU?$char_traits@D@std@@@0@AEAV10@@Z 0000000180018aa0 f i nodejieba.obj
 0001:00017b40       ??$getline@DU?$char_traits@D@std@@V?$allocator@D@2@@std@@YAAEAV?$basic_istream@DU?$char_traits@D@std@@@0@AEAV10@AEAV?$basic_string@DU?$char_traits@D@std@@V?$allocator@D@2@@0@@Z 0000000180018b40 f i nodejieba.obj
 0001:00017be0       ??$make_pair@AEAV?$basic_string@DU?$char_traits@D@std@@V?$allocator@D@2@@std@@V12@@std@@YA?AU?$pair@V?$basic_string@DU?$char_traits@D@std@@V?$allocator@D@2@@std@@V12@@0@AEAV?$basic_string@DU?$char_traits@D@std@@V?$allocator@D@2@@0@$$QEAV20@@Z 0000000180018be0 f i nodejieba.obj
 0001:00017c90       ??$_Uninitialized_default_fill_n@PEAUDag@cppjieba@@_KU?$_Wrap_alloc@V?$allocator@UDag@cppjieba@@@std@@@std@@@std@@YAXPEAUDag@cppjieba@@_KAEAU?$_Wrap_alloc@V?$allocator@UDag@cppjieba@@@std@@@0@@Z 0000000180018c90 f i nodejieba.obj
 0001:00017d10       ??$use_facet@V?$codecvt@DDU_Mbstatet@@@std@@@std@@YAAEBV?$codecvt@DDU_Mbstatet@@@0@AEBVlocale@0@@Z 0000000180018d10 f i nodejieba.obj
 0001:00017e40       ??$use_facet@V?$num_put@DV?$ostreambuf_iterator@DU?$char_traits@D@std@@@std@@@std@@@std@@YAAEBV?$num_put@DV?$ostreambuf_iterator@DU?$char_traits@D@std@@@std@@@0@AEBVlocale@0@@Z 0000000180018e40 f i nodejieba.obj
 0001:00017f70       ??$_Lbound@V?$basic_string@DU?$char_traits@D@std@@V?$allocator@D@2@@std@@@?$_Tree@V?$_Tmap_traits@V?$basic_string@DU?$char_traits@D@std@@V?$allocator@D@2@@std@@UWord@KeywordExtractor@cppjieba@@U?$less@V?$basic_string@DU?$char_traits@D@std@@V?$allocator@D@2@@std@@@2@V?$allocator@U?$pair@$$CBV?$basic_string@DU?$char_traits@D@std@@V?$allocator@D@2@@std@@UWord@KeywordExtractor@cppjieba@@@std@@@2@$0A@@std@@@std@@IEBAPEAU?$_Tree_node@U?$pair@$$CBV?$basic_string@DU?$char_traits@D@std@@V?$allocator@D@2@@std@@UWord@KeywordExtractor@cppjieba@@@std@@PEAX@1@AEBV?$basic_string@DU?$char_traits@D@std@@V?$allocator@D@2@@1@@Z 0000000180018f70 f i nodejieba.obj
 0001:00018020       ??$_Insert@AEBV?$basic_string@DU?$char_traits@D@std@@V?$allocator@D@2@@std@@U_Nil@2@@?$_Hash@V?$_Uset_traits@V?$basic_string@DU?$char_traits@D@std@@V?$allocator@D@2@@std@@V?$_Uhash_compare@V?$basic_string@DU?$char_traits@D@std@@V?$allocator@D@2@@std@@U?$hash@V?$basic_string@DU?$char_traits@D@std@@V?$allocator@D@2@@std@@@2@U?$equal_to@V?$basic_string@DU?$char_traits@D@std@@V?$allocator@D@2@@std@@@2@@2@V?$allocator@V?$basic_string@DU?$char_traits@D@std@@V?$allocator@D@2@@std@@@2@$0A@@std@@@std@@IEAA?AU?$pair@V?$_List_const_iterator@V?$_List_val@U?$_List_simple_types@V?$basic_string@DU?$char_traits@D@std@@V?$allocator@D@2@@std@@@std@@@std@@@std@@_N@1@AEBV?$basic_string@DU?$char_traits@D@std@@V?$allocator@D@2@@1@U_Nil@1@@Z 0000000180019020 f i nodejieba.obj
 0001:000182a0       ??$_Insert@AEBIU_Nil@std@@@?$_Hash@V?$_Uset_traits@IV?$_Uhash_compare@IU?$hash@I@std@@U?$equal_to@I@2@@std@@V?$allocator@I@2@$0A@@std@@@std@@IEAA?AU?$pair@V?$_List_const_iterator@V?$_List_val@U?$_List_simple_types@I@std@@@std@@@std@@_N@1@AEBIU_Nil@1@@Z 00000001800192a0 f i nodejieba.obj
 0001:00018410       ??$use_facet@V?$numpunct@D@std@@@std@@YAAEBV?$numpunct@D@0@AEBVlocale@0@@Z 0000000180019410 f i nodejieba.obj
 0001:00018540       ??$_Allocate@UDictUnit@cppjieba@@@std@@YAPEAUDictUnit@cppjieba@@_KPEAU12@_N@Z 0000000180019540 f i nodejieba.obj
 0001:000185c0       ??$_Allocate@UWord@KeywordExtractor@cppjieba@@@std@@YAPEAUWord@KeywordExtractor@cppjieba@@_KPEAU123@_N@Z 00000001800195c0 f i nodejieba.obj
 0001:000185c0       ??$_Allocate@U?$pair@V?$basic_string@DU?$char_traits@D@std@@V?$allocator@D@2@@std@@V12@@std@@@std@@YAPEAU?$pair@V?$basic_string@DU?$char_traits@D@std@@V?$allocator@D@2@@std@@V12@@0@_KPEAU10@_N@Z 00000001800195c0 f i nodejieba.obj
 0001:00018640       ??$_Allocate@V?$_List_unchecked_const_iterator@V?$_List_val@U?$_List_simple_types@I@std@@@std@@U_Iterator_base0@2@@std@@@std@@YAPEAV?$_List_unchecked_const_iterator@V?$_List_val@U?$_List_simple_types@I@std@@@std@@U_Iterator_base0@2@@0@_KPEAV10@_N@Z 0000000180019640 f i nodejieba.obj
 0001:00018640       ??$_Allocate@V?$_List_unchecked_const_iterator@V?$_List_val@U?$_List_simple_types@V?$basic_string@DU?$char_traits@D@std@@V?$allocator@D@2@@std@@@std@@@std@@U_Iterator_base0@2@@std@@@std@@YAPEAV?$_List_unchecked_const_iterator@V?$_List_val@U?$_List_simple_types@V?$basic_string@DU?$char_traits@D@std@@V?$allocator@D@2@@std@@@std@@@std@@U_Iterator_base0@2@@0@_KPEAV10@_N@Z 0000000180019640 f i nodejieba.obj
 0001:00018640       ??$_Allocate@PEBUDictUnit@cppjieba@@@std@@YAPEAPEBUDictUnit@cppjieba@@_KPEAPEBU12@_N@Z 0000000180019640 f i nodejieba.obj
 0001:00018640       ??$_Allocate@V?$_List_unchecked_iterator@V?$_List_val@U?$_List_simple_types@U?$pair@$$CBV?$basic_string@DU?$char_traits@D@std@@V?$allocator@D@2@@std@@N@std@@@std@@@std@@@std@@@std@@YAPEAV?$_List_unchecked_iterator@V?$_List_val@U?$_List_simple_types@U?$pair@$$CBV?$basic_string@DU?$char_traits@D@std@@V?$allocator@D@2@@std@@N@std@@@std@@@std@@@0@_KPEAV10@_N@Z 0000000180019640 f i nodejieba.obj
 0001:00018640       ??$_Allocate@_K@std@@YAPEA_K_KPEA_K_N@Z 0000000180019640 f i nodejieba.obj
 0001:00018640       ??$_Allocate@N@std@@YAPEAN_KPEAN_N@Z 0000000180019640 f i nodejieba.obj
 0001:00018640       ??$_Allocate@PEAUDictUnit@cppjieba@@@std@@YAPEAPEAUDictUnit@cppjieba@@_KPEAPEAU12@_N@Z 0000000180019640 f i nodejieba.obj
 0001:00018640       ??$_Allocate@PEAV?$unordered_map@INU?$hash@I@std@@U?$equal_to@I@2@V?$allocator@U?$pair@$$CBIN@std@@@2@@std@@@std@@YAPEAPEAV?$unordered_map@INU?$hash@I@std@@U?$equal_to@I@2@V?$allocator@U?$pair@$$CBIN@std@@@2@@0@_KPEAPEAV10@_N@Z 0000000180019640 f i nodejieba.obj
 0001:00018640       ??$_Allocate@V?$_List_unchecked_iterator@V?$_List_val@U?$_List_simple_types@U?$pair@$$CBIPEAVTrieNode@cppjieba@@@std@@@std@@@std@@@std@@@std@@YAPEAV?$_List_unchecked_iterator@V?$_List_val@U?$_List_simple_types@U?$pair@$$CBIPEAVTrieNode@cppjieba@@@std@@@std@@@std@@@0@_KPEAV10@_N@Z 0000000180019640 f i nodejieba.obj
 0001:00018640       ??$_Allocate@V?$_List_unchecked_iterator@V?$_List_val@U?$_List_simple_types@U?$pair@$$CBIN@std@@@std@@@std@@@std@@@std@@YAPEAV?$_List_unchecked_iterator@V?$_List_val@U?$_List_simple_types@U?$pair@$$CBIN@std@@@std@@@std@@@0@_KPEAV10@_N@Z 0000000180019640 f i nodejieba.obj
 0001:000186c0       ??$_Allocate@H@std@@YAPEAH_KPEAH_N@Z 00000001800196c0 f i nodejieba.obj
 0001:00018740       ??$_Umove@PEAV?$_List_unchecked_const_iterator@V?$_List_val@U?$_List_simple_types@V?$basic_string@DU?$char_traits@D@std@@V?$allocator@D@2@@std@@@std@@@std@@U_Iterator_base0@2@@std@@@?$vector@V?$_List_unchecked_const_iterator@V?$_List_val@U?$_List_simple_types@V?$basic_string@DU?$char_traits@D@std@@V?$allocator@D@2@@std@@@std@@@std@@U_Iterator_base0@2@@std@@U?$_Wrap_alloc@V?$allocator@V?$_List_unchecked_const_iterator@V?$_List_val@U?$_List_simple_types@V?$basic_string@DU?$char_traits@D@std@@V?$allocator@D@2@@std@@@std@@@std@@U_Iterator_base0@2@@std@@@std@@@2@@std@@IEAAPEAV?$_List_unchecked_const_iterator@V?$_List_val@U?$_List_simple_types@V?$basic_string@DU?$char_traits@D@std@@V?$allocator@D@2@@std@@@std@@@std@@U_Iterator_base0@2@@1@PEAV21@00@Z 0000000180019740 f i nodejieba.obj
 0001:00018740       ??$_Umove@PEAV?$_List_unchecked_iterator@V?$_List_val@U?$_List_simple_types@U?$pair@$$CBIN@std@@@std@@@std@@@std@@@?$vector@V?$_List_unchecked_iterator@V?$_List_val@U?$_List_simple_types@U?$pair@$$CBIN@std@@@std@@@std@@@std@@U?$_Wrap_alloc@V?$allocator@V?$_List_unchecked_iterator@V?$_List_val@U?$_List_simple_types@U?$pair@$$CBIN@std@@@std@@@std@@@std@@@std@@@2@@std@@IEAAPEAV?$_List_unchecked_iterator@V?$_List_val@U?$_List_simple_types@U?$pair@$$CBIN@std@@@std@@@std@@@1@PEAV21@00@Z 0000000180019740 f i nodejieba.obj
 0001:00018740       ??$_Umove@PEAV?$_List_unchecked_const_iterator@V?$_List_val@U?$_List_simple_types@I@std@@@std@@U_Iterator_base0@2@@std@@@?$vector@V?$_List_unchecked_const_iterator@V?$_List_val@U?$_List_simple_types@I@std@@@std@@U_Iterator_base0@2@@std@@U?$_Wrap_alloc@V?$allocator@V?$_List_unchecked_const_iterator@V?$_List_val@U?$_List_simple_types@I@std@@@std@@U_Iterator_base0@2@@std@@@std@@@2@@std@@IEAAPEAV?$_List_unchecked_const_iterator@V?$_List_val@U?$_List_simple_types@I@std@@@std@@U_Iterator_base0@2@@1@PEAV21@00@Z 0000000180019740 f i nodejieba.obj
 0001:00018740       ??$_Umove@PEAV?$_List_unchecked_iterator@V?$_List_val@U?$_List_simple_types@U?$pair@$$CBV?$basic_string@DU?$char_traits@D@std@@V?$allocator@D@2@@std@@N@std@@@std@@@std@@@std@@@?$vector@V?$_List_unchecked_iterator@V?$_List_val@U?$_List_simple_types@U?$pair@$$CBV?$basic_string@DU?$char_traits@D@std@@V?$allocator@D@2@@std@@N@std@@@std@@@std@@@std@@U?$_Wrap_alloc@V?$allocator@V?$_List_unchecked_iterator@V?$_List_val@U?$_List_simple_types@U?$pair@$$CBV?$basic_string@DU?$char_traits@D@std@@V?$allocator@D@2@@std@@N@std@@@std@@@std@@@std@@@std@@@2@@std@@IEAAPEAV?$_List_unchecked_iterator@V?$_List_val@U?$_List_simple_types@U?$pair@$$CBV?$basic_string@DU?$char_traits@D@std@@V?$allocator@D@2@@std@@N@std@@@std@@@std@@@1@PEAV21@00@Z 0000000180019740 f i nodejieba.obj
 0001:00018740       ??$_Umove@PEAV?$_List_unchecked_iterator@V?$_List_val@U?$_List_simple_types@U?$pair@$$CBIPEAVTrieNode@cppjieba@@@std@@@std@@@std@@@std@@@?$vector@V?$_List_unchecked_iterator@V?$_List_val@U?$_List_simple_types@U?$pair@$$CBIPEAVTrieNode@cppjieba@@@std@@@std@@@std@@@std@@U?$_Wrap_alloc@V?$allocator@V?$_List_unchecked_iterator@V?$_List_val@U?$_List_simple_types@U?$pair@$$CBIPEAVTrieNode@cppjieba@@@std@@@std@@@std@@@std@@@std@@@2@@std@@IEAAPEAV?$_List_unchecked_iterator@V?$_List_val@U?$_List_simple_types@U?$pair@$$CBIPEAVTrieNode@cppjieba@@@std@@@std@@@std@@@1@PEAV21@00@Z 0000000180019740 f i nodejieba.obj
 0001:00018780       ??$_Allocate@U?$pair@V?$basic_string@DU?$char_traits@D@std@@V?$allocator@D@2@@std@@N@std@@@std@@YAPEAU?$pair@V?$basic_string@DU?$char_traits@D@std@@V?$allocator@D@2@@std@@N@0@_KPEAU10@_N@Z 0000000180019780 f i nodejieba.obj
 0001:00018780       ??$_Allocate@UWord@cppjieba@@@std@@YAPEAUWord@cppjieba@@_KPEAU12@_N@Z 0000000180019780 f i nodejieba.obj
 0001:00018800       ??$_Allocate@UWordRange@cppjieba@@@std@@YAPEAUWordRange@cppjieba@@_KPEAU12@_N@Z 0000000180019800 f i nodejieba.obj
 0001:00018880       ??$_Allocate@UDag@cppjieba@@@std@@YAPEAUDag@cppjieba@@_KPEAU12@_N@Z 0000000180019880 f i nodejieba.obj
 0001:00018900       ??$_Allocate@V?$LocalVector@I@limonp@@@std@@YAPEAV?$LocalVector@I@limonp@@_KPEAV12@_N@Z 0000000180019900 f i nodejieba.obj
 0001:00018980       ??$_Allocate@V?$basic_string@DU?$char_traits@D@std@@V?$allocator@D@2@@std@@@std@@YAPEAV?$basic_string@DU?$char_traits@D@std@@V?$allocator@D@2@@0@_KPEAV10@_N@Z 0000000180019980 f i nodejieba.obj
 0001:00018a00       ?_Getcat@?$numpunct@D@std@@SA_KPEAPEBVfacet@locale@2@PEBV42@@Z 0000000180019a00 f i nodejieba.obj
 0001:00018b40       ?_Check_size@?$_Hash@V?$_Uset_traits@V?$basic_string@DU?$char_traits@D@std@@V?$allocator@D@2@@std@@V?$_Uhash_compare@V?$basic_string@DU?$char_traits@D@std@@V?$allocator@D@2@@std@@U?$hash@V?$basic_string@DU?$char_traits@D@std@@V?$allocator@D@2@@std@@@2@U?$equal_to@V?$basic_string@DU?$char_traits@D@std@@V?$allocator@D@2@@std@@@2@@2@V?$allocator@V?$basic_string@DU?$char_traits@D@std@@V?$allocator@D@2@@std@@@2@$0A@@std@@@std@@IEAAXXZ 0000000180019b40 f i nodejieba.obj
 0001:00018c00       ?_Getcat@?$codecvt@DDU_Mbstatet@@@std@@SA_KPEAPEBVfacet@locale@2@PEBV42@@Z 0000000180019c00 f i nodejieba.obj
 0001:00018d40       ?_Check_size@?$_Hash@V?$_Umap_traits@INV?$_Uhash_compare@IU?$hash@I@std@@U?$equal_to@I@2@@std@@V?$allocator@U?$pair@$$CBIN@std@@@2@$0A@@std@@@std@@IEAAXXZ 0000000180019d40 f i nodejieba.obj
 0001:00018d40       ?_Check_size@?$_Hash@V?$_Uset_traits@IV?$_Uhash_compare@IU?$hash@I@std@@U?$equal_to@I@2@@std@@V?$allocator@I@2@$0A@@std@@@std@@IEAAXXZ 0000000180019d40 f i nodejieba.obj
 0001:00018d40       ?_Check_size@?$_Hash@V?$_Umap_traits@IPEAVTrieNode@cppjieba@@V?$_Uhash_compare@IU?$hash@I@std@@U?$equal_to@I@2@@std@@V?$allocator@U?$pair@$$CBIPEAVTrieNode@cppjieba@@@std@@@4@$0A@@std@@@std@@IEAAXXZ 0000000180019d40 f i nodejieba.obj
 0001:00018e00       ?_Getcat@?$num_put@DV?$ostreambuf_iterator@DU?$char_traits@D@std@@@std@@@std@@SA_KPEAPEBVfacet@locale@2@PEBV42@@Z 0000000180019e00 f i nodejieba.obj
 0001:00018f40       ?put@?$basic_ostream@DU?$char_traits@D@std@@@std@@QEAAAEAV12@D@Z 0000000180019f40 f i nodejieba.obj
 0001:000190b0       ?_Init@?$numpunct@D@std@@IEAAXAEBV_Locinfo@2@_N@Z 000000018001a0b0 f i nodejieba.obj
 0001:00019230       ??$_Insert@AEAU?$pair@$$CBIN@std@@V?$_List_unchecked_iterator@V?$_List_val@U?$_List_simple_types@U?$pair@$$CBIN@std@@@std@@@std@@@2@@?$_Hash@V?$_Umap_traits@INV?$_Uhash_compare@IU?$hash@I@std@@U?$equal_to@I@2@@std@@V?$allocator@U?$pair@$$CBIN@std@@@2@$0A@@std@@@std@@IEAA?AU?$pair@V?$_List_iterator@V?$_List_val@U?$_List_simple_types@U?$pair@$$CBIN@std@@@std@@@std@@@std@@_N@1@AEAU?$pair@$$CBIN@1@V?$_List_unchecked_iterator@V?$_List_val@U?$_List_simple_types@U?$pair@$$CBIN@std@@@std@@@std@@@1@@Z 000000018001a230 f i nodejieba.obj
 0001:00019230       ??$_Insert@AEBIV?$_List_unchecked_const_iterator@V?$_List_val@U?$_List_simple_types@I@std@@@std@@U_Iterator_base0@2@@std@@@?$_Hash@V?$_Uset_traits@IV?$_Uhash_compare@IU?$hash@I@std@@U?$equal_to@I@2@@std@@V?$allocator@I@2@$0A@@std@@@std@@IEAA?AU?$pair@V?$_List_const_iterator@V?$_List_val@U?$_List_simple_types@I@std@@@std@@@std@@_N@1@AEBIV?$_List_unchecked_const_iterator@V?$_List_val@U?$_List_simple_types@I@std@@@std@@U_Iterator_base0@2@@1@@Z 000000018001a230 f i nodejieba.obj
 0001:00019230       ??$_Insert@AEAU?$pair@$$CBIPEAVTrieNode@cppjieba@@@std@@V?$_List_unchecked_iterator@V?$_List_val@U?$_List_simple_types@U?$pair@$$CBIPEAVTrieNode@cppjieba@@@std@@@std@@@std@@@2@@?$_Hash@V?$_Umap_traits@IPEAVTrieNode@cppjieba@@V?$_Uhash_compare@IU?$hash@I@std@@U?$equal_to@I@2@@std@@V?$allocator@U?$pair@$$CBIPEAVTrieNode@cppjieba@@@std@@@4@$0A@@std@@@std@@IEAA?AU?$pair@V?$_List_iterator@V?$_List_val@U?$_List_simple_types@U?$pair@$$CBIPEAVTrieNode@cppjieba@@@std@@@std@@@std@@@std@@_N@1@AEAU?$pair@$$CBIPEAVTrieNode@cppjieba@@@1@V?$_List_unchecked_iterator@V?$_List_val@U?$_List_simple_types@U?$pair@$$CBIPEAVTrieNode@cppjieba@@@std@@@std@@@std@@@1@@Z 000000018001a230 f i nodejieba.obj
 0001:000193b0       ??$getline@DU?$char_traits@D@std@@V?$allocator@D@2@@std@@YAAEAV?$basic_istream@DU?$char_traits@D@std@@@0@$$QEAV10@AEAV?$basic_string@DU?$char_traits@D@std@@V?$allocator@D@2@@0@D@Z 000000018001a3b0 f i nodejieba.obj
 0001:00019590       ??$_Sort@PEAUDictUnit@cppjieba@@_JP6A_NAEBU12@0@Z@std@@YAXPEAUDictUnit@cppjieba@@0_JP6A_NAEBU12@2@Z@Z 000000018001a590 f i nodejieba.obj
 0001:000196e0       ??$_Partial_sort@PEAUWord@KeywordExtractor@cppjieba@@U123@P6A_NAEBU123@0@Z@std@@YAXPEAUWord@KeywordExtractor@cppjieba@@00P6A_NAEBU123@1@Z0@Z 000000018001a6e0 f i nodejieba.obj
 0001:000199e0       ??$_Insert_hint@AEAU?$pair@$$CBV?$basic_string@DU?$char_traits@D@std@@V?$allocator@D@2@@std@@UWord@KeywordExtractor@cppjieba@@@std@@PEAU?$_Tree_node@U?$pair@$$CBV?$basic_string@DU?$char_traits@D@std@@V?$allocator@D@2@@std@@UWord@KeywordExtractor@cppjieba@@@std@@PEAX@2@@?$_Tree@V?$_Tmap_traits@V?$basic_string@DU?$char_traits@D@std@@V?$allocator@D@2@@std@@UWord@KeywordExtractor@cppjieba@@U?$less@V?$basic_string@DU?$char_traits@D@std@@V?$allocator@D@2@@std@@@2@V?$allocator@U?$pair@$$CBV?$basic_string@DU?$char_traits@D@std@@V?$allocator@D@2@@std@@UWord@KeywordExtractor@cppjieba@@@std@@@2@$0A@@std@@@std@@IEAA?AV?$_Tree_iterator@V?$_Tree_val@U?$_Tree_simple_types@U?$pair@$$CBV?$basic_string@DU?$char_traits@D@std@@V?$allocator@D@2@@std@@UWord@KeywordExtractor@cppjieba@@@std@@@std@@@std@@@1@V?$_Tree_const_iterator@V?$_Tree_val@U?$_Tree_simple_types@U?$pair@$$CBV?$basic_string@DU?$char_traits@D@std@@V?$allocator@D@2@@std@@UWord@KeywordExtractor@cppjieba@@@std@@@std@@@std@@@1@AEAU?$pair@$$CBV?$basic_string@DU?$char_traits@D@std@@V?$allocator@D@2@@std@@UWord@KeywordExtractor@cppjieba@@@1@PEAU?$_Tree_node@U?$pair@$$CBV?$basic_string@DU?$char_traits@D@std@@V?$allocator@D@2@@std@@UWord@KeywordExtractor@cppjieba@@@std@@PEAX@1@@Z 000000018001a9e0 f i nodejieba.obj
 0001:00019c70       ??$_Insert@AEAU?$pair@$$CBV?$basic_string@DU?$char_traits@D@std@@V?$allocator@D@2@@std@@N@std@@V?$_List_unchecked_iterator@V?$_List_val@U?$_List_simple_types@U?$pair@$$CBV?$basic_string@DU?$char_traits@D@std@@V?$allocator@D@2@@std@@N@std@@@std@@@std@@@2@@?$_Hash@V?$_Umap_traits@V?$basic_string@DU?$char_traits@D@std@@V?$allocator@D@2@@std@@NV?$_Uhash_compare@V?$basic_string@DU?$char_traits@D@std@@V?$allocator@D@2@@std@@U?$hash@V?$basic_string@DU?$char_traits@D@std@@V?$allocator@D@2@@std@@@2@U?$equal_to@V?$basic_string@DU?$char_traits@D@std@@V?$allocator@D@2@@std@@@2@@2@V?$allocator@U?$pair@$$CBV?$basic_string@DU?$char_traits@D@std@@V?$allocator@D@2@@std@@N@std@@@2@$0A@@std@@@std@@IEAA?AU?$pair@V?$_List_iterator@V?$_List_val@U?$_List_simple_types@U?$pair@$$CBV?$basic_string@DU?$char_traits@D@std@@V?$allocator@D@2@@std@@N@std@@@std@@@std@@@std@@_N@1@AEAU?$pair@$$CBV?$basic_string@DU?$char_traits@D@std@@V?$allocator@D@2@@std@@N@1@V?$_List_unchecked_iterator@V?$_List_val@U?$_List_simple_types@U?$pair@$$CBV?$basic_string@DU?$char_traits@D@std@@V?$allocator@D@2@@std@@N@std@@@std@@@std@@@1@@Z 000000018001ac70 f i nodejieba.obj
 0001:00019ea0       ??$_Destroy_range@U?$_Wrap_alloc@V?$allocator@UWord@KeywordExtractor@cppjieba@@@std@@@std@@@std@@YAXPEAUWord@KeywordExtractor@cppjieba@@0AEAU?$_Wrap_alloc@V?$allocator@UWord@KeywordExtractor@cppjieba@@@std@@@0@U_Nonscalar_ptr_iterator_tag@0@@Z 000000018001aea0 f i nodejieba.obj
 0001:0001a000       ??$_Destroy_range@U?$_Wrap_alloc@V?$allocator@UWord@cppjieba@@@std@@@std@@@std@@YAXPEAUWord@cppjieba@@0AEAU?$_Wrap_alloc@V?$allocator@UWord@cppjieba@@@std@@@0@U_Nonscalar_ptr_iterator_tag@0@@Z 000000018001b000 f i nodejieba.obj
 0001:0001a000       ??$_Destroy_range@U?$_Wrap_alloc@V?$allocator@U?$pair@V?$basic_string@DU?$char_traits@D@std@@V?$allocator@D@2@@std@@N@std@@@std@@@std@@@std@@YAXPEAU?$pair@V?$basic_string@DU?$char_traits@D@std@@V?$allocator@D@2@@std@@N@0@0AEAU?$_Wrap_alloc@V?$allocator@U?$pair@V?$basic_string@DU?$char_traits@D@std@@V?$allocator@D@2@@std@@N@std@@@std@@@0@U_Nonscalar_ptr_iterator_tag@0@@Z 000000018001b000 f i nodejieba.obj
 0001:0001a0b0       ??$_Destroy_range@U?$_Wrap_alloc@V?$allocator@V?$basic_string@DU?$char_traits@D@std@@V?$allocator@D@2@@std@@@std@@@std@@@std@@YAXPEAV?$basic_string@DU?$char_traits@D@std@@V?$allocator@D@2@@0@0AEAU?$_Wrap_alloc@V?$allocator@V?$basic_string@DU?$char_traits@D@std@@V?$allocator@D@2@@std@@@std@@@0@U_Nonscalar_ptr_iterator_tag@0@@Z 000000018001b0b0 f i nodejieba.obj
 0001:0001a160       ??$_Destroy_range@U?$_Wrap_alloc@V?$allocator@UDictUnit@cppjieba@@@std@@@std@@@std@@YAXPEAUDictUnit@cppjieba@@0AEAU?$_Wrap_alloc@V?$allocator@UDictUnit@cppjieba@@@std@@@0@U_Nonscalar_ptr_iterator_tag@0@@Z 000000018001b160 f i nodejieba.obj
 0001:0001a230       ??$_Destroy_range@U?$_Wrap_alloc@V?$allocator@U?$pair@V?$basic_string@DU?$char_traits@D@std@@V?$allocator@D@2@@std@@V12@@std@@@std@@@std@@@std@@YAXPEAU?$pair@V?$basic_string@DU?$char_traits@D@std@@V?$allocator@D@2@@std@@V12@@0@0AEAU?$_Wrap_alloc@V?$allocator@U?$pair@V?$basic_string@DU?$char_traits@D@std@@V?$allocator@D@2@@std@@V12@@std@@@std@@@0@U_Nonscalar_ptr_iterator_tag@0@@Z 000000018001b230 f i nodejieba.obj
 0001:0001a370       ??$_Insert@AEBV?$basic_string@DU?$char_traits@D@std@@V?$allocator@D@2@@std@@V?$_List_unchecked_const_iterator@V?$_List_val@U?$_List_simple_types@V?$basic_string@DU?$char_traits@D@std@@V?$allocator@D@2@@std@@@std@@@std@@U_Iterator_base0@2@@2@@?$_Hash@V?$_Uset_traits@V?$basic_string@DU?$char_traits@D@std@@V?$allocator@D@2@@std@@V?$_Uhash_compare@V?$basic_string@DU?$char_traits@D@std@@V?$allocator@D@2@@std@@U?$hash@V?$basic_string@DU?$char_traits@D@std@@V?$allocator@D@2@@std@@@2@U?$equal_to@V?$basic_string@DU?$char_traits@D@std@@V?$allocator@D@2@@std@@@2@@2@V?$allocator@V?$basic_string@DU?$char_traits@D@std@@V?$allocator@D@2@@std@@@2@$0A@@std@@@std@@IEAA?AU?$pair@V?$_List_const_iterator@V?$_List_val@U?$_List_simple_types@V?$basic_string@DU?$char_traits@D@std@@V?$allocator@D@2@@std@@@std@@@std@@@std@@_N@1@AEBV?$basic_string@DU?$char_traits@D@std@@V?$allocator@D@2@@1@V?$_List_unchecked_const_iterator@V?$_List_val@U?$_List_simple_types@V?$basic_string@DU?$char_traits@D@std@@V?$allocator@D@2@@std@@@std@@@std@@U_Iterator_base0@2@@1@@Z 000000018001b370 f i nodejieba.obj
 0001:0001a5a0       ??1sentry@?$basic_istream@DU?$char_traits@D@std@@@std@@QEAA@XZ 000000018001b5a0 f i nodejieba.obj
 0001:0001a5e0       ??1Word@KeywordExtractor@cppjieba@@QEAA@XZ 000000018001b5e0 f i nodejieba.obj
 0001:0001a650       ?_Check_size@?$_Hash@V?$_Umap_traits@V?$basic_string@DU?$char_traits@D@std@@V?$allocator@D@2@@std@@NV?$_Uhash_compare@V?$basic_string@DU?$char_traits@D@std@@V?$allocator@D@2@@std@@U?$hash@V?$basic_string@DU?$char_traits@D@std@@V?$allocator@D@2@@std@@@2@U?$equal_to@V?$basic_string@DU?$char_traits@D@std@@V?$allocator@D@2@@std@@@2@@2@V?$allocator@U?$pair@$$CBV?$basic_string@DU?$char_traits@D@std@@V?$allocator@D@2@@std@@N@std@@@2@$0A@@std@@@std@@IEAAXXZ 000000018001b650 f i nodejieba.obj
 0001:0001a710       ?snextc@?$basic_streambuf@DU?$char_traits@D@std@@@std@@QEAAHXZ 000000018001b710 f i nodejieba.obj
 0001:0001a7b0       ??$_Unguarded_partition@PEAUDictUnit@cppjieba@@P6A_NAEBU12@0@Z@std@@YA?AU?$pair@PEAUDictUnit@cppjieba@@PEAU12@@0@PEAUDictUnit@cppjieba@@0P6A_NAEBU23@1@Z@Z 000000018001b7b0 f i nodejieba.obj
 0001:0001a9a0       ??$_Insert_at@AEAU?$pair@$$CBV?$basic_string@DU?$char_traits@D@std@@V?$allocator@D@2@@std@@UWord@KeywordExtractor@cppjieba@@@std@@PEAU?$_Tree_node@U?$pair@$$CBV?$basic_string@DU?$char_traits@D@std@@V?$allocator@D@2@@std@@UWord@KeywordExtractor@cppjieba@@@std@@PEAX@2@@?$_Tree@V?$_Tmap_traits@V?$basic_string@DU?$char_traits@D@std@@V?$allocator@D@2@@std@@UWord@KeywordExtractor@cppjieba@@U?$less@V?$basic_string@DU?$char_traits@D@std@@V?$allocator@D@2@@std@@@2@V?$allocator@U?$pair@$$CBV?$basic_string@DU?$char_traits@D@std@@V?$allocator@D@2@@std@@UWord@KeywordExtractor@cppjieba@@@std@@@2@$0A@@std@@@std@@IEAA?AV?$_Tree_iterator@V?$_Tree_val@U?$_Tree_simple_types@U?$pair@$$CBV?$basic_string@DU?$char_traits@D@std@@V?$allocator@D@2@@std@@UWord@KeywordExtractor@cppjieba@@@std@@@std@@@std@@@1@_NPEAU?$_Tree_node@U?$pair@$$CBV?$basic_string@DU?$char_traits@D@std@@V?$allocator@D@2@@std@@UWord@KeywordExtractor@cppjieba@@@std@@PEAX@1@AEAU?$pair@$$CBV?$basic_string@DU?$char_traits@D@std@@V?$allocator@D@2@@std@@UWord@KeywordExtractor@cppjieba@@@1@1@Z 000000018001b9a0 f i nodejieba.obj
 0001:0001ac50       ??$_Insert_nohint@AEAU?$pair@$$CBV?$basic_string@DU?$char_traits@D@std@@V?$allocator@D@2@@std@@UWord@KeywordExtractor@cppjieba@@@std@@PEAU?$_Tree_node@U?$pair@$$CBV?$basic_string@DU?$char_traits@D@std@@V?$allocator@D@2@@std@@UWord@KeywordExtractor@cppjieba@@@std@@PEAX@2@@?$_Tree@V?$_Tmap_traits@V?$basic_string@DU?$char_traits@D@std@@V?$allocator@D@2@@std@@UWord@KeywordExtractor@cppjieba@@U?$less@V?$basic_string@DU?$char_traits@D@std@@V?$allocator@D@2@@std@@@2@V?$allocator@U?$pair@$$CBV?$basic_string@DU?$char_traits@D@std@@V?$allocator@D@2@@std@@UWord@KeywordExtractor@cppjieba@@@std@@@2@$0A@@std@@@std@@IEAA?AU?$pair@V?$_Tree_iterator@V?$_Tree_val@U?$_Tree_simple_types@U?$pair@$$CBV?$basic_string@DU?$char_traits@D@std@@V?$allocator@D@2@@std@@UWord@KeywordExtractor@cppjieba@@@std@@@std@@@std@@@std@@_N@1@_NAEAU?$pair@$$CBV?$basic_string@DU?$char_traits@D@std@@V?$allocator@D@2@@std@@UWord@KeywordExtractor@cppjieba@@@1@PEAU?$_Tree_node@U?$pair@$$CBV?$basic_string@DU?$char_traits@D@std@@V?$allocator@D@2@@std@@UWord@KeywordExtractor@cppjieba@@@std@@PEAX@1@@Z 000000018001bc50 f i nodejieba.obj
 0001:0001ae10       ??$_Insert@AEBI@?$list@IV?$allocator@I@std@@@std@@QEAAXV?$_List_unchecked_const_iterator@V?$_List_val@U?$_List_simple_types@I@std@@@std@@U_Iterator_base0@2@@1@AEBI@Z 000000018001be10 f i nodejieba.obj
 0001:0001aed0       ??4Word@KeywordExtractor@cppjieba@@QEAAAEAU012@$$QEAU012@@Z 000000018001bed0 f i nodejieba.obj
 0001:0001afa0       ??1?$pair@$$CBV?$basic_string@DU?$char_traits@D@std@@V?$allocator@D@2@@std@@UWord@KeywordExtractor@cppjieba@@@std@@QEAA@XZ 000000018001bfa0 f i nodejieba.obj
 0001:0001b040       ??0?$vector@_KV?$allocator@_K@std@@@std@@QEAA@AEBV01@@Z 000000018001c040 f i nodejieba.obj
 0001:0001b0f0       ??$_Median@PEAUDictUnit@cppjieba@@P6A_NAEBU12@0@Z@std@@YAXPEAUDictUnit@cppjieba@@00P6A_NAEBU12@1@Z@Z 000000018001c0f0 f i nodejieba.obj
 0001:0001b1d0       ??$_Make_heap@PEAUDictUnit@cppjieba@@_JU12@P6A_NAEBU12@0@Z@std@@YAXPEAUDictUnit@cppjieba@@0P6A_NAEBU12@1@ZPEA_J0@Z 000000018001c1d0 f i nodejieba.obj
 0001:0001b3f0       ??$_Insertion_sort1@PEAUDictUnit@cppjieba@@P6A_NAEBU12@0@ZU12@@std@@YAXPEAUDictUnit@cppjieba@@0P6A_NAEBU12@1@Z0@Z 000000018001c3f0 f i nodejieba.obj
 0001:0001b870       ??$_Make_heap@PEAUWord@KeywordExtractor@cppjieba@@_JU123@P6A_NAEBU123@0@Z@std@@YAXPEAUWord@KeywordExtractor@cppjieba@@0P6A_NAEBU123@1@ZPEA_J0@Z 000000018001c870 f i nodejieba.obj
 0001:0001bb40       ??$_Uninit_copy@PEAUDictUnit@cppjieba@@PEAU12@V?$allocator@UDictUnit@cppjieba@@@std@@@std@@YAPEAUDictUnit@cppjieba@@PEAU12@00AEAU?$_Wrap_alloc@V?$allocator@UDictUnit@cppjieba@@@std@@@0@U_Nonscalar_ptr_iterator_tag@0@@Z 000000018001cb40 f i nodejieba.obj
 0001:0001bb40       ??$_Uninit_copy@PEBUDictUnit@cppjieba@@PEAU12@V?$allocator@UDictUnit@cppjieba@@@std@@@std@@YAPEAUDictUnit@cppjieba@@PEBU12@0PEAU12@AEAU?$_Wrap_alloc@V?$allocator@UDictUnit@cppjieba@@@std@@@0@U_Nonscalar_ptr_iterator_tag@0@@Z 000000018001cb40 f i nodejieba.obj
 0001:0001bbf0       ??$_Uninit_move@PEAUWord@KeywordExtractor@cppjieba@@PEAU123@V?$allocator@UWord@KeywordExtractor@cppjieba@@@std@@U123@@std@@YAPEAUWord@KeywordExtractor@cppjieba@@PEAU123@00AEAU?$_Wrap_alloc@V?$allocator@UWord@KeywordExtractor@cppjieba@@@std@@@0@0U_Nonscalar_ptr_iterator_tag@0@@Z 000000018001cbf0 f i nodejieba.obj
 0001:0001bd10       ??$_Uninit_move@PEAUWord@cppjieba@@PEAU12@V?$allocator@UWord@cppjieba@@@std@@U12@@std@@YAPEAUWord@cppjieba@@PEAU12@00AEAU?$_Wrap_alloc@V?$allocator@UWord@cppjieba@@@std@@@0@0U_Nonscalar_ptr_iterator_tag@0@@Z 000000018001cd10 f i nodejieba.obj
 0001:0001bdd0       ??$_Uninit_move@PEAUDictUnit@cppjieba@@PEAU12@V?$allocator@UDictUnit@cppjieba@@@std@@U12@@std@@YAPEAUDictUnit@cppjieba@@PEAU12@00AEAU?$_Wrap_alloc@V?$allocator@UDictUnit@cppjieba@@@std@@@0@0U_Nonscalar_ptr_iterator_tag@0@@Z 000000018001cdd0 f i nodejieba.obj
 0001:0001bec0       ??$_Uninit_move@PEAU?$pair@V?$basic_string@DU?$char_traits@D@std@@V?$allocator@D@2@@std@@V12@@std@@PEAU12@V?$allocator@U?$pair@V?$basic_string@DU?$char_traits@D@std@@V?$allocator@D@2@@std@@V12@@std@@@2@U12@@std@@YAPEAU?$pair@V?$basic_string@DU?$char_traits@D@std@@V?$allocator@D@2@@std@@V12@@0@PEAU10@00AEAU?$_Wrap_alloc@V?$allocator@U?$pair@V?$basic_string@DU?$char_traits@D@std@@V?$allocator@D@2@@std@@V12@@std@@@std@@@0@0U_Nonscalar_ptr_iterator_tag@0@@Z 000000018001cec0 f i nodejieba.obj
 0001:0001c000       ??$_Uninit_move@PEAU?$pair@V?$basic_string@DU?$char_traits@D@std@@V?$allocator@D@2@@std@@N@std@@PEAU12@V?$allocator@U?$pair@V?$basic_string@DU?$char_traits@D@std@@V?$allocator@D@2@@std@@N@std@@@2@U12@@std@@YAPEAU?$pair@V?$basic_string@DU?$char_traits@D@std@@V?$allocator@D@2@@std@@N@0@PEAU10@00AEAU?$_Wrap_alloc@V?$allocator@U?$pair@V?$basic_string@DU?$char_traits@D@std@@V?$allocator@D@2@@std@@N@std@@@std@@@0@0U_Nonscalar_ptr_iterator_tag@0@@Z 000000018001d000 f i nodejieba.obj
 0001:0001c0c0       ??$_Uninit_move@PEAV?$basic_string@DU?$char_traits@D@std@@V?$allocator@D@2@@std@@PEAV12@V?$allocator@V?$basic_string@DU?$char_traits@D@std@@V?$allocator@D@2@@std@@@2@V12@@std@@YAPEAV?$basic_string@DU?$char_traits@D@std@@V?$allocator@D@2@@0@PEAV10@00AEAU?$_Wrap_alloc@V?$allocator@V?$basic_string@DU?$char_traits@D@std@@V?$allocator@D@2@@std@@@std@@@0@0U_Nonscalar_ptr_iterator_tag@0@@Z 000000018001d0c0 f i nodejieba.obj
 0001:0001c170       ??4DictUnit@cppjieba@@QEAAAEAU01@$$QEAU01@@Z 000000018001d170 f i nodejieba.obj
 0001:0001c1f0       ??$_Med3@PEAUDictUnit@cppjieba@@P6A_NAEBU12@0@Z@std@@YAXPEAUDictUnit@cppjieba@@00P6A_NAEBU12@1@Z@Z 000000018001d1f0 f i nodejieba.obj
 0001:0001c270       ??$swap@UDictUnit@cppjieba@@@std@@YAXAEAUDictUnit@cppjieba@@0@Z 000000018001d270 f i nodejieba.obj
 0001:0001c3e0       ??$_Adjust_heap@PEAUDictUnit@cppjieba@@_JU12@P6A_NAEBU12@0@Z@std@@YAXPEAUDictUnit@cppjieba@@_J1$$QEAU12@P6A_NAEBU12@3@Z@Z 000000018001d3e0 f i nodejieba.obj
 0001:0001c6b0       ??$_Push_heap@PEAUWord@KeywordExtractor@cppjieba@@_JU123@P6A_NAEBU123@0@Z@std@@YAXPEAUWord@KeywordExtractor@cppjieba@@_J1$$QEAU123@P6A_NAEBU123@3@Z@Z 000000018001d6b0 f i nodejieba.obj
 0001:0001c890       ??$_Push_heap@PEAUDictUnit@cppjieba@@_JU12@P6A_NAEBU12@0@Z@std@@YAXPEAUDictUnit@cppjieba@@_J1$$QEAU12@P6A_NAEBU12@3@Z@Z 000000018001d890 f i nodejieba.obj
 0001:0001cb20       ??$_Pop_heap_0@PEAUDictUnit@cppjieba@@U12@P6A_NAEBU12@0@Z@std@@YAXPEAUDictUnit@cppjieba@@0P6A_NAEBU12@1@Z0@Z 000000018001db20 f i nodejieba.obj
 0001:0001cc50       ??$_Move_backward@PEAUDictUnit@cppjieba@@PEAU12@@std@@YAPEAUDictUnit@cppjieba@@PEAU12@00U_Nonscalar_ptr_iterator_tag@0@@Z 000000018001dc50 f i nodejieba.obj
 0001:0001cdc0       ??$_Pop_heap_0@PEAUWord@KeywordExtractor@cppjieba@@U123@P6A_NAEBU123@0@Z@std@@YAXPEAUWord@KeywordExtractor@cppjieba@@0P6A_NAEBU123@1@Z0@Z 000000018001ddc0 f i nodejieba.obj
 0001:0001cf50       ??0Dag@cppjieba@@QEAA@$$QEAU01@@Z 000000018001df50 f i nodejieba.obj
 0001:0001cff0       ??4?$LocalVector@U?$pair@_KPEBUDictUnit@cppjieba@@@std@@@limonp@@QEAAAEAV01@AEBV01@@Z 000000018001dff0 f i nodejieba.obj
 0001:0001d0d8       ??_E?$basic_istream@DU?$char_traits@D@std@@@std@@$4PPPPPPPM@A@EAAPEAXI@Z 000000018001e0d8 f i nodejieba.obj
 0001:0001d0e4       ??_E?$basic_ostringstream@DU?$char_traits@D@std@@V?$allocator@D@2@@std@@$4PPPPPPPM@A@EAAPEAXI@Z 000000018001e0e4 f i nodejieba.obj
 0001:0001d0f0       ??_E?$basic_ostream@DU?$char_traits@D@std@@@std@@$4PPPPPPPM@A@EAAPEAXI@Z 000000018001e0f0 f i nodejieba.obj
 0001:0001d0fc       ??_E?$basic_ifstream@DU?$char_traits@D@std@@@std@@$4PPPPPPPM@A@EAAPEAXI@Z 000000018001e0fc f i nodejieba.obj
 0001:0001d15c       __imp_load_?Value@External@v8@@QEBAPEAXXZ 000000018001e15c f   node:node.exe
 0001:0001d168       __tailMerge_node_exe       000000018001e168 f i node:node.exe
 0001:0001d1e1       __imp_load_?New@External@v8@@SA?AV?$Local@VExternal@v8@@@2@PEAVIsolate@2@PEAX@Z 000000018001e1e1 f   node:node.exe
 0001:0001d1ed       __imp_load_?GetCurrentContext@Isolate@v8@@QEAA?AV?$Local@VContext@v8@@@2@XZ 000000018001e1ed f   node:node.exe
 0001:0001d1f9       __imp_load_?GetCurrent@Isolate@v8@@SAPEAV12@XZ 000000018001e1f9 f   node:node.exe
 0001:0001d205       __imp_load_?CreateHandle@HandleScope@v8@@KAPEAPEAVObject@internal@2@PEAVIsolate@42@PEAV342@@Z 000000018001e205 f   node:node.exe
 0001:0001d211       __imp_load_?CreateHandle@HandleScope@v8@@CAPEAPEAVObject@internal@2@PEAVHeapObject@42@PEAV342@@Z 000000018001e211 f   node:node.exe
 0001:0001d21d       __imp_load_??1HandleScope@v8@@QEAA@XZ 000000018001e21d f   node:node.exe
 0001:0001d229       __imp_load_?GetFunction@FunctionTemplate@v8@@QEAA?AV?$Local@VFunction@v8@@@2@XZ 000000018001e229 f   node:node.exe
 0001:0001d235       __imp_load_?New@FunctionTemplate@v8@@SA?AV?$Local@VFunctionTemplate@v8@@@2@PEAVIsolate@2@P6AXAEBV?$FunctionCallbackInfo@VValue@v8@@@2@@ZV?$Local@VValue@v8@@@2@V?$Local@VSignature@v8@@@2@HW4ConstructorBehavior@2@@Z 000000018001e235 f   node:node.exe
 0001:0001d241       __imp_load_?ToLocalEmpty@V8@v8@@CAXXZ 000000018001e241 f   node:node.exe
 0001:0001d24d       __imp_load_?Escape@EscapableHandleScope@v8@@AEAAPEAPEAVObject@internal@2@PEAPEAV342@@Z 000000018001e24d f   node:node.exe
 0001:0001d259       __imp_load_??0EscapableHandleScope@v8@@QEAA@PEAVIsolate@1@@Z 000000018001e259 f   node:node.exe
 0001:0001d265       __imp_load_?NewFromUtf8@String@v8@@SA?AV?$MaybeLocal@VString@v8@@@2@PEAVIsolate@2@PEBDW4NewStringType@2@H@Z 000000018001e265 f   node:node.exe
 0001:0001d271       __imp_load_?SlowGetInternalField@Object@v8@@AEAA?AV?$Local@VValue@v8@@@2@H@Z 000000018001e271 f   node:node.exe
 0001:0001d27d       __imp_load_?SetInternalField@Object@v8@@QEAAXHV?$Local@VValue@v8@@@2@@Z 000000018001e27d f   node:node.exe
 0001:0001d289       __imp_load_?Set@Object@v8@@QEAA_NV?$Local@VValue@v8@@@2@0@Z 000000018001e289 f   node:node.exe
 0001:0001d295       __imp_load_?SetInternalFieldCount@ObjectTemplate@v8@@QEAAXH@Z 000000018001e295 f   node:node.exe
 0001:0001d2a1       __imp_load_?NewInstance@ObjectTemplate@v8@@QEAA?AV?$MaybeLocal@VObject@v8@@@2@V?$Local@VContext@v8@@@2@@Z 000000018001e2a1 f   node:node.exe
 0001:0001d2ad       __imp_load_?New@ObjectTemplate@v8@@SA?AV?$Local@VObjectTemplate@v8@@@2@PEAVIsolate@2@V?$Local@VFunctionTemplate@v8@@@2@@Z 000000018001e2ad f   node:node.exe
 0001:0001d2b9       __imp_load_node_module_register 000000018001e2b9 f   node:node.exe
 0001:0001d2c5       __imp_load_??1EscapableHandleScope@v8@@QEAA@XZ 000000018001e2c5 f   node:node.exe
 0001:0001d2d1       __imp_load_?New@Array@v8@@SA?AV?$Local@VArray@v8@@@2@PEAVIsolate@2@H@Z 000000018001e2d1 f   node:node.exe
 0001:0001d2dd       __imp_load_?Int32Value@Value@v8@@QEBAHXZ 000000018001e2dd f   node:node.exe
 0001:0001d2e9       __imp_load_?IntegerValue@Value@v8@@QEBA_JXZ 000000018001e2e9 f   node:node.exe
 0001:0001d2f5       __imp_load_??1Utf8Value@String@v8@@QEAA@XZ 000000018001e2f5 f   node:node.exe
 0001:0001d301       __imp_load_??0Utf8Value@String@v8@@QEAA@V?$Local@VValue@v8@@@2@@Z 000000018001e301 f   node:node.exe
 0001:0001d30d       __imp_load_?New@Number@v8@@SA?AV?$Local@VNumber@v8@@@2@PEAVIsolate@2@N@Z 000000018001e30d f   node:node.exe
 0001:0001d319       __imp_load_?New@Object@v8@@SA?AV?$Local@VObject@v8@@@2@PEAVIsolate@2@@Z 000000018001e319 f   node:node.exe
 0001:0001d325       __imp_load_?Set@Object@v8@@QEAA_NIV?$Local@VValue@v8@@@2@@Z 000000018001e325 f   node:node.exe
 0001:0001d331       __imp_load_?ToString@Value@v8@@QEBA?AV?$Local@VString@v8@@@2@XZ 000000018001e331 f   node:node.exe
 0001:0001d33d       __imp_load_?ToBoolean@Value@v8@@QEBA?AV?$Local@VBoolean@v8@@@2@XZ 000000018001e33d f   node:node.exe
 0001:0001d34c       ??0_Init_locks@std@@QEAA@XZ 000000018001e34c f   libcpmt:xlock.obj
 0001:0001d398       ??0_Lockit@std@@QEAA@H@Z   000000018001e398 f   libcpmt:xlock.obj
 0001:0001d3d4       ??1_Init_locks@std@@QEAA@XZ 000000018001e3d4 f   libcpmt:xlock.obj
 0001:0001d418       ??1_Lockit@std@@QEAA@XZ    000000018001e418 f   libcpmt:xlock.obj
 0001:0001d44c       ??4?$_Yarn@D@std@@QEAAAEAV01@PEBD@Z 000000018001e44c f i libcpmt:locale0.obj
 0001:0001d4c4       ??_G_Fac_node@std@@QEAAPEAXI@Z 000000018001e4c4 f i libcpmt:locale0.obj
 0001:0001d550       ??_E_Locimp@locale@std@@MEAAPEAXI@Z 000000018001e550 f i libcpmt:locale0.obj
 0001:0001d550       ??_G_Locimp@locale@std@@MEAAPEAXI@Z 000000018001e550 f i libcpmt:locale0.obj
 0001:0001d5bc       ?_Facet_Register@std@@YAXPEAV_Facet_base@1@@Z 000000018001e5bc f   libcpmt:locale0.obj
 0001:0001d5f4       ?_Getgloballocale@locale@std@@CAPEAV_Locimp@12@XZ 000000018001e5f4 f   libcpmt:locale0.obj
 0001:0001d5fc       ?_Init@locale@std@@CAPEAV_Locimp@12@_N@Z 000000018001e5fc f   libcpmt:locale0.obj
 0001:0001d6b8       ?_Locimp_dtor@_Locimp@locale@std@@CAXPEAV123@@Z 000000018001e6b8 f   libcpmt:locale0.obj
 0001:0001d760       ?_Locinfo_ctor@_Locinfo@std@@SAXPEAV12@PEBD@Z 000000018001e760 f   libcpmt:locale0.obj
 0001:0001d7cc       ?_Locinfo_dtor@_Locinfo@std@@SAXPEAV12@@Z 000000018001e7cc f   libcpmt:locale0.obj
 0001:0001d7f0       ?_New_Locimp@_Locimp@locale@std@@CAPEAV123@_N@Z 000000018001e7f0 f   libcpmt:locale0.obj
 0001:0001d860       ?_Setgloballocale@locale@std@@CAXPEAX@Z 000000018001e860 f   libcpmt:locale0.obj
 0001:0001d894       _Deletegloballocale        000000018001e894 f   libcpmt:locale0.obj
 0001:0001d91c       ??0bad_alloc@std@@QEAA@AEBV01@@Z 000000018001e91c f i libcpmt:xthrow.obj
 0001:0001d95c       ??0bad_alloc@std@@QEAA@XZ  000000018001e95c f i libcpmt:xthrow.obj
 0001:0001d97c       ??0exception@std@@QEAA@AEBV01@@Z 000000018001e97c f i libcpmt:xthrow.obj
 0001:0001d9b4       ??0length_error@std@@QEAA@AEBV01@@Z 000000018001e9b4 f i libcpmt:xthrow.obj
 0001:0001d9f4       ??0length_error@std@@QEAA@PEBD@Z 000000018001e9f4 f i libcpmt:xthrow.obj
 0001:0001da40       ??0logic_error@std@@QEAA@AEBV01@@Z 000000018001ea40 f i libcpmt:xthrow.obj
 0001:0001da80       ??0out_of_range@std@@QEAA@AEBV01@@Z 000000018001ea80 f i libcpmt:xthrow.obj
 0001:0001dac0       ??0out_of_range@std@@QEAA@PEBD@Z 000000018001eac0 f i libcpmt:xthrow.obj
 0001:0001db0c       ??1bad_alloc@std@@UEAA@XZ  000000018001eb0c f i libcpmt:xthrow.obj
 0001:0001db0c       ??1length_error@std@@UEAA@XZ 000000018001eb0c f i libcpmt:xthrow.obj
 0001:0001db0c       ??1bad_exception@std@@UEAA@XZ 000000018001eb0c f i libvcruntime:frame.obj
 0001:0001db0c       ??1out_of_range@std@@UEAA@XZ 000000018001eb0c f i libcpmt:xthrow.obj
 0001:0001db0c       ??1bad_array_new_length@std@@UEAA@XZ 000000018001eb0c f i LIBCMT:throw_bad_alloc.obj
 0001:0001db20       ??_Elogic_error@std@@UEAAPEAXI@Z 000000018001eb20 f i libcpmt:xthrow.obj
 0001:0001db20       ??_Glogic_error@std@@UEAAPEAXI@Z 000000018001eb20 f i libcpmt:xthrow.obj
 0001:0001db20       ??_Elength_error@std@@UEAAPEAXI@Z 000000018001eb20 f i libcpmt:xthrow.obj
 0001:0001db20       ??_Gbad_array_new_length@std@@UEAAPEAXI@Z 000000018001eb20 f i LIBCMT:throw_bad_alloc.obj
 0001:0001db20       ??_Ebad_alloc@std@@UEAAPEAXI@Z 000000018001eb20 f i libcpmt:xthrow.obj
 0001:0001db20       ??_Gexception@std@@UEAAPEAXI@Z 000000018001eb20 f i libcpmt:xthrow.obj
 0001:0001db20       ??_Ebad_exception@std@@UEAAPEAXI@Z 000000018001eb20 f i libvcruntime:frame.obj
 0001:0001db20       ??_Gbad_exception@std@@UEAAPEAXI@Z 000000018001eb20 f i libvcruntime:frame.obj
 0001:0001db20       ??_Gbad_alloc@std@@UEAAPEAXI@Z 000000018001eb20 f i libcpmt:xthrow.obj
 0001:0001db20       ??_Ebad_array_new_length@std@@UEAAPEAXI@Z 000000018001eb20 f i LIBCMT:throw_bad_alloc.obj
 0001:0001db20       ??_Glength_error@std@@UEAAPEAXI@Z 000000018001eb20 f i libcpmt:xthrow.obj
 0001:0001db20       ??_Eexception@std@@UEAAPEAXI@Z 000000018001eb20 f i libcpmt:xthrow.obj
 0001:0001db20       ??_Eout_of_range@std@@UEAAPEAXI@Z 000000018001eb20 f i libcpmt:xthrow.obj
 0001:0001db20       ??_Gout_of_range@std@@UEAAPEAXI@Z 000000018001eb20 f i libcpmt:xthrow.obj
 0001:0001db64       ?_Xbad_alloc@std@@YAXXZ    000000018001eb64 f   libcpmt:xthrow.obj
 0001:0001db64       ?__scrt_throw_std_bad_alloc@@YAXXZ 000000018001eb64 f   LIBCMT:throw_bad_alloc.obj
 0001:0001db84       ?_Xlength_error@std@@YAXPEBD@Z 000000018001eb84 f   libcpmt:xthrow.obj
 0001:0001dba8       ?_Xout_of_range@std@@YAXPEBD@Z 000000018001eba8 f   libcpmt:xthrow.obj
 0001:0001dbcc       ?what@exception@std@@UEBAPEBDXZ 000000018001ebcc f i libcpmt:xthrow.obj
 0001:0001dbe0       ?_Addstd@ios_base@std@@SAXPEAV12@@Z 000000018001ebe0 f   libcpmt:ios.obj
 0001:0001dc50       ?_Ios_base_dtor@ios_base@std@@CAXPEAV12@@Z 000000018001ec50 f   libcpmt:ios.obj
 0001:0001dc94       ?_Tidy@ios_base@std@@AEAAXXZ 000000018001ec94 f i libcpmt:ios.obj
 0001:0001dd24       ??$_Xfiopen@D@std@@YAPEAU_iobuf@@PEBDHH@Z 000000018001ed24 f i libcpmt:fiopen.obj
 0001:0001de20       ?_Fiopen@std@@YAPEAU_iobuf@@PEBDHH@Z 000000018001ee20 f   libcpmt:fiopen.obj
 0001:0001de28       ?_Syserror_map@std@@YAPEBDH@Z 000000018001ee28 f   libcpmt:syserror.obj
 0001:0001de50       _Getctype                  000000018001ee50 f   libcpmt:_tolower.obj
 0001:0001df10       _Tolower                   000000018001ef10 f   libcpmt:_tolower.obj
 0001:0001e038       _Getcvt                    000000018001f038 f   libcpmt:xwctomb.obj
 0001:0001e0c8       _Toupper                   000000018001f0c8 f   libcpmt:_toupper.obj
 0001:0001e200       _Mtxdst                    000000018001f200 f   libcpmt:xmtx.obj
 0001:0001e208       _Mtxinit                   000000018001f208 f   libcpmt:xmtx.obj
 0001:0001e218       _Mtxlock                   000000018001f218 f   libcpmt:xmtx.obj
 0001:0001e220       _Mtxunlock                 000000018001f220 f   libcpmt:xmtx.obj
 0001:0001e228       ?_Atexit@@YAXP6AXXZ@Z      000000018001f228 f   libcpmt:iosptrs.obj
 0001:0001e268       __crtLCMapStringA          000000018001f268 f   libcpmt:StlLCMapStringA.obj
 0001:0001ea2c       __crtInitializeCriticalSectionEx 000000018001fa2c f   libcpmt:winapisupp.obj
 0001:0001ea8c       GetTableIndexFromLocaleName 000000018001fa8c f   libcpmt:winapinls.obj
 0001:0001eb18       __crtDownlevelLocaleNameToLCID 000000018001fb18 f   libcpmt:winapinls.obj
 0001:0001eb4c       __crtLCMapStringEx         000000018001fb4c f   libcpmt:winapinls.obj
 0001:0001ec08       __wcsnicmp_ascii           000000018001fc08 f   libcpmt:winapinls.obj
 0001:0001ec70       __security_check_cookie    000000018001fc70 f   LIBCMT:_amdsecgs_.obj
 0001:0001eddc       _Init_thread_footer        000000018001fddc f   LIBCMT:thread_safe_statics.obj
 0001:0001ee3c       _Init_thread_header        000000018001fe3c f   LIBCMT:thread_safe_statics.obj
 0001:0001eea4       _Init_thread_notify        000000018001fea4 f   LIBCMT:thread_safe_statics.obj
 0001:0001ef00       _Init_thread_wait          000000018001ff00 f   LIBCMT:thread_safe_statics.obj
 0001:0001ef98       ??2@YAPEAX_K@Z             000000018001ff98 f   LIBCMT:new_scalar.obj
 0001:0001efd4       __scrt_acquire_startup_lock 000000018001ffd4 f   LIBCMT:utility.obj
 0001:0001f010       __scrt_dllmain_after_initialize_c 0000000180020010 f   LIBCMT:utility.obj
 0001:0001f030       __scrt_dllmain_before_initialize_c 0000000180020030 f   LIBCMT:utility.obj
 0001:0001f048       __scrt_dllmain_crt_thread_attach 0000000180020048 f   LIBCMT:utility.obj
 0001:0001f070       __scrt_dllmain_crt_thread_detach 0000000180020070 f   LIBCMT:utility.obj
 0001:0001f088       __scrt_dllmain_exception_filter 0000000180020088 f   LIBCMT:utility.obj
 0001:0001f0ec       __scrt_dllmain_uninitialize_c 00000001800200ec f   LIBCMT:utility.obj
 0001:0001f11c       __scrt_dllmain_uninitialize_critical 000000018002011c f   LIBCMT:utility.obj
 0001:0001f130       __scrt_initialize_crt      0000000180020130 f   LIBCMT:utility.obj
 0001:0001f17c       __scrt_initialize_onexit_tables 000000018002017c f   LIBCMT:utility.obj
 0001:0001f248       __scrt_is_nonwritable_in_current_image 0000000180020248 f   LIBCMT:utility.obj
 0001:0001f2e4       __scrt_release_startup_lock 00000001800202e4 f   LIBCMT:utility.obj
 0001:0001f308       __scrt_uninitialize_crt    0000000180020308 f   LIBCMT:utility.obj
 0001:0001f334       _onexit                    0000000180020334 f   LIBCMT:utility.obj
 0001:0001f384       atexit                     0000000180020384 f   LIBCMT:utility.obj
 0001:0001f39c       ??3@YAXPEAX@Z              000000018002039c f   LIBCMT:delete_scalar.obj
 0001:0001f3a4       ??_V@YAXPEAX@Z             00000001800203a4 f   LIBCMT:delete_array.obj
 0001:0001f3a4       ??3@YAXPEAX_K@Z            00000001800203a4 f   LIBCMT:delete_scalar_size.obj
 0001:0001f708       _DllMainCRTStartup         0000000180020708 f   LIBCMT:dll_dllmain.obj
 0001:0001f748       _guard_check_icall         0000000180020748 f i LIBCMT:checkcfg.obj
 0001:0001f750       ??_Etype_info@@UEAAPEAXI@Z 0000000180020750 f i LIBCMT:std_type_info_static.obj
 0001:0001f750       ??_Gtype_info@@UEAAPEAXI@Z 0000000180020750 f i LIBCMT:std_type_info_static.obj
 0001:0001f77c       __GSHandlerCheck           000000018002077c f   LIBCMT:_gshandler_.obj
 0001:0001f79c       __GSHandlerCheckCommon     000000018002079c f   LIBCMT:_gshandler_.obj
 0001:0001f7f8       __GSHandlerCheck_EH        00000001800207f8 f   LIBCMT:gshandlereh.obj
 0001:0001f8a0       _alloca_probe              00000001800208a0 f   LIBCMT:_chkstk_.obj
 0001:0001f8a0       __chkstk                   00000001800208a0 f   LIBCMT:_chkstk_.obj
 0001:0001f8f4       __raise_securityfailure    00000001800208f4 f   LIBCMT:gs_report.obj
 0001:0001f928       __report_gsfailure         0000000180020928 f   LIBCMT:gs_report.obj
 0001:0001f9fc       __report_rangecheckfailure 00000001800209fc f   LIBCMT:gs_report.obj
 0001:0001fa10       __report_securityfailure   0000000180020a10 f   LIBCMT:gs_report.obj
 0001:0001fb90       __crt_debugger_hook        0000000180020b90 f   LIBCMT:utility_desktop.obj
 0001:0001fb98       __scrt_fastfail            0000000180020b98 f   LIBCMT:utility_desktop.obj
 0001:0001fce0       ??0bad_array_new_length@std@@QEAA@AEBV01@@Z 0000000180020ce0 f i LIBCMT:throw_bad_alloc.obj
 0001:0001fd20       ??0bad_array_new_length@std@@QEAA@XZ 0000000180020d20 f i LIBCMT:throw_bad_alloc.obj
 0001:0001fd40       ?__scrt_throw_std_bad_array_new_length@@YAXXZ 0000000180020d40 f   LIBCMT:throw_bad_alloc.obj
 0001:0001fd60       __isa_available_init       0000000180020d60 f   LIBCMT:_cpu_disp_.obj
 0001:0001ff24       __scrt_is_ucrt_dll_in_use  0000000180020f24 f   LIBCMT:ucrt_detection.obj
 0001:0001ff30       __security_init_cookie     0000000180020f30 f   LIBCMT:gs_support.obj
 0001:0001ffdc       ?__scrt_initialize_type_info@@YAXXZ 0000000180020fdc f   LIBCMT:tncleanup.obj
 0001:0001ffec       ?__scrt_uninitialize_type_info@@YAXXZ 0000000180020fec f   LIBCMT:tncleanup.obj
 0001:0001fff8       __local_stdio_scanf_options 0000000180020ff8 f i LIBCMT:default_local_stdio_options.obj
 0001:00020000       __scrt_initialize_default_local_stdio_options 0000000180021000 f   LIBCMT:default_local_stdio_options.obj
 0001:0002001c       __scrt_get_dyn_tls_init_callback 000000018002101c f   LIBCMT:dyn_tls_init.obj
 0001:00020024       _RTC_Initialize            0000000180021024 f   LIBCMT:_initsect_.obj
 0001:00020070       _RTC_Terminate             0000000180021070 f   LIBCMT:_initsect_.obj
 0001:000200c0       __DestructExceptionObject  00000001800210c0 f   libvcruntime:frame.obj
 0001:00020148       ??0bad_exception@std@@QEAA@AEBV01@@Z 0000000180021148 f i libvcruntime:frame.obj
 0001:00020188       ??0bad_exception@std@@QEAA@XZ 0000000180021188 f i libvcruntime:frame.obj
 0001:00020ad0       ?_CallMemberFunction0@@YAXPEAXP6AX0@Z@Z 0000000180021ad0 f i libvcruntime:frame.obj
 0001:00020ad4       ?_CallMemberFunction1@@YAXPEAXP6AX0@Z0@Z 0000000180021ad4 f i libvcruntime:frame.obj
 0001:00020ae0       ?_CallMemberFunction2@@YAXPEAXP6AX0@Z0H@Z 0000000180021ae0 f i libvcruntime:frame.obj
 0001:00020af0       __AdjustPointer            0000000180021af0 f   libvcruntime:frame.obj
 0001:00020b14       __BuildCatchObject         0000000180021b14 f   libvcruntime:frame.obj
 0001:00020bdc       __BuildCatchObjectHelper   0000000180021bdc f   libvcruntime:frame.obj
 0001:00020dc0       __CxxCallCatchBlock        0000000180021dc0 f   libvcruntime:frame.obj
 0001:00020fac       __FrameUnwindFilter        0000000180021fac f   libvcruntime:frame.obj
 0001:00020ff8       __FrameUnwindToState       0000000180021ff8 f   libvcruntime:frame.obj
 0001:0002118c       __InternalCxxFrameHandler  000000018002218c f   libvcruntime:frame.obj
 0001:000213e4       __TypeMatch                00000001800223e4 f   libvcruntime:frame.obj
 0001:00021524       __std_terminate            0000000180022524 f   libvcruntime:frame.obj
 0001:00021540       memmove                    0000000180022540 f   libvcruntime:memcpy.obj
 0001:00021540       memcpy                     0000000180022540 f   libvcruntime:memcpy.obj
 0001:00021978       _purecall                  0000000180022978 f   libvcruntime:purevirt.obj
 0001:000219b4       memchr                     00000001800229b4 f   libvcruntime:memchr.obj
 0001:000219d0       ?_GetEstablisherFrame@@YAPEA_KPEA_KPEAU_xDISPATCHER_CONTEXT@@PEBU_s_FuncInfo@@0@Z 00000001800229d0 f   libvcruntime:trnsctrl.obj
 0001:00021a9c       ?_GetRangeOfTrysToCheck@@YAPEBU_s_TryBlockMapEntry@@PEA_KPEBU_s_FuncInfo@@HHPEAI2PEAU_xDISPATCHER_CONTEXT@@@Z 0000000180022a9c f   libvcruntime:trnsctrl.obj
 0001:00021bc8       ?__FrameUnwindToEmptyState@@YAXPEA_KPEAU_xDISPATCHER_CONTEXT@@PEBU_s_FuncInfo@@@Z 0000000180022bc8 f   libvcruntime:trnsctrl.obj
 0001:00021c5c       ?__SehTransFilter@@YAHPEAU_EXCEPTION_POINTERS@@PEAUEHExceptionRecord@@PEA_KPEAU_CONTEXT@@PEAU_xDISPATCHER_CONTEXT@@PEBU_s_FuncInfo@@PEAH@Z 0000000180022c5c f   libvcruntime:trnsctrl.obj
 0001:00021cf4       _CallSETranslator          0000000180022cf4 f   libvcruntime:trnsctrl.obj
 0001:00021d4c       _CreateFrameInfo           0000000180022d4c f   libvcruntime:trnsctrl.obj
 0001:00021d88       _FindAndUnlinkFrame        0000000180022d88 f   libvcruntime:trnsctrl.obj
 0001:00021de0       _GetImageBase              0000000180022de0 f   libvcruntime:trnsctrl.obj
 0001:00021df4       _GetThrowImageBase         0000000180022df4 f   libvcruntime:trnsctrl.obj
 0001:00021e08       _IsExceptionObjectToBeDestroyed 0000000180022e08 f   libvcruntime:trnsctrl.obj
 0001:00021e38       _SetImageBase              0000000180022e38 f   libvcruntime:trnsctrl.obj
 0001:00021e50       _SetThrowImageBase         0000000180022e50 f   libvcruntime:trnsctrl.obj
 0001:00021e68       _UnwindNestedFrames        0000000180022e68 f   libvcruntime:trnsctrl.obj
 0001:00021f8c       __CxxFrameHandler3         0000000180022f8c f   libvcruntime:trnsctrl.obj
 0001:0002200c       __std_exception_copy       000000018002300c f   libvcruntime:std_exception.obj
 0001:0002209c       __std_exception_destroy    000000018002309c f   libvcruntime:std_exception.obj
 0001:000220c4       _CxxThrowException         00000001800230c4 f   libvcruntime:throw.obj
 0001:000221b0       memset                     00000001800231b0 f   libvcruntime:memset.obj
 0001:00022360       memcmp                     0000000180023360 f   libvcruntime:memcmp.obj
 0001:000225f0       __vcrt_EventRegister       00000001800235f0 f   libvcruntime:winapi_downlevel.obj
 0001:00022674       __vcrt_EventSetInformation 0000000180023674 f   libvcruntime:winapi_downlevel.obj
 0001:000226f8       __vcrt_EventUnregister     00000001800236f8 f   libvcruntime:winapi_downlevel.obj
 0001:0002274c       __vcrt_EventWriteTransfer  000000018002374c f   libvcruntime:winapi_downlevel.obj
 0001:000227e4       __vcrt_FlsAlloc            00000001800237e4 f   libvcruntime:winapi_downlevel.obj
 0001:00022838       __vcrt_FlsFree             0000000180023838 f   libvcruntime:winapi_downlevel.obj
 0001:0002288c       __vcrt_FlsGetValue         000000018002388c f   libvcruntime:winapi_downlevel.obj
 0001:000228e0       __vcrt_FlsSetValue         00000001800238e0 f   libvcruntime:winapi_downlevel.obj
 0001:00022948       __vcrt_InitializeCriticalSectionEx 0000000180023948 f   libvcruntime:winapi_downlevel.obj
 0001:000229c0       __vcrt_initialize_winapi_thunks 00000001800239c0 f   libvcruntime:winapi_downlevel.obj
 0001:000229f8       __vcrt_uninitialize_winapi_thunks 00000001800239f8 f   libvcruntime:winapi_downlevel.obj
 0001:00022a38       __vcrt_initialize          0000000180023a38 f   libvcruntime:initialization.obj
 0001:00022a70       __vcrt_thread_attach       0000000180023a70 f   libvcruntime:initialization.obj
 0001:00022a84       __vcrt_thread_detach       0000000180023a84 f   libvcruntime:initialization.obj
 0001:00022a98       __vcrt_uninitialize        0000000180023a98 f   libvcruntime:initialization.obj
 0001:00022ac4       __vcrt_uninitialize_critical 0000000180023ac4 f   libvcruntime:initialization.obj
 0001:00022ad4       __C_specific_handler       0000000180023ad4 f   libvcruntime:_chandler_.obj
 0001:00022cc8       __telemetry_main_invoke_trigger 0000000180023cc8 f   libvcruntime:telemetry.obj
 0001:00022de0       __telemetry_main_return_trigger 0000000180023de0 f   libvcruntime:telemetry.obj
 0001:00022ef8       __vcrt_initialize_telemetry_provider 0000000180023ef8 f   libvcruntime:telemetry.obj
 0001:00022f0c       __vcrt_uninitialize_telemetry_provider 0000000180023f0c f   libvcruntime:telemetry.obj
 0001:00022f2c       __std_type_info_compare    0000000180023f2c f   libvcruntime:std_type_info.obj
 0001:00022f54       __std_type_info_destroy_list 0000000180023f54 f   libvcruntime:std_type_info.obj
 0001:00022f80       __vcrt_freefls             0000000180023f80 f   libvcruntime:per_thread_data.obj
 0001:00022fa0       __vcrt_freeptd             0000000180023fa0 f   libvcruntime:per_thread_data.obj
 0001:00022ff0       __vcrt_getptd              0000000180023ff0 f   libvcruntime:per_thread_data.obj
 0001:0002300c       __vcrt_getptd_noexit       000000018002400c f   libvcruntime:per_thread_data.obj
 0001:000230b4       __vcrt_initialize_ptd      00000001800240b4 f   libvcruntime:per_thread_data.obj
 0001:000230f4       __vcrt_uninitialize_ptd    00000001800240f4 f   libvcruntime:per_thread_data.obj
 0001:00023118       ?__GetCurrentState@@YAHPEA_KPEAU_xDISPATCHER_CONTEXT@@PEBU_s_FuncInfo@@@Z 0000000180024118 f   libvcruntime:ehstate.obj
 0001:00023140       ?__GetUnwindTryBlock@@YAHPEA_KPEAU_xDISPATCHER_CONTEXT@@PEBU_s_FuncInfo@@@Z 0000000180024140 f   libvcruntime:ehstate.obj
 0001:0002316c       ?__SetState@@YAXPEA_KPEAU_xDISPATCHER_CONTEXT@@PEBU_s_FuncInfo@@H@Z 000000018002416c f   libvcruntime:ehstate.obj
 0001:00023178       ?__SetUnwindTryBlock@@YAXPEA_KPEAU_xDISPATCHER_CONTEXT@@PEBU_s_FuncInfo@@H@Z 0000000180024178 f   libvcruntime:ehstate.obj
 0001:000231b4       ?__StateFromControlPc@@YAHPEBU_s_FuncInfo@@PEAU_xDISPATCHER_CONTEXT@@@Z 00000001800241b4 f   libvcruntime:ehstate.obj
 0001:000231bc       ?__StateFromIp@@YAHPEBU_s_FuncInfo@@PEAU_xDISPATCHER_CONTEXT@@_J@Z 00000001800241bc f   libvcruntime:ehstate.obj
 0001:00023240       _CallSettingFrame          0000000180024240 f   libvcruntime:handlers.obj
 0001:00023290       _local_unwind              0000000180024290 f   libvcruntime:_jmpuwind_.obj
 0001:000232c0       _NLG_Notify                00000001800242c0 f   libvcruntime:_jmpuwind_.obj
 0001:000232e0       __NLG_Dispatch2            00000001800242e0 f   libvcruntime:_jmpuwind_.obj
 0001:000232f0       __NLG_Return2              00000001800242f0 f   libvcruntime:_jmpuwind_.obj
 0001:000232f4       __vcrt_initialize_pure_virtual_call_handler 00000001800242f4 f   libvcruntime:purevirt_data.obj
 0001:00023318       __vcrt_initialize_locks    0000000180024318 f   libvcruntime:locks.obj
 0001:00023360       __vcrt_uninitialize_locks  0000000180024360 f   libvcruntime:locks.obj
 0001:00023398       abort                      0000000180024398 f   libucrt:abort.obj
 0001:000233f0       _fputc_nolock              00000001800243f0 f   libucrt:fputc.obj
 0001:00023408       fputc                      0000000180024408 f   libucrt:fputc.obj
 0001:00023528       calloc                     0000000180024528 f   libucrt:calloc.obj
 0001:00023530       __acrt_call_reportfault    0000000180024530 f   libucrt:invalid_parameter.obj
 0001:0002368c       __acrt_initialize_invalid_parameter_handler 000000018002468c f   libucrt:invalid_parameter.obj
 0001:00023694       _invalid_parameter         0000000180024694 f   libucrt:invalid_parameter.obj
 0001:0002373c       _invalid_parameter_noinfo  000000018002473c f   libucrt:invalid_parameter.obj
 0001:0002375c       _invalid_parameter_noinfo_noreturn 000000018002475c f   libucrt:invalid_parameter.obj
 0001:0002378c       _invoke_watson             000000018002478c f   libucrt:invalid_parameter.obj
 0001:000237d4       __acrt_stdio_flush_nolock  00000001800247d4 f   libucrt:fflush.obj
 0001:0002384c       _fflush_nolock             000000018002484c f   libucrt:fflush.obj
 0001:00023898       _flushall                  0000000180024898 f   libucrt:fflush.obj
 0001:00023988       fflush                     0000000180024988 f   libucrt:fflush.obj
 0001:000239cc       _fclose_nolock             00000001800249cc f   libucrt:fclose.obj
 0001:00023a50       fclose                     0000000180024a50 f   libucrt:fclose.obj
 0001:00023abc       ??0_LocaleUpdate@@QEAA@QEAU__crt_locale_pointers@@@Z 0000000180024abc f i libucrt:strftime.obj
 0001:00023b4c       _Strftime_l                0000000180024b4c f   libucrt:strftime.obj
 0001:00023cf4       strftime                   0000000180024cf4 f   libucrt:strftime.obj
 0001:00023d10       strcspn                    0000000180024d10 f   libucrt:strcspn.obj
 0001:00023db0       ??$?RV<lambda_7b91131dde12e1c3dfc74ff76b3f2eac>@@AEAV<lambda_dd75445284c072d0bd3768540cc698fa>@@V<lambda_16bc4ecb55b4718497c16bceaea2ceaf>@@@?$__crt_seh_guarded_call@H@@QEAAH$$QEAV<lambda_7b91131dde12e1c3dfc74ff76b3f2eac>@@AEAV<lambda_dd75445284c072d0bd3768540cc698fa>@@$$QEAV<lambda_16bc4ecb55b4718497c16bceaea2ceaf>@@@Z 0000000180024db0 f i libucrt:output.obj
 0001:00023f98       ??$ensure_buffer_is_big_enough@D@formatting_buffer@__crt_stdio_output@@QEAA_N_K@Z 0000000180024f98 f i libucrt:output.obj
 0001:00024044       ??$is_wide_character_specifier@D@__crt_stdio_output@@YA_N_KDW4length_modifier@0@@Z 0000000180025044 f i libucrt:output.obj
 0001:00024074       ??$is_wide_character_specifier@_W@__crt_stdio_output@@YA_N_K_WW4length_modifier@0@@Z 0000000180025074 f i libucrt:output.obj
 0001:000240b8       ??$type_case_integer_parse_into_buffer@I@?$output_processor@_WV?$string_output_adapter@_W@__crt_stdio_output@@V?$standard_base@_WV?$string_output_adapter@_W@__crt_stdio_output@@@2@@__crt_stdio_output@@AEAAXII_N@Z 00000001800250b8 f i libucrt:output.obj
 0001:000240b8       ??$type_case_integer_parse_into_buffer@I@?$output_processor@_WV?$stream_output_adapter@_W@__crt_stdio_output@@V?$standard_base@_WV?$stream_output_adapter@_W@__crt_stdio_output@@@2@@__crt_stdio_output@@AEAAXII_N@Z 00000001800250b8 f i libucrt:output.obj
 0001:000240b8       ??$type_case_integer_parse_into_buffer@I@?$output_processor@DV?$string_output_adapter@D@__crt_stdio_output@@V?$format_validation_base@DV?$string_output_adapter@D@__crt_stdio_output@@@2@@__crt_stdio_output@@AEAAXII_N@Z 00000001800250b8 f i libucrt:output.obj
 0001:00024154       ??$type_case_integer_parse_into_buffer@_K@?$output_processor@DV?$string_output_adapter@D@__crt_stdio_output@@V?$format_validation_base@DV?$string_output_adapter@D@__crt_stdio_output@@@2@@__crt_stdio_output@@AEAAX_KI_N@Z 0000000180025154 f i libucrt:output.obj
 0001:00024154       ??$type_case_integer_parse_into_buffer@_K@?$output_processor@_WV?$string_output_adapter@_W@__crt_stdio_output@@V?$standard_base@_WV?$string_output_adapter@_W@__crt_stdio_output@@@2@@__crt_stdio_output@@AEAAX_KI_N@Z 0000000180025154 f i libucrt:output.obj
 0001:00024154       ??$type_case_integer_parse_into_buffer@_K@?$output_processor@_WV?$stream_output_adapter@_W@__crt_stdio_output@@V?$standard_base@_WV?$stream_output_adapter@_W@__crt_stdio_output@@@2@@__crt_stdio_output@@AEAAX_KI_N@Z 0000000180025154 f i libucrt:output.obj
 0001:000241f0       ??$write_multiple_characters@V?$stream_output_adapter@_W@__crt_stdio_output@@D@__crt_stdio_output@@YAXAEBV?$stream_output_adapter@_W@0@DHQEAH@Z 00000001800251f0 f i libucrt:output.obj
 0001:00024280       ??$write_multiple_characters@V?$string_output_adapter@D@__crt_stdio_output@@D@__crt_stdio_output@@YAXAEBV?$string_output_adapter@D@0@DHQEAH@Z 0000000180025280 f i libucrt:output.obj
 0001:000242dc       ??$write_multiple_characters@V?$string_output_adapter@_W@__crt_stdio_output@@D@__crt_stdio_output@@YAXAEBV?$string_output_adapter@_W@0@DHQEAH@Z 00000001800252dc f i libucrt:output.obj
 0001:0002434c       ??0?$output_processor@DV?$string_output_adapter@D@__crt_stdio_output@@V?$format_validation_base@DV?$string_output_adapter@D@__crt_stdio_output@@@2@@__crt_stdio_output@@QEAA@AEBV?$string_output_adapter@D@1@_KQEBDQEAU__crt_locale_pointers@@QEAD@Z 000000018002534c f i libucrt:output.obj
 0001:000243c8       ??0?$output_processor@_WV?$string_output_adapter@_W@__crt_stdio_output@@V?$standard_base@_WV?$string_output_adapter@_W@__crt_stdio_output@@@2@@__crt_stdio_output@@QEAA@AEBV?$string_output_adapter@_W@1@_KQEB_WQEAU__crt_locale_pointers@@QEAD@Z 00000001800253c8 f i libucrt:output.obj
 0001:000243c8       ??0?$output_processor@_WV?$stream_output_adapter@_W@__crt_stdio_output@@V?$standard_base@_WV?$stream_output_adapter@_W@__crt_stdio_output@@@2@@__crt_stdio_output@@QEAA@AEBV?$stream_output_adapter@_W@1@_KQEB_WQEAU__crt_locale_pointers@@QEAD@Z 00000001800253c8 f i libucrt:output.obj
 0001:00024538       ?force_decimal_point@__crt_stdio_output@@YAXPEADQEAU__crt_locale_pointers@@@Z 0000000180025538 f i libucrt:output.obj
 0001:000245a8       ?parse_int_from_format_string@?$output_processor@DV?$string_output_adapter@D@__crt_stdio_output@@V?$format_validation_base@DV?$string_output_adapter@D@__crt_stdio_output@@@2@@__crt_stdio_output@@AEAA_NQEAH@Z 00000001800255a8 f i libucrt:output.obj
 0001:0002462c       ?parse_int_from_format_string@?$output_processor@_WV?$stream_output_adapter@_W@__crt_stdio_output@@V?$standard_base@_WV?$stream_output_adapter@_W@__crt_stdio_output@@@2@@__crt_stdio_output@@AEAA_NQEAH@Z 000000018002562c f i libucrt:output.obj
 0001:0002462c       ?parse_int_from_format_string@?$output_processor@_WV?$string_output_adapter@_W@__crt_stdio_output@@V?$standard_base@_WV?$string_output_adapter@_W@__crt_stdio_output@@@2@@__crt_stdio_output@@AEAA_NQEAH@Z 000000018002562c f i libucrt:output.obj
 0001:000246ac       ?process@?$output_processor@DV?$string_output_adapter@D@__crt_stdio_output@@V?$format_validation_base@DV?$string_output_adapter@D@__crt_stdio_output@@@2@@__crt_stdio_output@@QEAAHXZ 00000001800256ac f i libucrt:output.obj
 0001:000248c0       ?process@?$output_processor@_WV?$stream_output_adapter@_W@__crt_stdio_output@@V?$standard_base@_WV?$stream_output_adapter@_W@__crt_stdio_output@@@2@@__crt_stdio_output@@QEAAHXZ 00000001800258c0 f i libucrt:output.obj
 0001:00024b38       ?process@?$output_processor@_WV?$string_output_adapter@_W@__crt_stdio_output@@V?$standard_base@_WV?$string_output_adapter@_W@__crt_stdio_output@@@2@@__crt_stdio_output@@QEAAHXZ 0000000180025b38 f i libucrt:output.obj
 0001:00024db4       ?state_case_normal@?$output_processor@DV?$string_output_adapter@D@__crt_stdio_output@@V?$format_validation_base@DV?$string_output_adapter@D@__crt_stdio_output@@@2@@__crt_stdio_output@@AEAA_NXZ 0000000180025db4 f i libucrt:output.obj
 0001:00024e28       ?state_case_normal_tchar@?$output_processor@DV?$string_output_adapter@D@__crt_stdio_output@@V?$format_validation_base@DV?$string_output_adapter@D@__crt_stdio_output@@@2@@__crt_stdio_output@@AEAA_ND@Z 0000000180025e28 f i libucrt:output.obj
 0001:00024ec0       ?state_case_size@?$output_processor@DV?$string_output_adapter@D@__crt_stdio_output@@V?$format_validation_base@DV?$string_output_adapter@D@__crt_stdio_output@@@2@@__crt_stdio_output@@AEAA_NXZ 0000000180025ec0 f i libucrt:output.obj
 0001:0002503c       ?state_case_size@?$output_processor@_WV?$stream_output_adapter@_W@__crt_stdio_output@@V?$standard_base@_WV?$stream_output_adapter@_W@__crt_stdio_output@@@2@@__crt_stdio_output@@AEAA_NXZ 000000018002603c f i libucrt:output.obj
 0001:000251e0       ?state_case_size@?$output_processor@_WV?$string_output_adapter@_W@__crt_stdio_output@@V?$standard_base@_WV?$string_output_adapter@_W@__crt_stdio_output@@@2@@__crt_stdio_output@@AEAA_NXZ 00000001800261e0 f i libucrt:output.obj
 0001:00025384       ?state_case_type@?$output_processor@DV?$string_output_adapter@D@__crt_stdio_output@@V?$format_validation_base@DV?$string_output_adapter@D@__crt_stdio_output@@@2@@__crt_stdio_output@@AEAA_NXZ 0000000180026384 f i libucrt:output.obj
 0001:00025600       ?state_case_type@?$output_processor@_WV?$stream_output_adapter@_W@__crt_stdio_output@@V?$standard_base@_WV?$stream_output_adapter@_W@__crt_stdio_output@@@2@@__crt_stdio_output@@AEAA_NXZ 0000000180026600 f i libucrt:output.obj
 0001:000258cc       ?state_case_type@?$output_processor@_WV?$string_output_adapter@_W@__crt_stdio_output@@V?$standard_base@_WV?$string_output_adapter@_W@__crt_stdio_output@@@2@@__crt_stdio_output@@AEAA_NXZ 00000001800268cc f i libucrt:output.obj
 0001:00025b98       ?type_case_Z@?$output_processor@DV?$string_output_adapter@D@__crt_stdio_output@@V?$format_validation_base@DV?$string_output_adapter@D@__crt_stdio_output@@@2@@__crt_stdio_output@@AEAA_NXZ 0000000180026b98 f i libucrt:output.obj
 0001:00025c18       ?type_case_Z@?$output_processor@_WV?$string_output_adapter@_W@__crt_stdio_output@@V?$standard_base@_WV?$string_output_adapter@_W@__crt_stdio_output@@@2@@__crt_stdio_output@@AEAA_NXZ 0000000180026c18 f i libucrt:output.obj
 0001:00025c18       ?type_case_Z@?$output_processor@_WV?$stream_output_adapter@_W@__crt_stdio_output@@V?$standard_base@_WV?$stream_output_adapter@_W@__crt_stdio_output@@@2@@__crt_stdio_output@@AEAA_NXZ 0000000180026c18 f i libucrt:output.obj
 0001:00025c98       ?type_case_a@?$output_processor@DV?$string_output_adapter@D@__crt_stdio_output@@V?$format_validation_base@DV?$string_output_adapter@D@__crt_stdio_output@@@2@@__crt_stdio_output@@AEAA_NXZ 0000000180026c98 f i libucrt:output.obj
 0001:00025eb4       ?type_case_a@?$output_processor@_WV?$stream_output_adapter@_W@__crt_stdio_output@@V?$standard_base@_WV?$stream_output_adapter@_W@__crt_stdio_output@@@2@@__crt_stdio_output@@AEAA_NXZ 0000000180026eb4 f i libucrt:output.obj
 0001:00025eb4       ?type_case_a@?$output_processor@_WV?$string_output_adapter@_W@__crt_stdio_output@@V?$standard_base@_WV?$string_output_adapter@_W@__crt_stdio_output@@@2@@__crt_stdio_output@@AEAA_NXZ 0000000180026eb4 f i libucrt:output.obj
 0001:000260f8       ?type_case_c_tchar@?$output_processor@DV?$string_output_adapter@D@__crt_stdio_output@@V?$format_validation_base@DV?$string_output_adapter@D@__crt_stdio_output@@@2@@__crt_stdio_output@@AEAA_ND@Z 00000001800270f8 f i libucrt:output.obj
 0001:000261ac       ?type_case_c_tchar@?$output_processor@_WV?$string_output_adapter@_W@__crt_stdio_output@@V?$standard_base@_WV?$string_output_adapter@_W@__crt_stdio_output@@@2@@__crt_stdio_output@@AEAA_N_W@Z 00000001800271ac f i libucrt:output.obj
 0001:000261ac       ?type_case_c_tchar@?$output_processor@_WV?$stream_output_adapter@_W@__crt_stdio_output@@V?$standard_base@_WV?$stream_output_adapter@_W@__crt_stdio_output@@@2@@__crt_stdio_output@@AEAA_N_W@Z 00000001800271ac f i libucrt:output.obj
 0001:00026254       ?type_case_integer@?$output_processor@_WV?$stream_output_adapter@_W@__crt_stdio_output@@V?$standard_base@_WV?$stream_output_adapter@_W@__crt_stdio_output@@@2@@__crt_stdio_output@@AEAA_NI_N@Z 0000000180027254 f i libucrt:output.obj
 0001:00026254       ?type_case_integer@?$output_processor@_WV?$string_output_adapter@_W@__crt_stdio_output@@V?$standard_base@_WV?$string_output_adapter@_W@__crt_stdio_output@@@2@@__crt_stdio_output@@AEAA_NI_N@Z 0000000180027254 f i libucrt:output.obj
 0001:00026254       ?type_case_integer@?$output_processor@DV?$string_output_adapter@D@__crt_stdio_output@@V?$format_validation_base@DV?$string_output_adapter@D@__crt_stdio_output@@@2@@__crt_stdio_output@@AEAA_NI_N@Z 0000000180027254 f i libucrt:output.obj
 0001:000263f4       ?type_case_n@?$output_processor@_WV?$stream_output_adapter@_W@__crt_stdio_output@@V?$standard_base@_WV?$stream_output_adapter@_W@__crt_stdio_output@@@2@@__crt_stdio_output@@AEAA_NXZ 00000001800273f4 f i libucrt:output.obj
 0001:000263f4       ?type_case_n@?$output_processor@DV?$string_output_adapter@D@__crt_stdio_output@@V?$format_validation_base@DV?$string_output_adapter@D@__crt_stdio_output@@@2@@__crt_stdio_output@@AEAA_NXZ 00000001800273f4 f i libucrt:output.obj
 0001:000263f4       ?type_case_n@?$output_processor@_WV?$string_output_adapter@_W@__crt_stdio_output@@V?$standard_base@_WV?$string_output_adapter@_W@__crt_stdio_output@@@2@@__crt_stdio_output@@AEAA_NXZ 00000001800273f4 f i libucrt:output.obj
 0001:000264d0       ?type_case_s@?$output_processor@DV?$string_output_adapter@D@__crt_stdio_output@@V?$format_validation_base@DV?$string_output_adapter@D@__crt_stdio_output@@@2@@__crt_stdio_output@@AEAA_NXZ 00000001800274d0 f i libucrt:output.obj
 0001:00026560       ?type_case_s@?$output_processor@_WV?$string_output_adapter@_W@__crt_stdio_output@@V?$standard_base@_WV?$string_output_adapter@_W@__crt_stdio_output@@@2@@__crt_stdio_output@@AEAA_NXZ 0000000180027560 f i libucrt:output.obj
 0001:00026560       ?type_case_s@?$output_processor@_WV?$stream_output_adapter@_W@__crt_stdio_output@@V?$standard_base@_WV?$stream_output_adapter@_W@__crt_stdio_output@@@2@@__crt_stdio_output@@AEAA_NXZ 0000000180027560 f i libucrt:output.obj
 0001:00026628       ?write_stored_string_tchar@?$output_processor@DV?$string_output_adapter@D@__crt_stdio_output@@V?$format_validation_base@DV?$string_output_adapter@D@__crt_stdio_output@@@2@@__crt_stdio_output@@AEAA_ND@Z 0000000180027628 f i libucrt:output.obj
 0001:00026700       ?write_stored_string_tchar@?$output_processor@_WV?$stream_output_adapter@_W@__crt_stdio_output@@V?$standard_base@_WV?$stream_output_adapter@_W@__crt_stdio_output@@@2@@__crt_stdio_output@@AEAA_N_W@Z 0000000180027700 f i libucrt:output.obj
 0001:000267ec       ?write_stored_string_tchar@?$output_processor@_WV?$string_output_adapter@_W@__crt_stdio_output@@V?$standard_base@_WV?$string_output_adapter@_W@__crt_stdio_output@@@2@@__crt_stdio_output@@AEAA_N_W@Z 00000001800277ec f i libucrt:output.obj
 0001:000268dc       ?write_string@?$stream_output_adapter@_W@__crt_stdio_output@@QEBAXQEB_WHQEAH1@Z 00000001800278dc f i libucrt:output.obj
 0001:000269e8       ?write_string@?$string_output_adapter@D@__crt_stdio_output@@QEBAXQEBDHQEAH1@Z 00000001800279e8 f i libucrt:output.obj
 0001:00026aa4       ?write_string@?$string_output_adapter@_W@__crt_stdio_output@@QEBAXQEB_WHQEAH1@Z 0000000180027aa4 f i libucrt:output.obj
 0001:00026b64       __stdio_common_vfwprintf   0000000180027b64 f   libucrt:output.obj
 0001:00026bf0       __stdio_common_vsprintf_s  0000000180027bf0 f   libucrt:output.obj
 0001:00026c54       __stdio_common_vswprintf   0000000180027c54 f   libucrt:output.obj
 0001:00026e8c       _fgetc_nolock              0000000180027e8c f   libucrt:fgetc.obj
 0001:00026ed0       fgetc                      0000000180027ed0 f   libucrt:fgetc.obj
 0001:00026fd4       __acrt_initialize_stdio    0000000180027fd4 f   libucrt:_file.obj
 0001:000270f4       __acrt_iob_func            00000001800280f4 f   libucrt:_file.obj
 0001:00027108       __acrt_uninitialize_stdio  0000000180028108 f   libucrt:_file.obj
 0001:00027164       _get_stream_buffer_pointers 0000000180028164 f   libucrt:_file.obj
 0001:000271ac       _lock_file                 00000001800281ac f   libucrt:_file.obj
 0001:000271b8       _unlock_file               00000001800281b8 f   libucrt:_file.obj
 0001:000271c4       localeconv                 00000001800281c4 f   libucrt:localeconv.obj
 0001:000271f8       ??$?RV<lambda_5d4c3fee44080f75d5d9762853974fe0>@@AEAV<lambda_532e024f4337e6fc7ad266c2bef9f4ed>@@V<lambda_c87bdc10097eb2402edb8ba9bdf0697b>@@@?$__crt_seh_guarded_call@_K@@QEAA_K$$QEAV<lambda_5d4c3fee44080f75d5d9762853974fe0>@@AEAV<lambda_532e024f4337e6fc7ad266c2bef9f4ed>@@$$QEAV<lambda_c87bdc10097eb2402edb8ba9bdf0697b>@@@Z 00000001800281f8 f i libucrt:fwrite.obj
 0001:0002729c       _fwrite_nolock             000000018002829c f   libucrt:fwrite.obj
 0001:00027438       fwrite                     0000000180028438 f   libucrt:fwrite.obj
 0001:000274bc       __acrt_errno_from_os_error 00000001800284bc f   libucrt:errno.obj
 0001:00027504       __acrt_errno_map_os_error  0000000180028504 f   libucrt:errno.obj
 0001:00027554       __doserrno                 0000000180028554 f   libucrt:errno.obj
 0001:00027574       _errno                     0000000180028574 f   libucrt:errno.obj
 0001:00027594       fgetpos                    0000000180028594 f   libucrt:fgetpos.obj
 0001:000275e0       ??$?RV<lambda_7a5ef57ff966f610505f1d28a3d40618>@@AEAV<lambda_b721fa326cdb32351d23dfa67958c160>@@V<lambda_5e0fb27672408a07956fe59e48ccb2aa>@@@?$__crt_seh_guarded_call@H@@QEAAH$$QEAV<lambda_7a5ef57ff966f610505f1d28a3d40618>@@AEAV<lambda_b721fa326cdb32351d23dfa67958c160>@@$$QEAV<lambda_5e0fb27672408a07956fe59e48ccb2aa>@@@Z 00000001800285e0 f i libucrt:setvbuf.obj
 0001:00027710       setvbuf                    0000000180028710 f   libucrt:setvbuf.obj
 0001:00027848       _time64                    0000000180028848 f   libucrt:time.obj
 0001:00027ba4       _localtime64               0000000180028ba4 f   libucrt:localtime.obj
 0001:00027bec       free                       0000000180028bec f   libucrt:free.obj
 0001:00027bf4       ??$is_overflow_condition@K@__crt_strtox@@YA_NIK@Z 0000000180028bf4 f i libucrt:atox.obj
 0001:00027c20       ??$make_c_string_character_source@DPEAPEAD@__crt_strtox@@YA?AV?$c_string_character_source@D@0@QEBDQEAPEAD@Z 0000000180028c20 f i libucrt:strtox.obj
 0001:00027c20       ??$make_c_string_character_source@_WPEAPEA_W@__crt_strtox@@YA?AV?$c_string_character_source@_W@0@QEB_WQEAPEA_W@Z 0000000180028c20 f i libucrt:strtox.obj
 0001:00027c20       ??$make_c_string_character_source@_W$$T@__crt_strtox@@YA?AV?$c_string_character_source@_W@0@QEB_W$$T@Z 0000000180028c20 f i libucrt:atox.obj
 0001:00027c20       ??$make_c_string_character_source@D$$T@__crt_strtox@@YA?AV?$c_string_character_source@D@0@QEBD$$T@Z 0000000180028c20 f i libucrt:atox.obj
 0001:00027c34       ??$parse_integer@KV?$c_string_character_source@D@__crt_strtox@@@__crt_strtox@@YAKQEAU__crt_locale_pointers@@V?$c_string_character_source@D@0@H_N@Z 0000000180028c34 f i libucrt:atox.obj
 0001:00027f48       ??$parse_integer@KV?$c_string_character_source@_W@__crt_strtox@@@__crt_strtox@@YAKQEAU__crt_locale_pointers@@V?$c_string_character_source@_W@0@H_N@Z 0000000180028f48 f i libucrt:atox.obj
 0001:0002861c       _wtol                      000000018002961c f   libucrt:atox.obj
 0001:00028648       atol                       0000000180029648 f   libucrt:atox.obj
 0001:00028648       atoi                       0000000180029648 f   libucrt:atox.obj
 0001:00028674       _ungetc_nolock             0000000180029674 f   libucrt:ungetc.obj
 0001:00028784       ungetc                     0000000180029784 f   libucrt:ungetc.obj
 0001:000287e4       frexp                      00000001800297e4 f   libucrt:frexp.obj
 0001:00028954       ??$parse_floating_point@V?$c_string_character_source@D@__crt_strtox@@N@__crt_strtox@@YA?AW4SLD_STATUS@@QEAU__crt_locale_pointers@@V?$c_string_character_source@D@0@QEAN@Z 0000000180029954 f i libucrt:atof.obj
 0001:000289f4       ??$parse_floating_point_from_source@V?$c_string_character_source@D@__crt_strtox@@@__crt_strtox@@YA?AW4floating_point_parse_result@0@QEAU__crt_locale_pointers@@AEAV?$c_string_character_source@D@0@AEAUfloating_point_string@0@@Z 00000001800299f4 f i libucrt:atof.obj
 0001:00028ee0       ??$parse_floating_point_possible_infinity@DV?$c_string_character_source@D@__crt_strtox@@PEBD@__crt_strtox@@YA?AW4floating_point_parse_result@0@AEADAEAV?$c_string_character_source@D@0@PEBD@Z 0000000180029ee0 f i libucrt:atof.obj
 0001:00028ff8       ??$parse_floating_point_possible_nan@DV?$c_string_character_source@D@__crt_strtox@@PEBD@__crt_strtox@@YA?AW4floating_point_parse_result@0@AEADAEAV?$c_string_character_source@D@0@PEBD@Z 0000000180029ff8 f i libucrt:atof.obj
 0001:0002918c       ??$parse_floating_point_possible_nan_is_ind@DV?$c_string_character_source@D@__crt_strtox@@@__crt_strtox@@YA_NAEADAEAV?$c_string_character_source@D@0@@Z 000000018002a18c f i libucrt:atof.obj
 0001:000291d4       ??$parse_floating_point_possible_nan_is_snan@DV?$c_string_character_source@D@__crt_strtox@@@__crt_strtox@@YA_NAEADAEAV?$c_string_character_source@D@0@@Z 000000018002a1d4 f i libucrt:atof.obj
 0001:0002921c       ??$parse_floating_point_write_result@N@__crt_strtox@@YA?AW4SLD_STATUS@@W4floating_point_parse_result@0@AEBUfloating_point_string@0@QEAN@Z 000000018002a21c f i libucrt:atof.obj
 0001:00029390       ?as_double@floating_point_value@__crt_strtox@@QEBAAEANXZ 000000018002a390 f i libucrt:atof.obj
 0001:000293cc       ?as_float@floating_point_value@__crt_strtox@@QEBAAEAMXZ 000000018002a3cc f i libucrt:atof.obj
 0001:00029408       ?assemble_floating_point_value@__crt_strtox@@YA?AW4SLD_STATUS@@_KH_N1AEBVfloating_point_value@1@@Z 000000018002a408 f i libucrt:atof.obj
 0001:000297bc       ?assemble_floating_point_value_from_big_integer@__crt_strtox@@YA?AW4SLD_STATUS@@AEBUbig_integer@1@I_N1AEBVfloating_point_value@1@@Z 000000018002a7bc f i libucrt:atof.obj
 0001:00029948       ?convert_decimal_string_to_floating_type_common@__crt_strtox@@YA?AW4SLD_STATUS@@AEBUfloating_point_string@1@AEBVfloating_point_value@1@@Z 000000018002a948 f i libucrt:atof.obj
 0001:0002b70c       ?convert_hexadecimal_string_to_floating_type_common@__crt_strtox@@YA?AW4SLD_STATUS@@AEBUfloating_point_string@1@AEBVfloating_point_value@1@@Z 000000018002c70c f i libucrt:atof.obj
 0001:0002b7c0       ?divide@__crt_strtox@@YA_KAEAUbig_integer@1@AEBU21@@Z 000000018002c7c0 f i libucrt:atof.obj
 0001:0002bc90       atof                       000000018002cc90 f   libucrt:atof.obj
 0001:0002bc98       isdigit                    000000018002cc98 f i libucrt:_ctype.obj
 0001:0002bd0c       islower                    000000018002cd0c f i libucrt:_ctype.obj
 0001:0002bd80       isspace                    000000018002cd80 f i libucrt:_ctype.obj
 0001:0002bdf4       isupper                    000000018002cdf4 f i libucrt:_ctype.obj
 0001:0002be68       fsetpos                    000000018002ce68 f   libucrt:fsetpos.obj
 0001:0002c114       _fseeki64                  000000018002d114 f   libucrt:fseek.obj
 0001:0002c11c       fseek                      000000018002d11c f   libucrt:fseek.obj
 0001:0002cb0c       ??$ftprintf@PEAU_iobuf@@PEB_WAEBQEB_WAEBQEB_WAEBI@?$__crt_char_traits@_W@@SAH$$QEAPEAU_iobuf@@$$QEAPEB_WAEBQEB_W2AEBI@Z 000000018002db0c f i libucrt:assert.obj
 0001:0002cb34       _wassert                   000000018002db34 f   libucrt:assert.obj
 0001:0002cbb8       fwprintf                   000000018002dbb8 f i libucrt:assert.obj
 0001:0002cbfc       swprintf                   000000018002dbfc f i libucrt:assert.obj
 0001:0002cc50       malloc                     000000018002dc50 f   libucrt:malloc.obj
 0001:0002cc58       __ascii_stricmp            000000018002dc58 f   libucrt:stricmp.obj
 0001:0002cc94       _stricmp                   000000018002dc94 f   libucrt:stricmp.obj
 0001:0002ccdc       _stricmp_l                 000000018002dcdc f   libucrt:stricmp.obj
 0001:0002cd90       __acrt_initialize_locks    000000018002dd90 f   libucrt:locks.obj
 0001:0002cdd8       __acrt_lock                000000018002ddd8 f   libucrt:locks.obj
 0001:0002cdf4       __acrt_uninitialize_locks  000000018002ddf4 f   libucrt:locks.obj
 0001:0002ce2c       __acrt_unlock              000000018002de2c f   libucrt:locks.obj
 0001:0002ce48       _lock_locales              000000018002de48 f   libucrt:locks.obj
 0001:0002ce58       _unlock_locales            000000018002de58 f   libucrt:locks.obj
 0001:0002cf50       setlocale                  000000018002df50 f   libucrt:setlocale.obj
 0001:0002d1ec       _fsopen                    000000018002e1ec f   libucrt:fopen.obj
 0001:0002d1f4       _calloc_base               000000018002e1f4 f   libucrt:calloc_base.obj
 0001:0002d26c       __pctype_func              000000018002e26c f   libucrt:ctype.obj
 0001:0002d29c       _wcsdup                    000000018002e29c f   libucrt:wcsdup.obj
 0001:0002d320       ___lc_codepage_func        000000018002e320 f   libucrt:initctype.obj
 0001:0002d350       ___lc_locale_name_func     000000018002e350 f   libucrt:initctype.obj
 0001:0002d384       ___mb_cur_max_func         000000018002e384 f   libucrt:initctype.obj
 0001:0002d3b4       __acrt_locale_initialize_ctype 000000018002e3b4 f   libucrt:initctype.obj
 0001:0002da00       _ismbblead                 000000018002ea00 f   libucrt:ismbbyte.obj
 0001:0002da14       _malloc_base               000000018002ea14 f   libucrt:malloc_base.obj
 0001:0002da74       _realloc_base              000000018002ea74 f   libucrt:realloc_base.obj
 0001:0002daf8       __strncnt                  000000018002eaf8 f   libucrt:strncnt.obj
 0001:0002db10       _free_base                 000000018002eb10 f   libucrt:free_base.obj
 0001:0002db50       ??$__crt_time_is_leap_year@H@@YA_NH@Z 000000018002eb50 f i libucrt:wcsftime.obj
 0001:0002f2f8       _Wcsftime_l                00000001800302f8 f   libucrt:wcsftime.obj
 0001:0002f4ec       _tolower_l                 00000001800304ec f   libucrt:tolower_toupper.obj
 0001:0002f62c       tolower                    000000018003062c f   libucrt:tolower_toupper.obj
 0001:0002f658       wcscpy_s                   0000000180030658 f   libucrt:wcscpy_s.obj
 0001:0002f6c0       strnlen                    00000001800306c0 f   libucrt:strnlen.obj
 0001:0002f81c       wcsnlen                    000000018003081c f   libucrt:strnlen.obj
 0001:0002fa0c       __acrt_initialize_new_handler 0000000180030a0c f   libucrt:new_handler.obj
 0001:0002fa14       _callnewh                  0000000180030a14 f   libucrt:new_handler.obj
 0001:0002fa54       _query_new_handler         0000000180030a54 f   libucrt:new_handler.obj
 0001:0002fa88       _seh_filter_dll            0000000180030a88 f   libucrt:exception_filter.obj
 0001:0002fa9c       _seh_filter_exe            0000000180030a9c f   libucrt:exception_filter.obj
 0001:0002fe5c       __acrt_initialize_thread_local_exit_callback 0000000180030e5c f   libucrt:exit.obj
 0001:0002fe64       _cexit                     0000000180030e64 f   libucrt:exit.obj
 0001:0002fe74       _exit                      0000000180030e74 f   libucrt:exit.obj
 0001:0002fe80       _is_c_termination_complete 0000000180030e80 f   libucrt:exit.obj
 0001:00030188       __dcrt_get_or_create_narrow_environment_nolock 0000000180031188 f   libucrt:environment_initialization.obj
 0001:00030190       __dcrt_uninitialize_environments_nolock 0000000180031190 f   libucrt:environment_initialization.obj
 0001:000301c8       _initialize_narrow_environment 00000001800311c8 f   libucrt:environment_initialization.obj
 0001:000301d0       ??$?RV<lambda_b8c45f8f788dd370798f47cfe8ac3a86>@@AEAV<lambda_4e60a939b0d047cfe11ddc22648dfba9>@@V<lambda_332c3edc96d0294ec56c57d38c1cdfd5>@@@?$__crt_seh_guarded_call@H@@QEAAH$$QEAV<lambda_b8c45f8f788dd370798f47cfe8ac3a86>@@AEAV<lambda_4e60a939b0d047cfe11ddc22648dfba9>@@$$QEAV<lambda_332c3edc96d0294ec56c57d38c1cdfd5>@@@Z 00000001800311d0 f i libucrt:onexit.obj
 0001:0003020c       ??$?RV<lambda_e24bbb7b643b32fcea6fa61b31d4c984>@@AEAV<lambda_275893d493268fdec8709772e3fcec0e>@@V<lambda_9d71df4d7cf3f480f8d633942495c3b0>@@@?$__crt_seh_guarded_call@H@@QEAAH$$QEAV<lambda_e24bbb7b643b32fcea6fa61b31d4c984>@@AEAV<lambda_275893d493268fdec8709772e3fcec0e>@@$$QEAV<lambda_9d71df4d7cf3f480f8d633942495c3b0>@@@Z 000000018003120c f i libucrt:onexit.obj
 0001:00030588       _crt_atexit                0000000180031588 f   libucrt:onexit.obj
 0001:00030598       _execute_onexit_table      0000000180031598 f   libucrt:onexit.obj
 0001:000305d4       _initialize_onexit_table   00000001800315d4 f   libucrt:onexit.obj
 0001:00030614       _register_onexit_function  0000000180031614 f   libucrt:onexit.obj
 0001:00030790       __acrt_initialize          0000000180031790 f   libucrt:initialization.obj
 0001:000307a4       __acrt_thread_attach       00000001800317a4 f   libucrt:initialization.obj
 0001:000307b8       __acrt_thread_detach       00000001800317b8 f   libucrt:initialization.obj
 0001:000307c8       __acrt_uninitialize        00000001800317c8 f   libucrt:initialization.obj
 0001:000307dc       __acrt_uninitialize_critical 00000001800317dc f   libucrt:initialization.obj
 0001:000307ec       _initterm                  00000001800317ec f   libucrt:initterm.obj
 0001:00030864       _initterm_e                0000000180031864 f   libucrt:initterm.obj
 0001:000308b0       terminate                  00000001800318b0 f   libucrt:terminate.obj
 0001:000308d8       strcpy_s                   00000001800318d8 f   libucrt:strcpy_s.obj
 0001:00030938       ??$?RV<lambda_c36588078e9f5dfd39652860aa6b3aaf>@@AEAV<lambda_ec61778202f4f5fc7e7711acc23c3bca>@@V<lambda_dc9d2797ccde5d239b4a0efae8ebd7db>@@@?$__crt_seh_guarded_call@P6AXH@Z@@QEAAP6AXH@Z$$QEAV<lambda_c36588078e9f5dfd39652860aa6b3aaf>@@AEAV<lambda_ec61778202f4f5fc7e7711acc23c3bca>@@$$QEAV<lambda_dc9d2797ccde5d239b4a0efae8ebd7db>@@@Z 0000000180031938 f i libucrt:signal.obj
 0001:00030980       __acrt_get_sigabrt_handler 0000000180031980 f   libucrt:signal.obj
 0001:000309b0       __acrt_initialize_signal_handlers 00000001800319b0 f   libucrt:signal.obj
 0001:000309d0       raise                      00000001800319d0 f   libucrt:signal.obj
 0001:00030c6c       _fileno                    0000000180031c6c f   libucrt:fileno.obj
 0001:00030ea4       __acrt_stdio_flush_and_write_narrow_nolock 0000000180031ea4 f   libucrt:_flsbuf.obj
 0001:00030f8c       __acrt_stdio_flush_and_write_wide_nolock 0000000180031f8c f   libucrt:_flsbuf.obj
 0001:00031260       __acrt_initialize_lowio    0000000180032260 f   libucrt:ioinit.obj
 0001:0003129c       __acrt_uninitialize_lowio  000000018003229c f   libucrt:ioinit.obj
 0001:000312dc       ??$?RV<lambda_46352004c1216016012b18bd6f87e700>@@AEAV<lambda_3bd07e1a1191394380780325891bf33f>@@V<lambda_334532d3f185bcaa59b5be82d7d22bff>@@@?$__crt_seh_guarded_call@X@@QEAAX$$QEAV<lambda_46352004c1216016012b18bd6f87e700>@@AEAV<lambda_3bd07e1a1191394380780325891bf33f>@@$$QEAV<lambda_334532d3f185bcaa59b5be82d7d22bff>@@@Z 00000001800322dc f i libucrt:per_thread_data.obj
 0001:0003133c       ??$?RV<lambda_5e887d1dcbef67a5eb4283622ba103bf>@@AEAV<lambda_4466841279450cc726390878d4a41900>@@V<lambda_341c25c0346d94847f1f3c463c57e077>@@@?$__crt_seh_guarded_call@X@@QEAAX$$QEAV<lambda_5e887d1dcbef67a5eb4283622ba103bf>@@AEAV<lambda_4466841279450cc726390878d4a41900>@@$$QEAV<lambda_341c25c0346d94847f1f3c463c57e077>@@@Z 000000018003233c f i libucrt:per_thread_data.obj
 0001:00031384       ??$?RV<lambda_72d1df2b273a38828b1ce30cbf4cdab5>@@AEAV<lambda_876a65b173b8412d3a47c70a915b0cf4>@@V<lambda_41932305e351933ebe8f8be3ed8bb5dc>@@@?$__crt_seh_guarded_call@X@@QEAAX$$QEAV<lambda_72d1df2b273a38828b1ce30cbf4cdab5>@@AEAV<lambda_876a65b173b8412d3a47c70a915b0cf4>@@$$QEAV<lambda_41932305e351933ebe8f8be3ed8bb5dc>@@@Z 0000000180032384 f i libucrt:per_thread_data.obj
 0001:000313c4       ??$?RV<lambda_fb3a7dec4e47f37f22dae91bb15c9095>@@AEAV<lambda_698284760c8add0bfb0756c19673e34b>@@V<lambda_dfb8eca1e75fef3034a8fb18dd509707>@@@?$__crt_seh_guarded_call@X@@QEAAX$$QEAV<lambda_fb3a7dec4e47f37f22dae91bb15c9095>@@AEAV<lambda_698284760c8add0bfb0756c19673e34b>@@$$QEAV<lambda_dfb8eca1e75fef3034a8fb18dd509707>@@@Z 00000001800323c4 f i libucrt:per_thread_data.obj
 0001:00031654       __acrt_freeptd             0000000180032654 f   libucrt:per_thread_data.obj
 0001:00031698       __acrt_getptd              0000000180032698 f   libucrt:per_thread_data.obj
 0001:0003172c       __acrt_getptd_noexit       000000018003272c f   libucrt:per_thread_data.obj
 0001:000317cc       __acrt_initialize_ptd      00000001800327cc f   libucrt:per_thread_data.obj
 0001:00031808       __acrt_uninitialize_ptd    0000000180032808 f   libucrt:per_thread_data.obj
 0001:0003182c       ??$?RV<lambda_b521505b218e5242e90febf6bfebc422>@@AEAV<lambda_6978c1fb23f02e42e1d9e99668cc68aa>@@V<lambda_314360699dd331753a4119843814e9a7>@@@?$__crt_seh_guarded_call@H@@QEAAH$$QEAV<lambda_b521505b218e5242e90febf6bfebc422>@@AEAV<lambda_6978c1fb23f02e42e1d9e99668cc68aa>@@$$QEAV<lambda_314360699dd331753a4119843814e9a7>@@@Z 000000018003282c f i libucrt:commit.obj
 0001:000318b8       _commit                    00000001800328b8 f   libucrt:commit.obj
 0001:00031eec       _write                     0000000180032eec f   libucrt:write.obj
 0001:00031fd8       _write_nolock              0000000180032fd8 f   libucrt:write.obj
 0001:000322bc       ??$?RV<lambda_bfedae4ebbf01fab1bb6dcc6a9e276e0>@@AEAV<lambda_2fe9b910cf3cbf4a0ab98a02ba45b3ec>@@V<lambda_237c231691f317818eb88cc1d5d642d6>@@@?$__crt_seh_guarded_call@H@@QEAAH$$QEAV<lambda_bfedae4ebbf01fab1bb6dcc6a9e276e0>@@AEAV<lambda_2fe9b910cf3cbf4a0ab98a02ba45b3ec>@@$$QEAV<lambda_237c231691f317818eb88cc1d5d642d6>@@@Z 00000001800332bc f i libucrt:close.obj
 0001:00032330       _close                     0000000180033330 f   libucrt:close.obj
 0001:000323d4       _close_nolock              00000001800333d4 f   libucrt:close.obj
 0001:00032490       ?__acrt_stdio_allocate_stream@@YA?AV__crt_stdio_stream@@XZ 0000000180033490 f   libucrt:stream.obj
 0001:000324ec       ?__acrt_stdio_free_stream@@YAXV__crt_stdio_stream@@@Z 00000001800334ec f   libucrt:stream.obj
 0001:0003261c       __acrt_stdio_free_buffer_nolock 000000018003361c f   libucrt:_freebuf.obj
 0001:0003265c       __acrt_update_locale_info  000000018003365c f   libucrt:locale_update.obj
 0001:00032690       __acrt_update_multibyte_info 0000000180033690 f   libucrt:locale_update.obj
 0001:000326c4       ??$?RV<lambda_5df02c53a8f32f81fd64e5bbb78039f1>@@AEAV<lambda_2af78c5f5901b1372d98f9ab3177dfa6>@@AEAV<lambda_f51fe5fd7c79a33db34fc9310f277369>@@@?$__crt_seh_guarded_call@X@@QEAAX$$QEAV<lambda_5df02c53a8f32f81fd64e5bbb78039f1>@@AEAV<lambda_2af78c5f5901b1372d98f9ab3177dfa6>@@AEAV<lambda_f51fe5fd7c79a33db34fc9310f277369>@@@Z 00000001800336c4 f i libucrt:wsetlocale.obj
 0001:000326f0       ??$?RV<lambda_d67e8342c384adda8f857579ab50b2ae>@@AEAV<lambda_30712929f77e709619002f448b6a9510>@@V<lambda_4525336fd7e478d965fb7ca7a337cad8>@@@?$__crt_seh_guarded_call@X@@QEAAX$$QEAV<lambda_d67e8342c384adda8f857579ab50b2ae>@@AEAV<lambda_30712929f77e709619002f448b6a9510>@@$$QEAV<lambda_4525336fd7e478d965fb7ca7a337cad8>@@@Z 00000001800336f0 f i libucrt:wsetlocale.obj
 0001:000328bc       __acrt_copy_locale_name    00000001800338bc f   libucrt:wsetlocale.obj
 0001:00032940       __acrt_set_locale_changed  0000000180033940 f   libucrt:wsetlocale.obj
 0001:0003294c       __acrt_uninitialize_locale 000000018003394c f   libucrt:wsetlocale.obj
 0001:00032994       __lc_lctowcs               0000000180033994 f   libucrt:wsetlocale.obj
 0001:00032a38       __lc_wcstolc               0000000180033a38 f   libucrt:wsetlocale.obj
 0001:00032cb0       _expandlocale              0000000180033cb0 f   libucrt:wsetlocale.obj
 0001:000330ac       _wcscats                   00000001800340ac f   libucrt:wsetlocale.obj
 0001:00033114       _wsetlocale                0000000180034114 f   libucrt:wsetlocale.obj
 0001:00033960       strtol                     0000000180034960 f   libucrt:strtox.obj
 0001:00033990       wcstol                     0000000180034990 f   libucrt:strtox.obj
 0001:000339c0       _mbtowc_l                  00000001800349c0 f   libucrt:mbtowc.obj
 0001:00033b08       mbtowc                     0000000180034b08 f   libucrt:mbtowc.obj
 0001:00033b10       _wctomb_s_l                0000000180034b10 f   libucrt:wctomb.obj
 0001:00033c94       wctomb_s                   0000000180034c94 f   libucrt:wctomb.obj
 0001:00033ca8       ?__acrt_fp_classify@@YA?AW4__acrt_fp_class@@AEBN@Z 0000000180034ca8 f i libucrt:cvt.obj
 0001:000346e0       __acrt_fp_format           00000001800356e0 f   libucrt:cvt.obj
 0001:00034924       _fputwc_nolock             0000000180035924 f   libucrt:fputwc.obj
 0001:00034aa0       _get_printf_count_output   0000000180035aa0 f   libucrt:printf_count_output.obj
 0001:00034ab8       __acrt_stdio_begin_temporary_buffering_nolock 0000000180035ab8 f   libucrt:_sftbuf.obj
 0001:00034b88       __acrt_stdio_end_temporary_buffering_nolock 0000000180035b88 f   libucrt:_sftbuf.obj
 0001:00034d6c       __acrt_stdio_refill_and_read_narrow_nolock 0000000180035d6c f   libucrt:_filbuf.obj
 0001:00034db8       ??$?RV<lambda_630b2aca97f6d20d5b5ea6529ea6b6af>@@AEAV<lambda_af91936f1d075d609f72d9d8cba980af>@@V<lambda_e82fa975f615b5c7c7b0e4d178fdae67>@@@?$__crt_seh_guarded_call@H@@QEAAH$$QEAV<lambda_630b2aca97f6d20d5b5ea6529ea6b6af>@@AEAV<lambda_af91936f1d075d609f72d9d8cba980af>@@$$QEAV<lambda_e82fa975f615b5c7c7b0e4d178fdae67>@@@Z 0000000180035db8 f i libucrt:winapi_thunks.obj
 0001:00034ff0       __acrt_AreFileApisANSI     0000000180035ff0 f   libucrt:winapi_thunks.obj
 0001:0003503c       __acrt_CompareStringEx     000000018003603c f   libucrt:winapi_thunks.obj
 0001:0003512c       __acrt_EnumSystemLocalesEx 000000018003612c f   libucrt:winapi_thunks.obj
 0001:000351d4       __acrt_FlsAlloc            00000001800361d4 f   libucrt:winapi_thunks.obj
 0001:0003522c       __acrt_FlsFree             000000018003622c f   libucrt:winapi_thunks.obj
 0001:00035284       __acrt_FlsGetValue         0000000180036284 f   libucrt:winapi_thunks.obj
 0001:000352dc       __acrt_FlsSetValue         00000001800362dc f   libucrt:winapi_thunks.obj
 0001:00035344       __acrt_GetDateFormatEx     0000000180036344 f   libucrt:winapi_thunks.obj
 0001:00035410       __acrt_GetLocaleInfoEx     0000000180036410 f   libucrt:winapi_thunks.obj
 0001:000354a8       __acrt_GetSystemTimePreciseAsFileTime 00000001800364a8 f   libucrt:winapi_thunks.obj
 0001:00035500       __acrt_GetTimeFormatEx     0000000180036500 f   libucrt:winapi_thunks.obj
 0001:000355bc       __acrt_GetUserDefaultLocaleName 00000001800365bc f   libucrt:winapi_thunks.obj
 0001:00035630       __acrt_InitializeCriticalSectionEx 0000000180036630 f   libucrt:winapi_thunks.obj
 0001:000356a8       __acrt_IsValidLocaleName   00000001800366a8 f   libucrt:winapi_thunks.obj
 0001:00035710       __acrt_LCIDToLocaleName    0000000180036710 f   libucrt:winapi_thunks.obj
 0001:0003579c       __acrt_LCMapStringEx       000000018003679c f   libucrt:winapi_thunks.obj
 0001:0003588c       __acrt_LocaleNameToLCID    000000018003688c f   libucrt:winapi_thunks.obj
 0001:000358f4       __acrt_MessageBoxW         00000001800368f4 f   libucrt:winapi_thunks.obj
 0001:0003597c       __acrt_can_show_message_box 000000018003697c f   libucrt:winapi_thunks.obj
 0001:000359d8       __acrt_can_use_vista_locale_apis 00000001800369d8 f   libucrt:winapi_thunks.obj
 0001:00035a08       __acrt_get_parent_window   0000000180036a08 f   libucrt:winapi_thunks.obj
 0001:00035a98       __acrt_initialize_winapi_thunks 0000000180036a98 f   libucrt:winapi_thunks.obj
 0001:00035ad0       __acrt_is_interactive      0000000180036ad0 f   libucrt:winapi_thunks.obj
 0001:00035ba4       __acrt_is_packaged_app     0000000180036ba4 f   libucrt:winapi_thunks.obj
 0001:00035c2c       __acrt_uninitialize_winapi_thunks 0000000180036c2c f   libucrt:winapi_thunks.obj
 0001:00035c70       _fcloseall                 0000000180036c70 f   libucrt:closeall.obj
 0001:000361e0       _ftelli64                  00000001800371e0 f   libucrt:ftell.obj
 0001:000361e8       _ftelli64_nolock           00000001800371e8 f   libucrt:ftell.obj
 0001:000361f0       __acrt_initialize_timeset  00000001800371f0 f   libucrt:timeset.obj
 0001:00036220       __daylight                 0000000180037220 f   libucrt:timeset.obj
 0001:00036228       __dstbias                  0000000180037228 f   libucrt:timeset.obj
 0001:00036230       __timezone                 0000000180037230 f   libucrt:timeset.obj
 0001:00036238       __tzname                   0000000180037238 f   libucrt:timeset.obj
 0001:00036240       _get_daylight              0000000180037240 f   libucrt:timeset.obj
 0001:00036270       _get_dstbias               0000000180037270 f   libucrt:timeset.obj
 0001:000362a0       _get_timezone              00000001800372a0 f   libucrt:timeset.obj
 0001:00036548       __getgmtimebuf             0000000180037548 f   libucrt:gmtime.obj
 0001:00036594       _gmtime64_s                0000000180037594 f   libucrt:gmtime.obj
 0001:00036fd8       __tzset                    0000000180037fd8 f   libucrt:tzset.obj
 0001:00037014       _isindst                   0000000180038014 f   libucrt:tzset.obj
 0001:00037044       iswctype                   0000000180038044 f   libucrt:iswctype.obj
 0001:000370b4       _isctype_l                 00000001800380b4 f   libucrt:isctype.obj
 0001:000371c4       __acrt_stdio_allocate_buffer_nolock 00000001800381c4 f   libucrt:_getbuf.obj
 0001:00037228       _dsign                     0000000180038228 f   libucrt:nan.obj
 0001:00037240       _errcode                   0000000180038240 f   libucrt:fpexcept.obj
 0001:00037284       _except1                   0000000180038284 f   libucrt:fpexcept.obj
 0001:00037378       _handle_exc                0000000180038378 f   libucrt:fpexcept.obj
 0001:000375e0       _raise_exc                 00000001800385e0 f   libucrt:fpexcept.obj
 0001:00037608       _raise_exc_ex              0000000180038608 f   libucrt:fpexcept.obj
 0001:00037910       _set_errno_from_matherr    0000000180038910 f   libucrt:fpexcept.obj
 0001:00037940       _umatherr                  0000000180038940 f   libucrt:fpexcept.obj
 0001:00037a14       _decomp                    0000000180038a14 f   libucrt:util.obj
 0001:00037b48       _sptype                    0000000180038b48 f   libucrt:util.obj
 0001:00037bbc       _clrfp                     0000000180038bbc f   libucrt:fpctrl.obj
 0001:00037bdc       _ctrlfp                    0000000180038bdc f   libucrt:fpctrl.obj
 0001:00037c58       _set_statfp                0000000180038c58 f   libucrt:fpctrl.obj
 0001:00037c78       _statfp                    0000000180038c78 f   libucrt:fpctrl.obj
 0001:00037c8c       fegetround                 0000000180038c8c f   libucrt:fegetround.obj
 0001:00037e2c       _lseeki64                  0000000180038e2c f   libucrt:lseek.obj
 0001:00037e34       _lseeki64_nolock           0000000180038e34 f   libucrt:lseek.obj
 0001:00037e3c       _query_app_type            0000000180038e3c f   libucrt:report_runtime_error.obj
 0001:00037f6c       _itow_s                    0000000180038f6c f   libucrt:xtoa.obj
 0001:00037f8c       _set_error_mode            0000000180038f8c f   libucrt:set_error_mode.obj
 0001:00037fcc       wcscat_s                   0000000180038fcc f   libucrt:wcscat_s.obj
 0001:0003804c       wcsncat_s                  000000018003904c f   libucrt:wcsncat_s.obj
 0001:00038174       __acrt_show_wide_message_box 0000000180039174 f   libucrt:crtmbox.obj
 0001:0003846c       _mbstowcs_s_l              000000018003946c f   libucrt:mbstowcs.obj
 0001:0003859c       mbstowcs_s                 000000018003959c f   libucrt:mbstowcs.obj
 0001:000388f0       _wcstombs_s_l              00000001800398f0 f   libucrt:wcstombs.obj
 0001:000389dc       ??$__acrt_stdio_parse_mode@D@@YA?AU__acrt_stdio_stream_mode@@QEBD@Z 00000001800399dc f i libucrt:openfile.obj
 0001:00038c78       _openfile                  0000000180039c78 f   libucrt:openfile.obj
 0001:00038d14       _query_new_mode            0000000180039d14 f   libucrt:new_mode.obj
 0001:00038d1c       __acrt_initialize_heap     0000000180039d1c f   libucrt:heap_handle.obj
 0001:00038d38       __acrt_uninitialize_heap   0000000180039d38 f   libucrt:heap_handle.obj
 0001:00038ee4       __acrt_GetLocaleInfoA      0000000180039ee4 f   libucrt:getlocaleinfoa.obj
 0001:000390ac       __acrt_GetStringTypeA      000000018003a0ac f   libucrt:getstringtypea.obj
 0001:000395bc       __acrt_LCMapStringA        000000018003a5bc f   libucrt:lcmapstringa.obj
 0001:00039654       _wcsicmp                   000000018003a654 f   libucrt:wcsicmp.obj
 0001:000396dc       _wcsicmp_l                 000000018003a6dc f   libucrt:wcsicmp.obj
 0001:000397cc       _isleadbyte_l              000000018003a7cc f i libucrt:_wctype.obj
 0001:00039930       _handle_error              000000018003a930 f   libucrt:libm_error.obj
 0001:00039a58       _handle_nan                000000018003aa58 f   libucrt:libm_error.obj
 0001:00039a74       ??$?RV<lambda_99476a1ad63dd22509b5d3e65b0ffc95>@@AEAV<lambda_ad1ced32f4ac17aa236e5ef05d6b3b7c>@@V<lambda_f7424dd8d45958661754dc4f2697e9c3>@@@?$__crt_seh_guarded_call@X@@QEAAX$$QEAV<lambda_99476a1ad63dd22509b5d3e65b0ffc95>@@AEAV<lambda_ad1ced32f4ac17aa236e5ef05d6b3b7c>@@$$QEAV<lambda_f7424dd8d45958661754dc4f2697e9c3>@@@Z 000000018003aa74 f i libucrt:mbctype.obj
 0001:0003a170       __acrt_initialize_multibyte 000000018003b170 f   libucrt:mbctype.obj
 0001:0003a198       __acrt_update_thread_multibyte_data 000000018003b198 f   libucrt:mbctype.obj
 0001:0003a258       _setmbcp_nolock            000000018003b258 f   libucrt:mbctype.obj
 0001:0003a500       __dcrt_get_narrow_environment_from_os 000000018003b500 f   libucrt:get_environment_from_os.obj
 0001:0003a9e0       __dcrt_set_variable_in_narrow_environment_nolock 000000018003b9e0 f   libucrt:setenv.obj
 0001:0003a9e8       _recalloc                  000000018003b9e8 f   libucrt:recalloc.obj
 0001:0003a9f0       _recalloc_base             000000018003b9f0 f   libucrt:recalloc.obj
 0001:0003aa88       __acrt_initialize_command_line 000000018003ba88 f   libucrt:argv_data.obj
 0001:0003aab0       __acrt_execute_initializers 000000018003bab0 f   libucrt:shared_initialization.obj
 0001:0003ab44       __acrt_execute_uninitializers 000000018003bb44 f   libucrt:shared_initialization.obj
 0001:0003ab94       __acrt_has_user_matherr    000000018003bb94 f   libucrt:matherr.obj
 0001:0003abb4       __acrt_initialize_user_matherr 000000018003bbb4 f   libucrt:matherr.obj
 0001:0003abbc       __acrt_invoke_user_matherr 000000018003bbbc f   libucrt:matherr.obj
 0001:0003ac04       _isatty                    000000018003bc04 f   libucrt:isatty.obj
 0001:0003ac64       __acrt_lowio_create_handle_array 000000018003bc64 f   libucrt:osfinfo.obj
 0001:0003acfc       __acrt_lowio_destroy_handle_array 000000018003bcfc f   libucrt:osfinfo.obj
 0001:0003ad4c       __acrt_lowio_ensure_fh_exists 000000018003bd4c f   libucrt:osfinfo.obj
 0001:0003ae04       __acrt_lowio_lock_fh       000000018003be04 f   libucrt:osfinfo.obj
 0001:0003ae28       __acrt_lowio_set_os_handle 000000018003be28 f   libucrt:osfinfo.obj
 0001:0003aee8       __acrt_lowio_unlock_fh     000000018003bee8 f   libucrt:osfinfo.obj
 0001:0003af0c       _alloc_osfhnd              000000018003bf0c f   libucrt:osfinfo.obj
 0001:0003b03c       _free_osfhnd               000000018003c03c f   libucrt:osfinfo.obj
 0001:0003b0f8       _get_osfhandle             000000018003c0f8 f   libucrt:osfinfo.obj
 0001:0003b170       __acrt_add_locale_ref      000000018003c170 f   libucrt:locale_refcounting.obj
 0001:0003b1fc       __acrt_free_locale         000000018003c1fc f   libucrt:locale_refcounting.obj
 0001:0003b374       __acrt_locale_add_lc_time_reference 000000018003c374 f   libucrt:locale_refcounting.obj
 0001:0003b39c       __acrt_locale_free_lc_time_if_unreferenced 000000018003c39c f   libucrt:locale_refcounting.obj
 0001:0003b3d4       __acrt_locale_release_lc_time_reference 000000018003c3d4 f   libucrt:locale_refcounting.obj
 0001:0003b3fc       __acrt_release_locale_ref  000000018003c3fc f   libucrt:locale_refcounting.obj
 0001:0003b4a4       __acrt_update_thread_locale_data 000000018003c4a4 f   libucrt:locale_refcounting.obj
 0001:0003b514       _updatetlocinfoEx_nolock   000000018003c514 f   libucrt:locale_refcounting.obj
 0001:0003b57c       _putwch_nolock             000000018003c57c f   libucrt:putwch.obj
 0001:0003b5d8       __acrt_locale_free_monetary 000000018003c5d8 f   libucrt:initmon.obj
 0001:0003b6e4       __acrt_locale_initialize_monetary 000000018003c6e4 f   libucrt:initmon.obj
 0001:0003bc1c       __acrt_locale_free_numeric 000000018003cc1c f   libucrt:initnum.obj
 0001:0003bc88       __acrt_locale_initialize_numeric 000000018003cc88 f   libucrt:initnum.obj
 0001:0003c30c       __acrt_locale_free_time    000000018003d30c f   libucrt:inittime.obj
 0001:0003c414       __acrt_locale_initialize_time 000000018003d414 f   libucrt:inittime.obj
 0001:0003c4a8       wcsncpy_s                  000000018003d4a8 f   libucrt:wcsncpy_s.obj
 0001:0003c58c       wcscspn                    000000018003d58c f   libucrt:wcscspn.obj
 0001:0003c5cc       wcsncmp                    000000018003d5cc f   libucrt:wcsncmp.obj
 0001:0003c5f8       wcspbrk                    000000018003d5f8 f   libucrt:wcspbrk.obj
 0001:0003ce9c       __acrt_get_qualified_locale 000000018003de9c f   libucrt:get_qualified_locale.obj
 0001:0003d888       __acrt_get_qualified_locale_downlevel 000000018003e888 f   libucrt:getqloc_downlevel.obj
 0001:0003db18       __acrt_fp_strflt_to_string 000000018003eb18 f   libucrt:_fptostr.obj
 0001:0003dbd8       __acrt_fltout              000000018003ebd8 f   libucrt:cfout.obj
 0001:0003f4fc       _read                      00000001800404fc f   libucrt:read.obj
 0001:0003f614       _read_nolock               0000000180040614 f   libucrt:read.obj
 0001:0003fb44       __acrt_DownlevelLCIDToLocaleName 0000000180040b44 f   libucrt:lcidtoname_downlevel.obj
 0001:0003fc28       __acrt_DownlevelLocaleNameToLCID 0000000180040c28 f   libucrt:lcidtoname_downlevel.obj
 0001:0003fde4       getenv_s                   0000000180040de4 f   libucrt:getenv.obj
 0001:0003fdec       strncpy_s                  0000000180040dec f   libucrt:strncpy_s.obj
 0001:0003fed0       _get_fpsr                  0000000180040ed0 f   libucrt:fpsr.obj
 0001:0003fee0       _set_fpsr                  0000000180040ee0 f   libucrt:fpsr.obj
 0001:0003feea       _fclrf                     0000000180040eea f   libucrt:fpsr.obj
 0001:0003fefe       _frnd                      0000000180040efe f   libucrt:fpsr.obj
 0001:0003ff20       _getfpcontrolword          0000000180040f20 f   libucrt:_fenvutils.obj
 0001:0003ff38       _getfpstatusword           0000000180040f38 f   libucrt:_fenvutils.obj
 0001:0003ff4c       _setfpcontrolword          0000000180040f4c f   libucrt:_fenvutils.obj
 0001:0003ff58       _setfpstatusword           0000000180040f58 f   libucrt:_fenvutils.obj
 0001:0003ffa8       _wcsnicmp                  0000000180040fa8 f   libucrt:wcsnicmp.obj
 0001:00040044       _wcsnicmp_l                0000000180041044 f   libucrt:wcsnicmp.obj
 0001:00040170       strncmp                    0000000180041170 f   libucrt:strncmp.obj
 0001:000401f0       __ascii_strnicmp           00000001800411f0 f   libucrt:strnicmp.obj
 0001:00040238       _strnicmp                  0000000180041238 f   libucrt:strnicmp.obj
 0001:00040288       _strnicmp_l                0000000180041288 f   libucrt:strnicmp.obj
 0001:000409a8       _sopen_nolock              00000001800419a8 f   libucrt:open.obj
 0001:00040a38       _sopen_s                   0000000180041a38 f   libucrt:open.obj
 0001:00040a6c       _wsopen_nolock             0000000180041a6c f   libucrt:open.obj
 0001:00040e5c       _towlower_l                0000000180041e5c f   libucrt:towlower.obj
 0001:00040f38       _strnicoll                 0000000180041f38 f   libucrt:strnicol.obj
 0001:00040f50       _strnicoll_l               0000000180041f50 f   libucrt:strnicol.obj
 0001:00041050       _msize                     0000000180042050 f   libucrt:msize.obj
 0001:0004108c       __dcrt_lowio_initialize_console_output 000000018004208c f   libucrt:initcon.obj
 0001:000410c8       __dcrt_terminate_console_output 00000001800420c8 f   libucrt:initcon.obj
 0001:000410e8       wcscmp                     00000001800420e8 f   libucrt:wcscmp.obj
 0001:00041120       fegetenv                   0000000180042120 f   libucrt:fegetenv.obj
 0001:00041140       fesetenv                   0000000180042140 f   libucrt:fesetenv.obj
 0001:0004118c       feholdexcept               000000018004218c f   libucrt:feholdexcept.obj
 0001:000411dc       ceil                       00000001800421dc f   libucrt:ceil.obj
 0001:000412a0       log10                      00000001800422a0 f   libucrt:log10.obj
 0001:0004184c       _clearfp                   000000018004284c f   libucrt:ieee.obj
 0001:000418a0       _controlfp                 00000001800428a0 f   libucrt:ieee.obj
 0001:000418ac       _statusfp                  00000001800428ac f   libucrt:ieee.obj
 0001:00041b8c       _get_fmode                 0000000180042b8c f   libucrt:setmode.obj
 0001:00041bbc       _setmode_nolock            0000000180042bbc f   libucrt:setmode.obj
 0001:00041c9c       __acrt_copy_path_to_wide_string 0000000180042c9c f   libucrt:string_utilities.obj
 0001:00041d94       _chsize_nolock             0000000180042d94 f   libucrt:chsize.obj
 0001:00041f10       __acrt_LCMapStringW        0000000180042f10 f   libucrt:lcmapstringw.obj
 0001:0004232c       __acrt_CompareStringA      000000018004332c f   libucrt:comparestringa.obj
 0001:000423c0       __acrt_initialize_fma3     00000001800433c0 f   libucrt:fma3_available.obj
 0001:00042430       _log10_special             0000000180043430 f   libucrt:log_special.obj
 0001:00042450       _log_special               0000000180043450 f   libucrt:log_special.obj
 0001:00042506       IsProcessorFeaturePresent  0000000180043506 f   kernel32:KERNEL32.dll
 0001:0004250c       RtlUnwindEx                000000018004350c f   kernel32:KERNEL32.dll
 0001:00042512       SystemFunction036          0000000180043512 f   advapi32:ADVAPI32.dll
 0001:00042518       ?DloadAcquireSectionWriteAccess@@YAXXZ 0000000180043518 f i DelayImp:delayhlp.obj
 0001:000425d4       ?DloadGetSRWLockFunctionPointers@@YAEXZ 00000001800435d4 f i DelayImp:delayhlp.obj
 0001:00042670       ?DloadMakePermanentImageCommit@@YAXPEAX_K@Z 0000000180043670 f i DelayImp:delayhlp.obj
 0001:00042708       ?DloadObtainSection@@YAPEAXPEAK0@Z 0000000180043708 f i DelayImp:delayhlp.obj
 0001:000427a0       ?DloadProtectSection@@YAXKPEAK@Z 00000001800437a0 f i DelayImp:delayhlp.obj
 0001:00042830       ?DloadReleaseSectionWriteAccess@@YAXXZ 0000000180043830 f i DelayImp:delayhlp.obj
 0001:000428d4       __delayLoadHelper2         00000001800438d4 f   DelayImp:delayhlp.obj
 0001:00042be0       _FindPESection             0000000180043be0 f   LIBCMT:pesect.obj
 0001:00042c30       _IsNonwritableInCurrentImage 0000000180043c30 f   LIBCMT:pesect.obj
 0001:00042c80       _ValidateImageBase         0000000180043c80 f   LIBCMT:pesect.obj
 0001:00042cb0       strrchr                    0000000180043cb0 f   libvcruntime:strrchr.obj
 0001:00042df4       strchr                     0000000180043df4 f   libvcruntime:strchr.obj
 0001:00042e80       wcschr                     0000000180043e80 f   libvcruntime:wcschr.obj
 0001:00042f10       log                        0000000180043f10 f   libucrt:log.obj
 0001:00043450       _guard_dispatch_icall_nop  0000000180044450 f   LIBCMT:_guard_dispatch_.obj
 0001:00044c90       ??__F_Static@?1???$_Immortalize@V_Iostream_error_category@std@@@std@@YAAEAV_Iostream_error_category@0@XZ@YAXXZ 0000000180045c90 f i nodejieba.obj
 0002:00000000       __imp_SystemFunction036    0000000180046000     advapi32:ADVAPI32.dll
 0002:00000008       \177ADVAPI32_NULL_THUNK_DATA 0000000180046008     advapi32:ADVAPI32.dll
 0002:00000010       __imp_WideCharToMultiByte  0000000180046010     kernel32:KERNEL32.dll
 0002:00000018       __imp_EnterCriticalSection 0000000180046018     kernel32:KERNEL32.dll
 0002:00000020       __imp_LeaveCriticalSection 0000000180046020     kernel32:KERNEL32.dll
 0002:00000028       __imp_DeleteCriticalSection 0000000180046028     kernel32:KERNEL32.dll
 0002:00000030       __imp_EncodePointer        0000000180046030     kernel32:KERNEL32.dll
 0002:00000038       __imp_DecodePointer        0000000180046038     kernel32:KERNEL32.dll
 0002:00000040       __imp_MultiByteToWideChar  0000000180046040     kernel32:KERNEL32.dll
 0002:00000048       __imp_SetLastError         0000000180046048     kernel32:KERNEL32.dll
 0002:00000050       __imp_InitializeCriticalSectionAndSpinCount 0000000180046050     kernel32:KERNEL32.dll
 0002:00000058       __imp_CreateEventW         0000000180046058     kernel32:KERNEL32.dll
 0002:00000060       __imp_TlsAlloc             0000000180046060     kernel32:KERNEL32.dll
 0002:00000068       __imp_TlsGetValue          0000000180046068     kernel32:KERNEL32.dll
 0002:00000070       __imp_TlsSetValue          0000000180046070     kernel32:KERNEL32.dll
 0002:00000078       __imp_TlsFree              0000000180046078     kernel32:KERNEL32.dll
 0002:00000080       __imp_GetSystemTimeAsFileTime 0000000180046080     kernel32:KERNEL32.dll
 0002:00000088       __imp_GetModuleHandleW     0000000180046088     kernel32:KERNEL32.dll
 0002:00000090       __imp_GetProcAddress       0000000180046090     kernel32:KERNEL32.dll
 0002:00000098       __imp_CompareStringW       0000000180046098     kernel32:KERNEL32.dll
 0002:000000a0       __imp_LCMapStringW         00000001800460a0     kernel32:KERNEL32.dll
 0002:000000a8       __imp_GetLocaleInfoW       00000001800460a8     kernel32:KERNEL32.dll
 0002:000000b0       __imp_GetStringTypeW       00000001800460b0     kernel32:KERNEL32.dll
 0002:000000b8       __imp_GetCPInfo            00000001800460b8     kernel32:KERNEL32.dll
 0002:000000c0       __imp_CloseHandle          00000001800460c0     kernel32:KERNEL32.dll
 0002:000000c8       __imp_SetEvent             00000001800460c8     kernel32:KERNEL32.dll
 0002:000000d0       __imp_ResetEvent           00000001800460d0     kernel32:KERNEL32.dll
 0002:000000d8       __imp_WaitForSingleObjectEx 00000001800460d8     kernel32:KERNEL32.dll
 0002:000000e0       __imp_RtlCaptureContext    00000001800460e0     kernel32:KERNEL32.dll
 0002:000000e8       __imp_RtlLookupFunctionEntry 00000001800460e8     kernel32:KERNEL32.dll
 0002:000000f0       __imp_RtlVirtualUnwind     00000001800460f0     kernel32:KERNEL32.dll
 0002:000000f8       __imp_UnhandledExceptionFilter 00000001800460f8     kernel32:KERNEL32.dll
 0002:00000100       __imp_SetUnhandledExceptionFilter 0000000180046100     kernel32:KERNEL32.dll
 0002:00000108       __imp_GetCurrentProcess    0000000180046108     kernel32:KERNEL32.dll
 0002:00000110       __imp_TerminateProcess     0000000180046110     kernel32:KERNEL32.dll
 0002:00000118       __imp_IsProcessorFeaturePresent 0000000180046118     kernel32:KERNEL32.dll
 0002:00000120       __imp_IsDebuggerPresent    0000000180046120     kernel32:KERNEL32.dll
 0002:00000128       __imp_GetStartupInfoW      0000000180046128     kernel32:KERNEL32.dll
 0002:00000130       __imp_QueryPerformanceCounter 0000000180046130     kernel32:KERNEL32.dll
 0002:00000138       __imp_GetCurrentProcessId  0000000180046138     kernel32:KERNEL32.dll
 0002:00000140       __imp_GetCurrentThreadId   0000000180046140     kernel32:KERNEL32.dll
 0002:00000148       __imp_InitializeSListHead  0000000180046148     kernel32:KERNEL32.dll
 0002:00000150       __imp_RtlPcToFileHeader    0000000180046150     kernel32:KERNEL32.dll
 0002:00000158       __imp_RaiseException       0000000180046158     kernel32:KERNEL32.dll
 0002:00000160       __imp_RtlUnwindEx          0000000180046160     kernel32:KERNEL32.dll
 0002:00000168       __imp_FreeLibrary          0000000180046168     kernel32:KERNEL32.dll
 0002:00000170       __imp_LoadLibraryExW       0000000180046170     kernel32:KERNEL32.dll
 0002:00000178       __imp_GetModuleFileNameW   0000000180046178     kernel32:KERNEL32.dll
 0002:00000180       __imp_InterlockedFlushSList 0000000180046180     kernel32:KERNEL32.dll
 0002:00000188       __imp_GetStdHandle         0000000180046188     kernel32:KERNEL32.dll
 0002:00000190       __imp_GetFileType          0000000180046190     kernel32:KERNEL32.dll
 0002:00000198       __imp_GetModuleHandleExW   0000000180046198     kernel32:KERNEL32.dll
 0002:000001a0       __imp_WriteConsoleW        00000001800461a0     kernel32:KERNEL32.dll
 0002:000001a8       __imp_HeapAlloc            00000001800461a8     kernel32:KERNEL32.dll
 0002:000001b0       __imp_HeapReAlloc          00000001800461b0     kernel32:KERNEL32.dll
 0002:000001b8       __imp_HeapFree             00000001800461b8     kernel32:KERNEL32.dll
 0002:000001c0       __imp_ExitProcess          00000001800461c0     kernel32:KERNEL32.dll
 0002:000001c8       __imp_FlushFileBuffers     00000001800461c8     kernel32:KERNEL32.dll
 0002:000001d0       __imp_WriteFile            00000001800461d0     kernel32:KERNEL32.dll
 0002:000001d8       __imp_GetConsoleCP         00000001800461d8     kernel32:KERNEL32.dll
 0002:000001e0       __imp_GetConsoleMode       00000001800461e0     kernel32:KERNEL32.dll
 0002:000001e8       __imp_GetACP               00000001800461e8     kernel32:KERNEL32.dll
 0002:000001f0       __imp_GetDateFormatW       00000001800461f0     kernel32:KERNEL32.dll
 0002:000001f8       __imp_GetTimeFormatW       00000001800461f8     kernel32:KERNEL32.dll
 0002:00000200       __imp_IsValidLocale        0000000180046200     kernel32:KERNEL32.dll
 0002:00000208       __imp_GetUserDefaultLCID   0000000180046208     kernel32:KERNEL32.dll
 0002:00000210       __imp_EnumSystemLocalesW   0000000180046210     kernel32:KERNEL32.dll
 0002:00000218       __imp_ReadFile             0000000180046218     kernel32:KERNEL32.dll
 0002:00000220       __imp_GetTimeZoneInformation 0000000180046220     kernel32:KERNEL32.dll
 0002:00000228       __imp_SetFilePointerEx     0000000180046228     kernel32:KERNEL32.dll
 0002:00000230       __imp_OutputDebugStringW   0000000180046230     kernel32:KERNEL32.dll
 0002:00000238       __imp_CreateThread         0000000180046238     kernel32:KERNEL32.dll
 0002:00000240       __imp_GetProcessHeap       0000000180046240     kernel32:KERNEL32.dll
 0002:00000248       __imp_IsValidCodePage      0000000180046248     kernel32:KERNEL32.dll
 0002:00000250       __imp_GetOEMCP             0000000180046250     kernel32:KERNEL32.dll
 0002:00000258       __imp_GetEnvironmentStringsW 0000000180046258     kernel32:KERNEL32.dll
 0002:00000260       __imp_FreeEnvironmentStringsW 0000000180046260     kernel32:KERNEL32.dll
 0002:00000268       __imp_SetEnvironmentVariableA 0000000180046268     kernel32:KERNEL32.dll
 0002:00000270       __imp_GetCommandLineA      0000000180046270     kernel32:KERNEL32.dll
 0002:00000278       __imp_GetCommandLineW      0000000180046278     kernel32:KERNEL32.dll
 0002:00000280       __imp_SetStdHandle         0000000180046280     kernel32:KERNEL32.dll
 0002:00000288       __imp_ReadConsoleW         0000000180046288     kernel32:KERNEL32.dll
 0002:00000290       __imp_CreateFileW          0000000180046290     kernel32:KERNEL32.dll
 0002:00000298       __imp_HeapSize             0000000180046298     kernel32:KERNEL32.dll
 0002:000002a0       __imp_SetEndOfFile         00000001800462a0     kernel32:KERNEL32.dll
 0002:000002a8       __imp_GetLastError         00000001800462a8     kernel32:KERNEL32.dll
 0002:000002b0       __imp_GetModuleHandleA     00000001800462b0     kernel32:KERNEL32.dll
 0002:000002b8       __imp_GetSystemInfo        00000001800462b8     kernel32:KERNEL32.dll
 0002:000002c0       __imp_VirtualProtect       00000001800462c0     kernel32:KERNEL32.dll
 0002:000002c8       __imp_VirtualQuery         00000001800462c8     kernel32:KERNEL32.dll
 0002:000002d0       __imp_LoadLibraryExA       00000001800462d0     kernel32:KERNEL32.dll
 0002:000002d8       \177KERNEL32_NULL_THUNK_DATA 00000001800462d8     kernel32:KERNEL32.dll
 0002:000002e0       __guard_check_icall_fptr   00000001800462e0     LIBCMT:guard_support.obj
 0002:000002e8       __guard_dispatch_icall_fptr 00000001800462e8     LIBCMT:guard_support.obj
 0002:000002f0       __xc_a                     00000001800462f0     LIBCMT:initializers.obj
 0002:00000340       _register_nodejieba_       0000000180046340     index.obj
 0002:00000348       __xc_z                     0000000180046348     LIBCMT:initializers.obj
 0002:00000350       __xi_a                     0000000180046350     LIBCMT:initializers.obj
 0002:00000368       __acrt_stdio_initializer   0000000180046368     libucrt:stdio_initializer.obj
 0002:00000370       __acrt_timeset_initializer 0000000180046370     libucrt:timeset_initializer.obj
 0002:00000378       __acrt_multibyte_initializer 0000000180046378     libucrt:multibyte_initializer.obj
 0002:00000380       __acrt_tran_fma3_initializer 0000000180046380     libucrt:fma3_initializer.obj
 0002:00000388       __xi_z                     0000000180046388     LIBCMT:initializers.obj
 0002:00000390       __xl_a                     0000000180046390     LIBCMT:tlssup.obj
 0002:00000398       __xl_z                     0000000180046398     LIBCMT:tlssup.obj
 0002:000003a0       __xp_a                     00000001800463a0     LIBCMT:initializers.obj
 0002:000003a8       __acrt_locale_terminator   00000001800463a8     libucrt:locale_initializer.obj
 0002:000003b0       __dcrt_console_output_terminator 00000001800463b0     libucrt:console_output_initializer.obj
 0002:000003b8       __acrt_stdio_terminator    00000001800463b8     libucrt:stdio_initializer.obj
 0002:000003c0       __xp_z                     00000001800463c0     LIBCMT:initializers.obj
 0002:000003c8       __xt_a                     00000001800463c8     LIBCMT:initializers.obj
 0002:000003d0       __xt_z                     00000001800463d0     LIBCMT:initializers.obj
 0002:000003e0       __sz_node_exe              00000001800463e0     node:node.exe
 0002:000004c0       ??_7_Facet_base@std@@6B@   00000001800464c0     libcpmt:locale0.obj
 0002:000004e0       ??_7_Locimp@locale@std@@6B@ 00000001800464e0     libcpmt:locale0.obj
 0002:000004f8       ??_C@_01NBENCBCI@?$CK?$AA@ 00000001800464f8     libcpmt:locale0.obj
 0002:000004fc       ??_C@_01GFHCPBMG@C?$AA@    00000001800464fc     libcpmt:locale0.obj
 0002:00000508       ??_7exception@std@@6B@     0000000180046508     libcpmt:xthrow.obj
 0002:00000518       ??_C@_0BC@EOODALEL@Unknown?5exception?$AA@ 0000000180046518     libcpmt:xthrow.obj
 0002:00000538       ??_7bad_alloc@std@@6B@     0000000180046538     libcpmt:xthrow.obj
 0002:00000548       ??_C@_0P@GHFPNOJB@bad?5allocation?$AA@ 0000000180046548     libcpmt:xthrow.obj
 0002:00000560       ??_7logic_error@std@@6B@   0000000180046560     libcpmt:xthrow.obj
 0002:00000578       ??_7length_error@std@@6B@  0000000180046578     libcpmt:xthrow.obj
 0002:00000590       ??_7out_of_range@std@@6B@  0000000180046590     libcpmt:xthrow.obj
 0002:000005a8       ??_7runtime_error@std@@6B@ 00000001800465a8     libcpmt:xthrow.obj
 0002:000005b8       ?_BADOFF@std@@3_JB         00000001800465b8     libcpmt:ios.obj
 0002:000005f0       ??_7?$ctype@D@std@@6B@     00000001800465f0     libcpmt:cerr.obj
 0002:00000650       ??_7error_category@std@@6B@ 0000000180046650     libcpmt:cerr.obj
 0002:00000688       ??_7_System_error@std@@6B@ 0000000180046688     libcpmt:cerr.obj
 0002:000006a0       ??_7system_error@std@@6B@  00000001800466a0     libcpmt:cerr.obj
 0002:000006b8       ??_7_Iostream_error_category@std@@6B@ 00000001800466b8     libcpmt:cerr.obj
 0002:000006f0       ??_7failure@ios_base@std@@6B@ 00000001800466f0     libcpmt:cerr.obj
 0002:00000708       ??_7ios_base@std@@6B@      0000000180046708     libcpmt:cerr.obj
 0002:00000718       ??_7?$basic_ios@DU?$char_traits@D@std@@@std@@6B@ 0000000180046718     libcpmt:cerr.obj
 0002:00000728       ??_7?$basic_ostream@DU?$char_traits@D@std@@@std@@6B@ 0000000180046728     libcpmt:cerr.obj
 0002:00000738       ??_7?$basic_streambuf@DU?$char_traits@D@std@@@std@@6B@ 0000000180046738     libcpmt:cerr.obj
 0002:000007b8       ??_7?$basic_filebuf@DU?$char_traits@D@std@@@std@@6B@ 00000001800467b8     libcpmt:cerr.obj
 0002:00000838       ??_7?$codecvt@DDU_Mbstatet@@@std@@6B@ 0000000180046838     libcpmt:cerr.obj
 0002:00000908       ??_C@_01KDCPPGHE@r?$AA@    0000000180046908     libcpmt:fiopen.obj
 0002:0000090c       ??_C@_01NOFIACDB@w?$AA@    000000018004690c     libcpmt:fiopen.obj
 0002:00000910       ??_C@_01MCMALHOG@a?$AA@    0000000180046910     libcpmt:fiopen.obj
 0002:00000914       ??_C@_02JDPG@rb?$AA@       0000000180046914     libcpmt:fiopen.obj
 0002:00000918       ??_C@_02GMLFBBN@wb?$AA@    0000000180046918     libcpmt:fiopen.obj
 0002:0000091c       ??_C@_02BOGAIONP@ab?$AA@   000000018004691c     libcpmt:fiopen.obj
 0002:00000920       ??_C@_02CBLLGHLK@r?$CL?$AA@ 0000000180046920     libcpmt:fiopen.obj
 0002:00000924       ??_C@_02CHHAKFFB@w?$CL?$AA@ 0000000180046924     libcpmt:fiopen.obj
 0002:00000928       ??_C@_02DPNLHKJD@a?$CL?$AA@ 0000000180046928     libcpmt:fiopen.obj
 0002:0000092c       ??_C@_03HMFOOINA@r?$CLb?$AA@ 000000018004692c     libcpmt:fiopen.obj
 0002:00000930       ??_C@_03ELIABIOC@w?$CLb?$AA@ 0000000180046930     libcpmt:fiopen.obj
 0002:00000934       ??_C@_03DOPCBAKB@a?$CLb?$AA@ 0000000180046934     libcpmt:fiopen.obj
 0002:00000938       ?valid@?1???$_Xfiopen@D@std@@YAPEAU_iobuf@@PEBDHH@Z@4QBHB 0000000180046938     libcpmt:fiopen.obj
 0002:000010b0       ??_C@_0BN@LKKBCCDB@address?5family?5not?5supported?$AA@ 00000001800470b0     libcpmt:syserror.obj
 0002:000010d0       ??_C@_0P@LDMLAFHI@address?5in?5use?$AA@ 00000001800470d0     libcpmt:syserror.obj
 0002:000010e0       ??_C@_0BG@DHPCNBJB@address?5not?5available?$AA@ 00000001800470e0     libcpmt:syserror.obj
 0002:000010f8       ??_C@_0BC@DFIBIBIL@already?5connected?$AA@ 00000001800470f8     libcpmt:syserror.obj
 0002:00001110       ??_C@_0BH@CAKOHOMI@argument?5list?5too?5long?$AA@ 0000000180047110     libcpmt:syserror.obj
 0002:00001128       ??_C@_0BH@CGIMPKIM@argument?5out?5of?5domain?$AA@ 0000000180047128     libcpmt:syserror.obj
 0002:00001140       ??_C@_0M@KGHGGJGL@bad?5address?$AA@ 0000000180047140     libcpmt:syserror.obj
 0002:00001150       ??_C@_0BE@MPJPGCEO@bad?5file?5descriptor?$AA@ 0000000180047150     libcpmt:syserror.obj
 0002:00001168       ??_C@_0M@PMMIEFCP@bad?5message?$AA@ 0000000180047168     libcpmt:syserror.obj
 0002:00001178       ??_C@_0M@KPHOFDBE@broken?5pipe?$AA@ 0000000180047178     libcpmt:syserror.obj
 0002:00001188       ??_C@_0BD@MGNDDEGM@connection?5aborted?$AA@ 0000000180047188     libcpmt:syserror.obj
 0002:000011a0       ??_C@_0BP@KAIHPOGN@connection?5already?5in?5progress?$AA@ 00000001800471a0     libcpmt:syserror.obj
 0002:000011c0       ??_C@_0BD@PJLIIJEL@connection?5refused?$AA@ 00000001800471c0     libcpmt:syserror.obj
 0002:000011d8       ??_C@_0BB@IECNJNOI@connection?5reset?$AA@ 00000001800471d8     libcpmt:syserror.obj
 0002:000011f0       ??_C@_0BC@PPHBOELF@cross?5device?5link?$AA@ 00000001800471f0     libcpmt:syserror.obj
 0002:00001208       ??_C@_0BN@KDMIFEIP@destination?5address?5required?$AA@ 0000000180047208     libcpmt:syserror.obj
 0002:00001228       ??_C@_0BI@NGCEHDD@device?5or?5resource?5busy?$AA@ 0000000180047228     libcpmt:syserror.obj
 0002:00001240       ??_C@_0BE@JIDOCPHM@directory?5not?5empty?$AA@ 0000000180047240     libcpmt:syserror.obj
 0002:00001258       ??_C@_0BI@BNCLIGPB@executable?5format?5error?$AA@ 0000000180047258     libcpmt:syserror.obj
 0002:00001270       ??_C@_0M@MIDIAGJP@file?5exists?$AA@ 0000000180047270     libcpmt:syserror.obj
 0002:00001280       ??_C@_0P@DNAJLBJK@file?5too?5large?$AA@ 0000000180047280     libcpmt:syserror.obj
 0002:00001290       ??_C@_0BC@EJHOMAAK@filename?5too?5long?$AA@ 0000000180047290     libcpmt:syserror.obj
 0002:000012a8       ??_C@_0BH@KEFGLDAF@function?5not?5supported?$AA@ 00000001800472a8     libcpmt:syserror.obj
 0002:000012c0       ??_C@_0BB@DHFDFGDM@host?5unreachable?$AA@ 00000001800472c0     libcpmt:syserror.obj
 0002:000012d8       ??_C@_0BD@JPHBMONG@identifier?5removed?$AA@ 00000001800472d8     libcpmt:syserror.obj
 0002:000012f0       ??_C@_0BG@CDNPAGJK@illegal?5byte?5sequence?$AA@ 00000001800472f0     libcpmt:syserror.obj
 0002:00001308       ??_C@_0CD@BNPLBMNA@inappropriate?5io?5control?5operati@ 0000000180047308     libcpmt:syserror.obj
 0002:00001330       ??_C@_0M@EGEKIIMP@interrupted?$AA@ 0000000180047330     libcpmt:syserror.obj
 0002:00001340       ??_C@_0BB@FCMFBGOM@invalid?5argument?$AA@ 0000000180047340     libcpmt:syserror.obj
 0002:00001358       ??_C@_0N@OHAFKDEK@invalid?5seek?$AA@ 0000000180047358     libcpmt:syserror.obj
 0002:00001368       ??_C@_08GLNPIFBN@io?5error?$AA@ 0000000180047368     libcpmt:syserror.obj
 0002:00001378       ??_C@_0P@FLLDBIDK@is?5a?5directory?$AA@ 0000000180047378     libcpmt:syserror.obj
 0002:00001388       ??_C@_0N@IFLPBIOP@message?5size?$AA@ 0000000180047388     libcpmt:syserror.obj
 0002:00001398       ??_C@_0N@KIIEAAIO@network?5down?$AA@ 0000000180047398     libcpmt:syserror.obj
 0002:000013a8       ??_C@_0O@FNPDBHEE@network?5reset?$AA@ 00000001800473a8     libcpmt:syserror.obj
 0002:000013b8       ??_C@_0BE@IFNCKGE@network?5unreachable?$AA@ 00000001800473b8     libcpmt:syserror.obj
 0002:000013d0       ??_C@_0BA@PFFCAOFK@no?5buffer?5space?$AA@ 00000001800473d0     libcpmt:syserror.obj
 0002:000013e0       ??_C@_0BB@IEPBLJHK@no?5child?5process?$AA@ 00000001800473e0     libcpmt:syserror.obj
 0002:000013f8       ??_C@_07PLECNNKG@no?5link?$AA@ 00000001800473f8     libcpmt:syserror.obj
 0002:00001400       ??_C@_0BC@NJECKMKE@no?5lock?5available?$AA@ 0000000180047400     libcpmt:syserror.obj
 0002:00001418       ??_C@_0BF@PBGGPKKE@no?5message?5available?$AA@ 0000000180047418     libcpmt:syserror.obj
 0002:00001430       ??_C@_0L@EDOLMPAK@no?5message?$AA@ 0000000180047430     libcpmt:syserror.obj
 0002:00001440       ??_C@_0BD@EAMBFIDF@no?5protocol?5option?$AA@ 0000000180047440     libcpmt:syserror.obj
 0002:00001458       ??_C@_0BD@IJDJKDEA@no?5space?5on?5device?$AA@ 0000000180047458     libcpmt:syserror.obj
 0002:00001470       ??_C@_0BE@MKFDAFMP@no?5stream?5resources?$AA@ 0000000180047470     libcpmt:syserror.obj
 0002:00001488       ??_C@_0BK@IMCPHCBI@no?5such?5device?5or?5address?$AA@ 0000000180047488     libcpmt:syserror.obj
 0002:000014a8       ??_C@_0P@FDINDDOK@no?5such?5device?$AA@ 00000001800474a8     libcpmt:syserror.obj
 0002:000014b8       ??_C@_0BK@NDOCBPGE@no?5such?5file?5or?5directory?$AA@ 00000001800474b8     libcpmt:syserror.obj
 0002:000014d8       ??_C@_0BA@ENLPPKBN@no?5such?5process?$AA@ 00000001800474d8     libcpmt:syserror.obj
 0002:000014e8       ??_C@_0BA@DOCPFFJG@not?5a?5directory?$AA@ 00000001800474e8     libcpmt:syserror.obj
 0002:000014f8       ??_C@_0N@POEIPGGF@not?5a?5socket?$AA@ 00000001800474f8     libcpmt:syserror.obj
 0002:00001508       ??_C@_0N@LGAPMMPI@not?5a?5stream?$AA@ 0000000180047508     libcpmt:syserror.obj
 0002:00001518       ??_C@_0O@GLMIBBEG@not?5connected?$AA@ 0000000180047518     libcpmt:syserror.obj
 0002:00001528       ??_C@_0BC@ENOOLCNF@not?5enough?5memory?$AA@ 0000000180047528     libcpmt:syserror.obj
 0002:00001540       ??_C@_0O@NHEDABJP@not?5supported?$AA@ 0000000180047540     libcpmt:syserror.obj
 0002:00001550       ??_C@_0BD@MOLBPMEA@operation?5canceled?$AA@ 0000000180047550     libcpmt:syserror.obj
 0002:00001568       ??_C@_0BG@KDKHOPCO@operation?5in?5progress?$AA@ 0000000180047568     libcpmt:syserror.obj
 0002:00001580       ??_C@_0BI@OHIEJAAB@operation?5not?5permitted?$AA@ 0000000180047580     libcpmt:syserror.obj
 0002:00001598       ??_C@_0BI@LNEGIFLN@operation?5not?5supported?$AA@ 0000000180047598     libcpmt:syserror.obj
 0002:000015b0       ??_C@_0BG@OEMDKMEE@operation?5would?5block?$AA@ 00000001800475b0     libcpmt:syserror.obj
 0002:000015c8       ??_C@_0L@BLPOFLNJ@owner?5dead?$AA@ 00000001800475c8     libcpmt:syserror.obj
 0002:000015d8       ??_C@_0BC@CIJDGCDI@permission?5denied?$AA@ 00000001800475d8     libcpmt:syserror.obj
 0002:000015f0       ??_C@_0P@FNPOCJBE@protocol?5error?$AA@ 00000001800475f0     libcpmt:syserror.obj
 0002:00001600       ??_C@_0BH@JPPPLHJB@protocol?5not?5supported?$AA@ 0000000180047600     libcpmt:syserror.obj
 0002:00001618       ??_C@_0BG@EICBIHDP@read?5only?5file?5system?$AA@ 0000000180047618     libcpmt:syserror.obj
 0002:00001630       ??_C@_0BO@BJBOMOEJ@resource?5deadlock?5would?5occur?$AA@ 0000000180047630     libcpmt:syserror.obj
 0002:00001650       ??_C@_0BP@LKNGHENJ@resource?5unavailable?5try?5again?$AA@ 0000000180047650     libcpmt:syserror.obj
 0002:00001670       ??_C@_0BE@GOIPJJHG@result?5out?5of?5range?$AA@ 0000000180047670     libcpmt:syserror.obj
 0002:00001688       ??_C@_0BG@MPLKFPAE@state?5not?5recoverable?$AA@ 0000000180047688     libcpmt:syserror.obj
 0002:000016a0       ??_C@_0P@DIIFGFCG@stream?5timeout?$AA@ 00000001800476a0     libcpmt:syserror.obj
 0002:000016b0       ??_C@_0P@IPFDMIFL@text?5file?5busy?$AA@ 00000001800476b0     libcpmt:syserror.obj
 0002:000016c0       ??_C@_09KJPPMAOI@timed?5out?$AA@ 00000001800476c0     libcpmt:syserror.obj
 0002:000016d0       ??_C@_0BO@HACHBEKI@too?5many?5files?5open?5in?5system?$AA@ 00000001800476d0     libcpmt:syserror.obj
 0002:000016f0       ??_C@_0BE@GHAFMPAH@too?5many?5files?5open?$AA@ 00000001800476f0     libcpmt:syserror.obj
 0002:00001708       ??_C@_0P@HCOMKFCC@too?5many?5links?$AA@ 0000000180047708     libcpmt:syserror.obj
 0002:00001718       ??_C@_0BO@EFGOJEF@too?5many?5symbolic?5link?5levels?$AA@ 0000000180047718     libcpmt:syserror.obj
 0002:00001738       ??_C@_0BA@KGKGOOJA@value?5too?5large?$AA@ 0000000180047738     libcpmt:syserror.obj
 0002:00001748       ??_C@_0BE@MIEJDDNH@wrong?5protocol?5type?$AA@ 0000000180047748     libcpmt:syserror.obj
 0002:00001760       ??_C@_0O@BFJCFAAK@unknown?5error?$AA@ 0000000180047760     libcpmt:syserror.obj
 0002:000017a0       ??_7?$num_put@DV?$ostreambuf_iterator@DU?$char_traits@D@std@@@std@@@std@@6B@ 00000001800477a0     libcpmt:locale.obj
 0002:00001800       ??_7?$numpunct@D@std@@6B@  0000000180047800     libcpmt:locale.obj
 0002:00001840       ??_C@_1BK@MGMFAEKH@?$AAk?$AAe?$AAr?$AAn?$AAe?$AAl?$AA3?$AA2?$AA?4?$AAd?$AAl?$AAl?$AA?$AA@ 0000000180047840     libcpmt:winapisupp.obj
 0002:00001860       ??_C@_08KNHFBNJ@FlsAlloc?$AA@ 0000000180047860     libcpmt:winapisupp.obj
 0002:00001870       ??_C@_07PEJMOBNF@FlsFree?$AA@ 0000000180047870     libcpmt:winapisupp.obj
 0002:00001878       ??_C@_0M@GDNOONDI@FlsGetValue?$AA@ 0000000180047878     libcpmt:winapisupp.obj
 0002:00001888       ??_C@_0M@JCPCPOEF@FlsSetValue?$AA@ 0000000180047888     libcpmt:winapisupp.obj
 0002:00001898       ??_C@_0BM@HCFOFFN@InitializeCriticalSectionEx?$AA@ 0000000180047898     libcpmt:winapisupp.obj
 0002:000018b8       ??_C@_0BE@GPLMMCMH@InitOnceExecuteOnce?$AA@ 00000001800478b8     libcpmt:winapisupp.obj
 0002:000018d0       ??_C@_0P@DLHPPCNH@CreateEventExW?$AA@ 00000001800478d0     libcpmt:winapisupp.obj
 0002:000018e0       ??_C@_0BB@MEFPJLHN@CreateSemaphoreW?$AA@ 00000001800478e0     libcpmt:winapisupp.obj
 0002:000018f8       ??_C@_0BD@KIEEOEEH@CreateSemaphoreExW?$AA@ 00000001800478f8     libcpmt:winapisupp.obj
 0002:00001910       ??_C@_0BG@OGFAJCKC@CreateThreadpoolTimer?$AA@ 0000000180047910     libcpmt:winapisupp.obj
 0002:00001928       ??_C@_0BD@LPLEMMDI@SetThreadpoolTimer?$AA@ 0000000180047928     libcpmt:winapisupp.obj
 0002:00001940       ??_C@_0CA@FMNJENH@WaitForThreadpoolTimerCallbacks?$AA@ 0000000180047940     libcpmt:winapisupp.obj
 0002:00001960       ??_C@_0BF@DCFCCNOC@CloseThreadpoolTimer?$AA@ 0000000180047960     libcpmt:winapisupp.obj
 0002:00001978       ??_C@_0BF@FLABGKKM@CreateThreadpoolWait?$AA@ 0000000180047978     libcpmt:winapisupp.obj
 0002:00001990       ??_C@_0BC@MGCOHNA@SetThreadpoolWait?$AA@ 0000000180047990     libcpmt:winapisupp.obj
 0002:000019a8       ??_C@_0BE@OCIOMIMP@CloseThreadpoolWait?$AA@ 00000001800479a8     libcpmt:winapisupp.obj
 0002:000019c0       ??_C@_0BJ@LKGHFHBO@FlushProcessWriteBuffers?$AA@ 00000001800479c0     libcpmt:winapisupp.obj
 0002:000019e0       ??_C@_0BP@KALKKPMO@FreeLibraryWhenCallbackReturns?$AA@ 00000001800479e0     libcpmt:winapisupp.obj
 0002:00001a00       ??_C@_0BK@DFNBACLA@GetCurrentProcessorNumber?$AA@ 0000000180047a00     libcpmt:winapisupp.obj
 0002:00001a20       ??_C@_0BE@FKKLLFLM@CreateSymbolicLinkW?$AA@ 0000000180047a20     libcpmt:winapisupp.obj
 0002:00001a38       ??_C@_0BE@JOGNEJCI@GetCurrentPackageId?$AA@ 0000000180047a38     libcpmt:winapisupp.obj
 0002:00001a50       ??_C@_0P@CDHHOHKP@GetTickCount64?$AA@ 0000000180047a50     libcpmt:winapisupp.obj
 0002:00001a60       ??_C@_0BN@NEEHBBPO@GetFileInformationByHandleEx?$AA@ 0000000180047a60     libcpmt:winapisupp.obj
 0002:00001a80       ??_C@_0BL@KBBHGKCM@SetFileInformationByHandle?$AA@ 0000000180047a80     libcpmt:winapisupp.obj
 0002:00001aa0       ??_C@_0BP@FPNJPEJC@GetSystemTimePreciseAsFileTime?$AA@ 0000000180047aa0     libcpmt:winapisupp.obj
 0002:00001ac0       ??_C@_0BM@HLJJNPAH@InitializeConditionVariable?$AA@ 0000000180047ac0     libcpmt:winapisupp.obj
 0002:00001ae0       ??_C@_0BG@BFNILBLN@WakeConditionVariable?$AA@ 0000000180047ae0     libcpmt:winapisupp.obj
 0002:00001af8       ??_C@_0BJ@PGPPEPCC@WakeAllConditionVariable?$AA@ 0000000180047af8     libcpmt:winapisupp.obj
 0002:00001b18       ??_C@_0BJ@JEBJOJFJ@SleepConditionVariableCS?$AA@ 0000000180047b18     libcpmt:winapisupp.obj
 0002:00001b38       ??_C@_0BC@MMLHEBPB@InitializeSRWLock?$AA@ 0000000180047b38     libcpmt:winapisupp.obj
 0002:00001b50       ??_C@_0BI@OMNLIJDB@AcquireSRWLockExclusive?$AA@ 0000000180047b50     libcpmt:winapisupp.obj
 0002:00001b68       ??_C@_0BL@OGHFEMNA@TryAcquireSRWLockExclusive?$AA@ 0000000180047b68     libcpmt:winapisupp.obj
 0002:00001b88       ??_C@_0BI@HMIEPCNJ@ReleaseSRWLockExclusive?$AA@ 0000000180047b88     libcpmt:winapisupp.obj
 0002:00001ba0       ??_C@_0BK@LGACAGIC@SleepConditionVariableSRW?$AA@ 0000000180047ba0     libcpmt:winapisupp.obj
 0002:00001bc0       ??_C@_0BF@GGPHFPJA@CreateThreadpoolWork?$AA@ 0000000180047bc0     libcpmt:winapisupp.obj
 0002:00001bd8       ??_C@_0BF@NHDAIMMO@SubmitThreadpoolWork?$AA@ 0000000180047bd8     libcpmt:winapisupp.obj
 0002:00001bf0       ??_C@_0BE@NPHIPNPD@CloseThreadpoolWork?$AA@ 0000000180047bf0     libcpmt:winapisupp.obj
 0002:00001c08       ??_C@_0BA@IHGNDAEB@CompareStringEx?$AA@ 0000000180047c08     libcpmt:winapisupp.obj
 0002:00001c18       ??_C@_0BA@ONOKGCMP@GetLocaleInfoEx?$AA@ 0000000180047c18     libcpmt:winapisupp.obj
 0002:00001c28       ??_C@_0O@KKBNKAPF@LCMapStringEx?$AA@ 0000000180047c28     libcpmt:winapisupp.obj
 0002:00001c38       ??_C@_11LOCGONAA@?$AA?$AA@ 0000000180047c38     libcpmt:wlocale.obj
 0002:00001c3c       ??_C@_13IMODFHAA@?$AA?9?$AA?$AA@ 0000000180047c3c     libcpmt:wlocale.obj
 0002:00001c40       ??_C@_01JOAMLHOP@?9?$AA@   0000000180047c40     libcpmt:wlocale.obj
 0002:00001c50       __xmm@80000000000000008000000000000000 0000000180047c50     libcpmt:wlocale.obj
 0002:00001d00       ??_C@_1M@KGPDPBDF@?$AAe?$AAs?$AA?9?$AAc?$AAo?$AA?$AA@ 0000000180047d00     libcpmt:winapinls.obj
 0002:00001d10       ??_C@_1M@EIAHOHH@?$AAe?$AAs?$AA?9?$AAc?$AAr?$AA?$AA@ 0000000180047d10     libcpmt:winapinls.obj
 0002:00001d20       ??_C@_1M@LLPGMBIN@?$AAe?$AAs?$AA?9?$AAd?$AAo?$AA?$AA@ 0000000180047d20     libcpmt:winapinls.obj
 0002:00001d30       ??_C@_1M@DKHMKNJA@?$AAe?$AAs?$AA?9?$AAe?$AAc?$AA?$AA@ 0000000180047d30     libcpmt:winapinls.obj
 0002:00001d40       ??_C@_1M@GKGFPKAP@?$AAe?$AAs?$AA?9?$AAe?$AAs?$AA?$AA@ 0000000180047d40     libcpmt:winapinls.obj
 0002:00001d50       ??_C@_1M@LKHKGDLN@?$AAe?$AAs?$AA?9?$AAg?$AAt?$AA?$AA@ 0000000180047d50     libcpmt:winapinls.obj
 0002:00001d60       ??_C@_1M@HEIIGGJD@?$AAe?$AAs?$AA?9?$AAh?$AAn?$AA?$AA@ 0000000180047d60     libcpmt:winapinls.obj
 0002:00001d70       ??_C@_1M@FBDHPPGD@?$AAe?$AAs?$AA?9?$AAm?$AAx?$AA?$AA@ 0000000180047d70     libcpmt:winapinls.obj
 0002:00001d80       ??_C@_1M@DPAGLNDH@?$AAe?$AAs?$AA?9?$AAn?$AAi?$AA?$AA@ 0000000180047d80     libcpmt:winapinls.obj
 0002:00001d90       ??_C@_1M@MDGOPGDD@?$AAe?$AAs?$AA?9?$AAp?$AAa?$AA?$AA@ 0000000180047d90     libcpmt:winapinls.obj
 0002:00001da0       ??_C@_1M@EMAMGBGE@?$AAe?$AAs?$AA?9?$AAp?$AAe?$AA?$AA@ 0000000180047da0     libcpmt:winapinls.obj
 0002:00001db0       ??_C@_1M@IBMCAOEC@?$AAe?$AAs?$AA?9?$AAp?$AAr?$AA?$AA@ 0000000180047db0     libcpmt:winapinls.obj
 0002:00001dc0       ??_C@_1M@FGMDIJED@?$AAe?$AAs?$AA?9?$AAp?$AAy?$AA?$AA@ 0000000180047dc0     libcpmt:winapinls.obj
 0002:00001dd0       ??_C@_1M@IIDEOLLL@?$AAe?$AAs?$AA?9?$AAs?$AAv?$AA?$AA@ 0000000180047dd0     libcpmt:winapinls.obj
 0002:00001de0       ??_C@_1M@GAOBIPA@?$AAe?$AAs?$AA?9?$AAu?$AAy?$AA?$AA@ 0000000180047de0     libcpmt:winapinls.obj
 0002:00001df0       ??_C@_1M@JKFFICHJ@?$AAe?$AAs?$AA?9?$AAv?$AAe?$AA?$AA@ 0000000180047df0     libcpmt:winapinls.obj
 0002:00001e00       ??_C@_1M@PNMLOJDF@?$AAe?$AAt?$AA?9?$AAe?$AAe?$AA?$AA@ 0000000180047e00     libcpmt:winapinls.obj
 0002:00001e10       ??_C@_1M@GHHLIKEI@?$AAe?$AAu?$AA?9?$AAe?$AAs?$AA?$AA@ 0000000180047e10     libcpmt:winapinls.obj
 0002:00001e20       ??_C@_1M@PBNONODE@?$AAf?$AAa?$AA?9?$AAi?$AAr?$AA?$AA@ 0000000180047e20     libcpmt:winapinls.obj
 0002:00001e30       ??_C@_1M@JEEHPMIL@?$AAf?$AAi?$AA?9?$AAf?$AAi?$AA?$AA@ 0000000180047e30     libcpmt:winapinls.obj
 0002:00001e40       ??_C@_1M@LMDCNDBA@?$AAf?$AAo?$AA?9?$AAf?$AAo?$AA?$AA@ 0000000180047e40     libcpmt:winapinls.obj
 0002:00001e50       ??_C@_1M@JKEOHLDK@?$AAf?$AAr?$AA?9?$AAb?$AAe?$AA?$AA@ 0000000180047e50     libcpmt:winapinls.obj
 0002:00001e60       ??_C@_1M@NOHADPMI@?$AAf?$AAr?$AA?9?$AAc?$AAa?$AA?$AA@ 0000000180047e60     libcpmt:winapinls.obj
 0002:00001e70       ??_C@_1M@KDHIHAEC@?$AAf?$AAr?$AA?9?$AAc?$AAh?$AA?$AA@ 0000000180047e70     libcpmt:winapinls.obj
 0002:00001e80       ??_C@_1M@MMBBFGAK@?$AAf?$AAr?$AA?9?$AAf?$AAr?$AA?$AA@ 0000000180047e80     libcpmt:winapinls.obj
 0002:00001e90       ??_C@_1M@PAFNENNF@?$AAf?$AAr?$AA?9?$AAl?$AAu?$AA?$AA@ 0000000180047e90     libcpmt:winapinls.obj
 0002:00001ea0       ??_C@_1M@EOHDJGDD@?$AAf?$AAr?$AA?9?$AAm?$AAc?$AA?$AA@ 0000000180047ea0     libcpmt:winapinls.obj
 0002:00001eb0       ??_C@_1M@FAPLLOPF@?$AAg?$AAl?$AA?9?$AAe?$AAs?$AA?$AA@ 0000000180047eb0     libcpmt:winapinls.obj
 0002:00001ec0       ??_C@_1M@FOPBFLOO@?$AAg?$AAu?$AA?9?$AAi?$AAn?$AA?$AA@ 0000000180047ec0     libcpmt:winapinls.obj
 0002:00001ed0       ??_C@_1M@KBMCINPM@?$AAh?$AAe?$AA?9?$AAi?$AAl?$AA?$AA@ 0000000180047ed0     libcpmt:winapinls.obj
 0002:00001ee0       ??_C@_1M@BBPHKFPJ@?$AAh?$AAi?$AA?9?$AAi?$AAn?$AA?$AA@ 0000000180047ee0     libcpmt:winapinls.obj
 0002:00001ef0       ??_C@_1M@PMBNDPHD@?$AAh?$AAr?$AA?9?$AAb?$AAa?$AA?$AA@ 0000000180047ef0     libcpmt:winapinls.obj
 0002:00001f00       ??_C@_1M@BPCKOEGE@?$AAh?$AAr?$AA?9?$AAh?$AAr?$AA?$AA@ 0000000180047f00     libcpmt:winapinls.obj
 0002:00001f10       ??_C@_1M@GACBMHKE@?$AAh?$AAu?$AA?9?$AAh?$AAu?$AA?$AA@ 0000000180047f10     libcpmt:winapinls.obj
 0002:00001f20       ??_C@_1M@MILPAJJC@?$AAh?$AAy?$AA?9?$AAa?$AAm?$AA?$AA@ 0000000180047f20     libcpmt:winapinls.obj
 0002:00001f30       ??_C@_1M@BABBICEC@?$AAi?$AAd?$AA?9?$AAi?$AAd?$AA?$AA@ 0000000180047f30     libcpmt:winapinls.obj
 0002:00001f40       ??_C@_1M@BIKNHHPF@?$AAi?$AAs?$AA?9?$AAi?$AAs?$AA?$AA@ 0000000180047f40     libcpmt:winapinls.obj
 0002:00001f50       ??_C@_1M@NMPCJPHE@?$AAi?$AAt?$AA?9?$AAc?$AAh?$AA?$AA@ 0000000180047f50     libcpmt:winapinls.obj
 0002:00001f60       ??_C@_1M@GHKGFEDF@?$AAi?$AAt?$AA?9?$AAi?$AAt?$AA?$AA@ 0000000180047f60     libcpmt:winapinls.obj
 0002:00001f70       ??_C@_1M@NIEJCJJA@?$AAj?$AAa?$AA?9?$AAj?$AAp?$AA?$AA@ 0000000180047f70     libcpmt:winapinls.obj
 0002:00001f80       ??_C@_1M@JILFNBIM@?$AAk?$AAa?$AA?9?$AAg?$AAe?$AA?$AA@ 0000000180047f80     libcpmt:winapinls.obj
 0002:00001f90       ??_C@_1M@PACPMGPH@?$AAk?$AAk?$AA?9?$AAk?$AAz?$AA?$AA@ 0000000180047f90     libcpmt:winapinls.obj
 0002:00001fa0       ??_C@_1M@IELFGMHA@?$AAk?$AAn?$AA?9?$AAi?$AAn?$AA?$AA@ 0000000180047fa0     libcpmt:winapinls.obj
 0002:00001fb0       ??_C@_1M@DMHAEOGC@?$AAk?$AAo?$AA?9?$AAk?$AAr?$AA?$AA@ 0000000180047fb0     libcpmt:winapinls.obj
 0002:00001fc0       ??_C@_1O@IBBJHCH@?$AAk?$AAo?$AAk?$AA?9?$AAi?$AAn?$AA?$AA@ 0000000180047fc0     libcpmt:winapinls.obj
 0002:00001fd0       ??_C@_1M@HBAHBIGA@?$AAk?$AAy?$AA?9?$AAk?$AAg?$AA?$AA@ 0000000180047fd0     libcpmt:winapinls.obj
 0002:00001fe0       ??_C@_1M@KPMILCJG@?$AAl?$AAt?$AA?9?$AAl?$AAt?$AA?$AA@ 0000000180047fe0     libcpmt:winapinls.obj
 0002:00001ff0       ??_C@_1M@BDEKKCA@?$AAl?$AAv?$AA?9?$AAl?$AAv?$AA?$AA@ 0000000180047ff0     libcpmt:winapinls.obj
 0002:00002000       ??_C@_1M@ELCKCCJJ@?$AAm?$AAi?$AA?9?$AAn?$AAz?$AA?$AA@ 0000000180048000     libcpmt:winapinls.obj
 0002:00002010       ??_C@_1M@CBOOLAPA@?$AAm?$AAk?$AA?9?$AAm?$AAk?$AA?$AA@ 0000000180048010     libcpmt:winapinls.obj
 0002:00002020       ??_C@_1M@GPHNBJKN@?$AAm?$AAl?$AA?9?$AAi?$AAn?$AA?$AA@ 0000000180048020     libcpmt:winapinls.obj
 0002:00002030       ??_C@_1M@PABJILIG@?$AAm?$AAn?$AA?9?$AAm?$AAn?$AA?$AA@ 0000000180048030     libcpmt:winapinls.obj
 0002:00002040       ??_C@_1M@FGBKKIPG@?$AAm?$AAr?$AA?9?$AAi?$AAn?$AA?$AA@ 0000000180048040     libcpmt:winapinls.obj
 0002:00002050       ??_C@_1M@NDBPDDAL@?$AAm?$AAs?$AA?9?$AAb?$AAn?$AA?$AA@ 0000000180048050     libcpmt:winapinls.obj
 0002:00002060       ??_C@_1M@OPIHOOPI@?$AAm?$AAs?$AA?9?$AAm?$AAy?$AA?$AA@ 0000000180048060     libcpmt:winapinls.obj
 0002:00002070       ??_C@_1M@PPDBCNFM@?$AAm?$AAt?$AA?9?$AAm?$AAt?$AA?$AA@ 0000000180048070     libcpmt:winapinls.obj
 0002:00002080       ??_C@_1M@KDJDKMDD@?$AAn?$AAb?$AA?9?$AAn?$AAo?$AA?$AA@ 0000000180048080     libcpmt:winapinls.obj
 0002:00002090       ??_C@_1M@KFCFLMJP@?$AAn?$AAl?$AA?9?$AAb?$AAe?$AA?$AA@ 0000000180048090     libcpmt:winapinls.obj
 0002:000020a0       ??_C@_1M@KPOPDDGO@?$AAn?$AAl?$AA?9?$AAn?$AAl?$AA?$AA@ 00000001800480a0     libcpmt:winapinls.obj
 0002:000020b0       ??_C@_1M@LJKPEMLN@?$AAn?$AAn?$AA?9?$AAn?$AAo?$AA?$AA@ 00000001800480b0     libcpmt:winapinls.obj
 0002:000020c0       ??_C@_1M@BDGHHBFL@?$AAn?$AAs?$AA?9?$AAz?$AAa?$AA?$AA@ 00000001800480c0     libcpmt:winapinls.obj
 0002:000020d0       ??_C@_1M@IDEHOAP@?$AAp?$AAa?$AA?9?$AAi?$AAn?$AA?$AA@ 00000001800480d0     libcpmt:winapinls.obj
 0002:000020e0       ??_C@_1M@HDBKGOGH@?$AAp?$AAl?$AA?9?$AAp?$AAl?$AA?$AA@ 00000001800480e0     libcpmt:winapinls.obj
 0002:000020f0       ??_C@_1M@LJLLCMEH@?$AAp?$AAt?$AA?9?$AAb?$AAr?$AA?$AA@ 00000001800480f0     libcpmt:winapinls.obj
 0002:00002100       ??_C@_1M@NCMONAAL@?$AAp?$AAt?$AA?9?$AAp?$AAt?$AA?$AA@ 0000000180048100     libcpmt:winapinls.obj
 0002:00002110       ??_C@_1O@EAKMAJDN@?$AAq?$AAu?$AAz?$AA?9?$AAb?$AAo?$AA?$AA@ 0000000180048110     libcpmt:winapinls.obj
 0002:00002120       ??_C@_1O@BHHPIGDN@?$AAq?$AAu?$AAz?$AA?9?$AAe?$AAc?$AA?$AA@ 0000000180048120     libcpmt:winapinls.obj
 0002:00002130       ??_C@_1O@GBAPEKMJ@?$AAq?$AAu?$AAz?$AA?9?$AAp?$AAe?$AA?$AA@ 0000000180048130     libcpmt:winapinls.obj
 0002:00002140       ??_C@_1M@CLGLEFBO@?$AAr?$AAo?$AA?9?$AAr?$AAo?$AA?$AA@ 0000000180048140     libcpmt:winapinls.obj
 0002:00002150       ??_C@_1M@CEEDODME@?$AAr?$AAu?$AA?9?$AAr?$AAu?$AA?$AA@ 0000000180048150     libcpmt:winapinls.obj
 0002:00002160       ??_C@_1M@HPKKKMPP@?$AAs?$AAa?$AA?9?$AAi?$AAn?$AA?$AA@ 0000000180048160     libcpmt:winapinls.obj
 0002:00002170       ??_C@_1M@BKMAIGOJ@?$AAs?$AAe?$AA?9?$AAf?$AAi?$AA?$AA@ 0000000180048170     libcpmt:winapinls.obj
 0002:00002180       ??_C@_1M@NDPIFLFI@?$AAs?$AAe?$AA?9?$AAn?$AAo?$AA?$AA@ 0000000180048180     libcpmt:winapinls.obj
 0002:00002190       ??_C@_1M@DANKKHJ@?$AAs?$AAe?$AA?9?$AAs?$AAe?$AA?$AA@ 0000000180048190     libcpmt:winapinls.obj
 0002:000021a0       ??_C@_1M@PNBLONPJ@?$AAs?$AAk?$AA?9?$AAs?$AAk?$AA?$AA@ 00000001800481a0     libcpmt:winapinls.obj
 0002:000021b0       ??_C@_1M@LFMODOAL@?$AAs?$AAl?$AA?9?$AAs?$AAi?$AA?$AA@ 00000001800481b0     libcpmt:winapinls.obj
 0002:000021c0       ??_C@_1O@DFKOMPG@?$AAs?$AAm?$AAa?$AA?9?$AAn?$AAo?$AA?$AA@ 00000001800481c0     libcpmt:winapinls.obj
 0002:000021d0       ??_C@_1O@NDKPBNNH@?$AAs?$AAm?$AAa?$AA?9?$AAs?$AAe?$AA?$AA@ 00000001800481d0     libcpmt:winapinls.obj
 0002:000021e0       ??_C@_1O@PLLKBHAB@?$AAs?$AAm?$AAj?$AA?9?$AAn?$AAo?$AA?$AA@ 00000001800481e0     libcpmt:winapinls.obj
 0002:000021f0       ??_C@_1O@CLEPOGCA@?$AAs?$AAm?$AAj?$AA?9?$AAs?$AAe?$AA?$AA@ 00000001800481f0     libcpmt:winapinls.obj
 0002:00002200       ??_C@_1O@DLGJGKMK@?$AAs?$AAm?$AAn?$AA?9?$AAf?$AAi?$AA?$AA@ 0000000180048200     libcpmt:winapinls.obj
 0002:00002210       ??_C@_1O@OJDJGAJC@?$AAs?$AAm?$AAs?$AA?9?$AAf?$AAi?$AA?$AA@ 0000000180048210     libcpmt:winapinls.obj
 0002:00002220       ??_C@_1M@BOFOGHPB@?$AAs?$AAq?$AA?9?$AAa?$AAl?$AA?$AA@ 0000000180048220     libcpmt:winapinls.obj
 0002:00002230       ??_C@_1BG@LJBBIPGB@?$AAs?$AAr?$AA?9?$AAb?$AAa?$AA?9?$AAc?$AAy?$AAr?$AAl?$AA?$AA@ 0000000180048230     libcpmt:winapinls.obj
 0002:00002248       ??_C@_1BG@JLBENFOE@?$AAs?$AAr?$AA?9?$AAb?$AAa?$AA?9?$AAl?$AAa?$AAt?$AAn?$AA?$AA@ 0000000180048248     libcpmt:winapinls.obj
 0002:00002260       ??_C@_1BG@KODPNHE@?$AAs?$AAr?$AA?9?$AAs?$AAp?$AA?9?$AAc?$AAy?$AAr?$AAl?$AA?$AA@ 0000000180048260     libcpmt:winapinls.obj
 0002:00002278       ??_C@_1BG@CIOGKHPB@?$AAs?$AAr?$AA?9?$AAs?$AAp?$AA?9?$AAl?$AAa?$AAt?$AAn?$AA?$AA@ 0000000180048278     libcpmt:winapinls.obj
 0002:00002290       ??_C@_1M@NGFJLMAC@?$AAs?$AAv?$AA?9?$AAf?$AAi?$AA?$AA@ 0000000180048290     libcpmt:winapinls.obj
 0002:000022a0       ??_C@_1M@MPJEJAJC@?$AAs?$AAv?$AA?9?$AAs?$AAe?$AA?$AA@ 00000001800482a0     libcpmt:winapinls.obj
 0002:000022b0       ??_C@_1M@MPNDHLFK@?$AAs?$AAw?$AA?9?$AAk?$AAe?$AA?$AA@ 00000001800482b0     libcpmt:winapinls.obj
 0002:000022c0       ??_C@_1O@KOHBJJI@?$AAs?$AAy?$AAr?$AA?9?$AAs?$AAy?$AA?$AA@ 00000001800482c0     libcpmt:winapinls.obj
 0002:000022d0       ??_C@_1M@LDCEFHA@?$AAt?$AAa?$AA?9?$AAi?$AAn?$AA?$AA@ 00000001800482d0     libcpmt:winapinls.obj
 0002:000022e0       ??_C@_1M@CNJOFAK@?$AAt?$AAe?$AA?9?$AAi?$AAn?$AA?$AA@ 00000001800482e0     libcpmt:winapinls.obj
 0002:000022f0       ??_C@_1M@GNAECACD@?$AAt?$AAh?$AA?9?$AAt?$AAh?$AA?$AA@ 00000001800482f0     libcpmt:winapinls.obj
 0002:00002300       ??_C@_1M@CHBIHOJO@?$AAt?$AAn?$AA?9?$AAz?$AAa?$AA?$AA@ 0000000180048300     libcpmt:winapinls.obj
 0002:00002310       ??_C@_1M@GCCMIGPJ@?$AAt?$AAr?$AA?9?$AAt?$AAr?$AA?$AA@ 0000000180048310     libcpmt:winapinls.obj
 0002:00002320       ??_C@_1M@CELMCNBK@?$AAt?$AAt?$AA?9?$AAr?$AAu?$AA?$AA@ 0000000180048320     libcpmt:winapinls.obj
 0002:00002330       ??_C@_1M@KLMCELGA@?$AAu?$AAk?$AA?9?$AAu?$AAa?$AA?$AA@ 0000000180048330     libcpmt:winapinls.obj
 0002:00002340       ??_C@_1M@EPAJJAJF@?$AAu?$AAr?$AA?9?$AAp?$AAk?$AA?$AA@ 0000000180048340     libcpmt:winapinls.obj
 0002:00002350       ??_C@_1BG@GEGPMCDJ@?$AAu?$AAz?$AA?9?$AAu?$AAz?$AA?9?$AAc?$AAy?$AAr?$AAl?$AA?$AA@ 0000000180048350     libcpmt:winapinls.obj
 0002:00002368       ??_C@_1BG@EGGKJILM@?$AAu?$AAz?$AA?9?$AAu?$AAz?$AA?9?$AAl?$AAa?$AAt?$AAn?$AA?$AA@ 0000000180048368     libcpmt:winapinls.obj
 0002:00002380       ??_C@_1M@GFOCLFF@?$AAv?$AAi?$AA?9?$AAv?$AAn?$AA?$AA@ 0000000180048380     libcpmt:winapinls.obj
 0002:00002390       ??_C@_1M@CPAMEDFI@?$AAx?$AAh?$AA?9?$AAz?$AAa?$AA?$AA@ 0000000180048390     libcpmt:winapinls.obj
 0002:000023a0       ??_C@_1O@EBKIFIGN@?$AAz?$AAh?$AA?9?$AAc?$AAh?$AAs?$AA?$AA@ 00000001800483a0     libcpmt:winapinls.obj
 0002:000023b0       ??_C@_1O@NMHPGANE@?$AAz?$AAh?$AA?9?$AAc?$AAh?$AAt?$AA?$AA@ 00000001800483b0     libcpmt:winapinls.obj
 0002:000023c0       ??_C@_1M@LPINJOMC@?$AAz?$AAh?$AA?9?$AAc?$AAn?$AA?$AA@ 00000001800483c0     libcpmt:winapinls.obj
 0002:000023d0       ??_C@_1M@OCJEJODD@?$AAz?$AAh?$AA?9?$AAh?$AAk?$AA?$AA@ 00000001800483d0     libcpmt:winapinls.obj
 0002:000023e0       ??_C@_1M@DNDLJINH@?$AAz?$AAh?$AA?9?$AAm?$AAo?$AA?$AA@ 00000001800483e0     libcpmt:winapinls.obj
 0002:000023f0       ??_C@_1M@MBFDNDND@?$AAz?$AAh?$AA?9?$AAs?$AAg?$AA?$AA@ 00000001800483f0     libcpmt:winapinls.obj
 0002:00002400       ??_C@_1M@IMEPLEPE@?$AAz?$AAh?$AA?9?$AAt?$AAw?$AA?$AA@ 0000000180048400     libcpmt:winapinls.obj
 0002:00002410       ??_C@_1M@BBGHNHJP@?$AAz?$AAu?$AA?9?$AAz?$AAa?$AA?$AA@ 0000000180048410     libcpmt:winapinls.obj
 0002:000040a0       ??_C@_15EMKDOKLE@?$AAa?$AAr?$AA?$AA@ 000000018004a0a0     libcpmt:winapinls.obj
 0002:000040a8       ??_C@_15KNPADPLH@?$AAb?$AAg?$AA?$AA@ 000000018004a0a8     libcpmt:winapinls.obj
 0002:000040b0       ??_C@_15EDMHLDMO@?$AAc?$AAa?$AA?$AA@ 000000018004a0b0     libcpmt:winapinls.obj
 0002:000040b8       ??_C@_1O@BPEAJADD@?$AAz?$AAh?$AA?9?$AAC?$AAH?$AAS?$AA?$AA@ 000000018004a0b8     libcpmt:winapinls.obj
 0002:000040c8       ??_C@_15LJNHCMNK@?$AAc?$AAs?$AA?$AA@ 000000018004a0c8     libcpmt:winapinls.obj
 0002:000040d0       ??_C@_15FOMCIDHG@?$AAd?$AAa?$AA?$AA@ 000000018004a0d0     libcpmt:winapinls.obj
 0002:000040d8       ??_C@_15NBKABECB@?$AAd?$AAe?$AA?$AA@ 000000018004a0d8     libcpmt:winapinls.obj
 0002:000040e0       ??_C@_15GHPEIIAO@?$AAe?$AAl?$AA?$AA@ 000000018004a0e0     libcpmt:winapinls.obj
 0002:000040e8       ??_C@_15MNPNEAIF@?$AAe?$AAn?$AA?$AA@ 000000018004a0e8     libcpmt:winapinls.obj
 0002:000040f0       ??_C@_15GPIOMPMH@?$AAe?$AAs?$AA?$AA@ 000000018004a0f0     libcpmt:winapinls.obj
 0002:000040f8       ??_C@_15NGLOAKJC@?$AAf?$AAi?$AA?$AA@ 000000018004a0f8     libcpmt:winapinls.obj
 0002:00004100       ??_C@_15FBKGNKAM@?$AAf?$AAr?$AA?$AA@ 000000018004a100     libcpmt:winapinls.obj
 0002:00004108       ??_C@_15KGGCNEFK@?$AAh?$AAe?$AA?$AA@ 000000018004a108     libcpmt:winapinls.obj
 0002:00004110       ??_C@_15PGHLIDMF@?$AAh?$AAu?$AA?$AA@ 000000018004a110     libcpmt:winapinls.obj
 0002:00004118       ??_C@_15BIEMAPLM@?$AAi?$AAs?$AA?$AA@ 000000018004a118     libcpmt:winapinls.obj
 0002:00004120       ??_C@_15IFJLDHAF@?$AAi?$AAt?$AA?$AA@ 000000018004a120     libcpmt:winapinls.obj
 0002:00004128       ??_C@_15GEMIOCAG@?$AAj?$AAa?$AA?$AA@ 000000018004a128     libcpmt:winapinls.obj
 0002:00004130       ??_C@_15EPELEGJA@?$AAk?$AAo?$AA?$AA@ 000000018004a130     libcpmt:winapinls.obj
 0002:00004138       ??_C@_15NDDHIMN@?$AAn?$AAl?$AA?$AA@ 000000018004a138     libcpmt:winapinls.obj
 0002:00004140       ??_C@_15BPIGNHCD@?$AAn?$AAo?$AA?$AA@ 000000018004a140     libcpmt:winapinls.obj
 0002:00004148       ??_C@_15DEOPBLCG@?$AAp?$AAl?$AA?$AA@ 000000018004a148     libcpmt:winapinls.obj
 0002:00004150       ??_C@_15KBECGEFG@?$AAp?$AAt?$AA?$AA@ 000000018004a150     libcpmt:winapinls.obj
 0002:00004158       ??_C@_15GLJCBFMD@?$AAr?$AAo?$AA?$AA@ 000000018004a158     libcpmt:winapinls.obj
 0002:00004160       ??_C@_15FEDGKCDI@?$AAr?$AAu?$AA?$AA@ 000000018004a160     libcpmt:winapinls.obj
 0002:00004168       ??_C@_15GLKMLLHM@?$AAh?$AAr?$AA?$AA@ 000000018004a168     libcpmt:winapinls.obj
 0002:00004170       ??_C@_15CPKMFBDB@?$AAs?$AAk?$AA?$AA@ 000000018004a170     libcpmt:winapinls.obj
 0002:00004178       ??_C@_15BAAIOGMK@?$AAs?$AAq?$AA?$AA@ 000000018004a178     libcpmt:winapinls.obj
 0002:00004180       ??_C@_15INNPNOHD@?$AAs?$AAv?$AA?$AA@ 000000018004a180     libcpmt:winapinls.obj
 0002:00004188       ??_C@_15CABMMOGH@?$AAt?$AAh?$AA?$AA@ 000000018004a188     libcpmt:winapinls.obj
 0002:00004190       ??_C@_15BPLIHJJM@?$AAt?$AAr?$AA?$AA@ 000000018004a190     libcpmt:winapinls.obj
 0002:00004198       ??_C@_15NEOEKKDJ@?$AAu?$AAr?$AA?$AA@ 000000018004a198     libcpmt:winapinls.obj
 0002:000041a0       ??_C@_15NFICGAJK@?$AAi?$AAd?$AA?$AA@ 000000018004a1a0     libcpmt:winapinls.obj
 0002:000041a8       ??_C@_15PJPFLCCM@?$AAu?$AAk?$AA?$AA@ 000000018004a1a8     libcpmt:winapinls.obj
 0002:000041b0       ??_C@_15HPJPHDM@?$AAb?$AAe?$AA?$AA@ 000000018004a1b0     libcpmt:winapinls.obj
 0002:000041b8       ??_C@_15LCHLGJII@?$AAs?$AAl?$AA?$AA@ 000000018004a1b8     libcpmt:winapinls.obj
 0002:000041c0       ??_C@_15PCFJPHHO@?$AAe?$AAt?$AA?$AA@ 000000018004a1c0     libcpmt:winapinls.obj
 0002:000041c8       ??_C@_15HPFPGODN@?$AAl?$AAv?$AA?$AA@ 000000018004a1c8     libcpmt:winapinls.obj
 0002:000041d0       ??_C@_15NFFGKGLG@?$AAl?$AAt?$AA?$AA@ 000000018004a1d0     libcpmt:winapinls.obj
 0002:000041d8       ??_C@_15BDAKCCHN@?$AAf?$AAa?$AA?$AA@ 000000018004a1d8     libcpmt:winapinls.obj
 0002:000041e0       ??_C@_15NFGIAIAJ@?$AAv?$AAi?$AA?$AA@ 000000018004a1e0     libcpmt:winapinls.obj
 0002:000041e8       ??_C@_15LMKNDMHN@?$AAh?$AAy?$AA?$AA@ 000000018004a1e8     libcpmt:winapinls.obj
 0002:000041f0       ??_C@_15IJBHMCFL@?$AAa?$AAz?$AA?$AA@ 000000018004a1f0     libcpmt:winapinls.obj
 0002:000041f8       ??_C@_15EKOFJABL@?$AAe?$AAu?$AA?$AA@ 000000018004a1f8     libcpmt:winapinls.obj
 0002:00004200       ??_C@_15BGHADCNK@?$AAm?$AAk?$AA?$AA@ 000000018004a200     libcpmt:winapinls.obj
 0002:00004208       ??_C@_15JDNICKHM@?$AAa?$AAf?$AA?$AA@ 000000018004a208     libcpmt:winapinls.obj
 0002:00004210       ??_C@_15KPJEDBKD@?$AAk?$AAa?$AA?$AA@ 000000018004a210     libcpmt:winapinls.obj
 0002:00004218       ??_C@_15PDNFFFEO@?$AAf?$AAo?$AA?$AA@ 000000018004a218     libcpmt:winapinls.obj
 0002:00004220       ??_C@_15OMLEGLOC@?$AAh?$AAi?$AA?$AA@ 000000018004a220     libcpmt:winapinls.obj
 0002:00004228       ??_C@_15IDNNENKK@?$AAm?$AAs?$AA?$AA@ 000000018004a228     libcpmt:winapinls.obj
 0002:00004230       ??_C@_15MACJNBMH@?$AAk?$AAk?$AA?$AA@ 000000018004a230     libcpmt:winapinls.obj
 0002:00004238       ??_C@_15DKDJEOND@?$AAk?$AAy?$AA?$AA@ 000000018004a238     libcpmt:winapinls.obj
 0002:00004240       ??_C@_15DFGDLJBG@?$AAs?$AAw?$AA?$AA@ 000000018004a240     libcpmt:winapinls.obj
 0002:00004248       ??_C@_15BBFAICNG@?$AAu?$AAz?$AA?$AA@ 000000018004a248     libcpmt:winapinls.obj
 0002:00004250       ??_C@_15DKNDCGEA@?$AAt?$AAt?$AA?$AA@ 000000018004a250     libcpmt:winapinls.obj
 0002:00004258       ??_C@_15MGIFMDPL@?$AAp?$AAa?$AA?$AA@ 000000018004a258     libcpmt:winapinls.obj
 0002:00004260       ??_C@_15HCNDBBA@?$AAg?$AAu?$AA?$AA@ 000000018004a260     libcpmt:winapinls.obj
 0002:00004268       ??_C@_15FNBEIBON@?$AAt?$AAa?$AA?$AA@ 000000018004a268     libcpmt:winapinls.obj
 0002:00004270       ??_C@_15NCHGBGLK@?$AAt?$AAe?$AA?$AA@ 000000018004a270     libcpmt:winapinls.obj
 0002:00004278       ??_C@_15PHPHCBPF@?$AAk?$AAn?$AA?$AA@ 000000018004a278     libcpmt:winapinls.obj
 0002:00004280       ??_C@_15DLGBCKMP@?$AAm?$AAr?$AA?$AA@ 000000018004a280     libcpmt:winapinls.obj
 0002:00004288       ??_C@_15EABBLBFF@?$AAs?$AAa?$AA?$AA@ 000000018004a288     libcpmt:winapinls.obj
 0002:00004290       ??_C@_15CBKOMCOI@?$AAm?$AAn?$AA?$AA@ 000000018004a290     libcpmt:winapinls.obj
 0002:00004298       ??_C@_15CKDMCJAF@?$AAg?$AAl?$AA?$AA@ 000000018004a298     libcpmt:winapinls.obj
 0002:000042a0       ??_C@_17CNJFBPG@?$AAk?$AAo?$AAk?$AA?$AA@ 000000018004a2a0     libcpmt:winapinls.obj
 0002:000042a8       ??_C@_17FFBJICPL@?$AAs?$AAy?$AAr?$AA?$AA@ 000000018004a2a8     libcpmt:winapinls.obj
 0002:000042b0       ??_C@_17KPNDCPAF@?$AAd?$AAi?$AAv?$AA?$AA@ 000000018004a2b0     libcpmt:winapinls.obj
 0002:000042b8       ??_C@_1M@OKAHONE@?$AAa?$AAr?$AA?9?$AAS?$AAA?$AA?$AA@ 000000018004a2b8     libcpmt:winapinls.obj
 0002:000042c8       ??_C@_1M@FFFIGIGK@?$AAb?$AAg?$AA?9?$AAB?$AAG?$AA?$AA@ 000000018004a2c8     libcpmt:winapinls.obj
 0002:000042d8       ??_C@_1M@BJNKEDC@?$AAc?$AAa?$AA?9?$AAE?$AAS?$AA?$AA@ 000000018004a2d8     libcpmt:winapinls.obj
 0002:000042e8       ??_C@_1M@CLNBBOPM@?$AAz?$AAh?$AA?9?$AAT?$AAW?$AA?$AA@ 000000018004a2e8     libcpmt:winapinls.obj
 0002:000042f8       ??_C@_1M@IJJHFJHA@?$AAc?$AAs?$AA?9?$AAC?$AAZ?$AA?$AA@ 000000018004a2f8     libcpmt:winapinls.obj
 0002:00004308       ??_C@_1M@CLPEOBGI@?$AAd?$AAa?$AA?9?$AAD?$AAK?$AA?$AA@ 000000018004a308     libcpmt:winapinls.obj
 0002:00004318       ??_C@_1M@MCMADGCB@?$AAd?$AAe?$AA?9?$AAD?$AAE?$AA?$AA@ 000000018004a318     libcpmt:winapinls.obj
 0002:00004328       ??_C@_1M@OOCKEMAM@?$AAe?$AAl?$AA?9?$AAG?$AAR?$AA?$AA@ 000000018004a328     libcpmt:winapinls.obj
 0002:00004338       ??_C@_1M@BMHNFIME@?$AAe?$AAn?$AA?9?$AAU?$AAS?$AA?$AA@ 000000018004a338     libcpmt:winapinls.obj
 0002:00004348       ??_C@_1M@DDNJFGID@?$AAf?$AAi?$AA?9?$AAF?$AAI?$AA?$AA@ 000000018004a348     libcpmt:winapinls.obj
 0002:00004358       ??_C@_1M@GLIPPMAC@?$AAf?$AAr?$AA?9?$AAF?$AAR?$AA?$AA@ 000000018004a358     libcpmt:winapinls.obj
 0002:00004368       ??_C@_1M@GFMCHPE@?$AAh?$AAe?$AA?9?$AAI?$AAL?$AA?$AA@ 000000018004a368     libcpmt:winapinls.obj
 0002:00004378       ??_C@_1M@MHLPGNKM@?$AAh?$AAu?$AA?9?$AAH?$AAU?$AA?$AA@ 000000018004a378     libcpmt:winapinls.obj
 0002:00004388       ??_C@_1M@LPDDNNPN@?$AAi?$AAs?$AA?9?$AAI?$AAS?$AA?$AA@ 000000018004a388     libcpmt:winapinls.obj
 0002:00004398       ??_C@_1M@MADIPODN@?$AAi?$AAt?$AA?9?$AAI?$AAT?$AA?$AA@ 000000018004a398     libcpmt:winapinls.obj
 0002:000043a8       ??_C@_1M@HPNHIDJI@?$AAj?$AAa?$AA?9?$AAJ?$AAP?$AA?$AA@ 000000018004a3a8     libcpmt:winapinls.obj
 0002:000043b8       ??_C@_1M@JLOOOEGK@?$AAk?$AAo?$AA?9?$AAK?$AAR?$AA?$AA@ 000000018004a3b8     libcpmt:winapinls.obj
 0002:000043c8       ??_C@_1M@IHBJJGG@?$AAn?$AAl?$AA?9?$AAN?$AAL?$AA?$AA@ 000000018004a3c8     libcpmt:winapinls.obj
 0002:000043d8       ??_C@_1M@EANAGDL@?$AAn?$AAb?$AA?9?$AAN?$AAO?$AA?$AA@ 000000018004a3d8     libcpmt:winapinls.obj
 0002:000043e8       ??_C@_1M@NEIEMEGP@?$AAp?$AAl?$AA?9?$AAP?$AAL?$AA?$AA@ 000000018004a3e8     libcpmt:winapinls.obj
 0002:000043f8       ??_C@_1M@BOCFIGEP@?$AAp?$AAt?$AA?9?$AAB?$AAR?$AA?$AA@ 000000018004a3f8     libcpmt:winapinls.obj
 0002:00004408       ??_C@_1M@IMPFOPBG@?$AAr?$AAo?$AA?9?$AAR?$AAO?$AA?$AA@ 000000018004a408     libcpmt:winapinls.obj
 0002:00004418       ??_C@_1M@IDNNEJMM@?$AAr?$AAu?$AA?9?$AAR?$AAU?$AA?$AA@ 000000018004a418     libcpmt:winapinls.obj
 0002:00004428       ??_C@_1M@LILEEOGM@?$AAh?$AAr?$AA?9?$AAH?$AAR?$AA?$AA@ 000000018004a428     libcpmt:winapinls.obj
 0002:00004438       ??_C@_1M@FKIFEHPB@?$AAs?$AAk?$AA?9?$AAS?$AAK?$AA?$AA@ 000000018004a438     libcpmt:winapinls.obj
 0002:00004448       ??_C@_1M@LJMAMNPJ@?$AAs?$AAq?$AA?9?$AAA?$AAL?$AA?$AA@ 000000018004a448     libcpmt:winapinls.obj
 0002:00004458       ??_C@_1M@GIAKDKJK@?$AAs?$AAv?$AA?9?$AAS?$AAE?$AA?$AA@ 000000018004a458     libcpmt:winapinls.obj
 0002:00004468       ??_C@_1M@MKJKIKCL@?$AAt?$AAh?$AA?9?$AAT?$AAH?$AA?$AA@ 000000018004a468     libcpmt:winapinls.obj
 0002:00004478       ??_C@_1M@MFLCCMPB@?$AAt?$AAr?$AA?9?$AAT?$AAR?$AA?$AA@ 000000018004a478     libcpmt:winapinls.obj
 0002:00004488       ??_C@_1M@OIJHDKJN@?$AAu?$AAr?$AA?9?$AAP?$AAK?$AA?$AA@ 000000018004a488     libcpmt:winapinls.obj
 0002:00004498       ??_C@_1M@LHIPCIEK@?$AAi?$AAd?$AA?9?$AAI?$AAD?$AA?$AA@ 000000018004a498     libcpmt:winapinls.obj
 0002:000044a8       ??_C@_1M@MFMOBGI@?$AAu?$AAk?$AA?9?$AAU?$AAA?$AA?$AA@ 000000018004a4a8     libcpmt:winapinls.obj
 0002:000044b8       ??_C@_1M@OBGLJIPL@?$AAb?$AAe?$AA?9?$AAB?$AAY?$AA?$AA@ 000000018004a4b8     libcpmt:winapinls.obj
 0002:000044c8       ??_C@_1M@BCFAJEAD@?$AAs?$AAl?$AA?9?$AAS?$AAI?$AA?$AA@ 000000018004a4c8     libcpmt:winapinls.obj
 0002:000044d8       ??_C@_1M@FKFFEDDN@?$AAe?$AAt?$AA?9?$AAE?$AAE?$AA?$AA@ 000000018004a4d8     libcpmt:winapinls.obj
 0002:000044e8       ??_C@_1M@KGKKAACI@?$AAl?$AAv?$AA?9?$AAL?$AAV?$AA?$AA@ 000000018004a4e8     libcpmt:winapinls.obj
 0002:000044f8       ??_C@_1M@IFGBIJO@?$AAl?$AAt?$AA?9?$AAL?$AAT?$AA?$AA@ 000000018004a4f8     libcpmt:winapinls.obj
 0002:00004508       ??_C@_1M@FGEAHEDM@?$AAf?$AAa?$AA?9?$AAI?$AAR?$AA?$AA@ 000000018004a508     libcpmt:winapinls.obj
 0002:00004518       ??_C@_1M@KBMAIBFN@?$AAv?$AAi?$AA?9?$AAV?$AAN?$AA?$AA@ 000000018004a518     libcpmt:winapinls.obj
 0002:00004528       ??_C@_1M@GPCBKDJK@?$AAh?$AAy?$AA?9?$AAA?$AAM?$AA?$AA@ 000000018004a528     libcpmt:winapinls.obj
 0002:00004538       ??_C@_1BG@BECMDDJB@?$AAa?$AAz?$AA?9?$AAA?$AAZ?$AA?9?$AAL?$AAa?$AAt?$AAn?$AA?$AA@ 000000018004a538     libcpmt:winapinls.obj
 0002:00004550       ??_C@_1M@MAOFCAEA@?$AAe?$AAu?$AA?9?$AAE?$AAS?$AA?$AA@ 000000018004a550     libcpmt:winapinls.obj
 0002:00004560       ??_C@_1M@IGHABKPI@?$AAm?$AAk?$AA?9?$AAM?$AAK?$AA?$AA@ 000000018004a560     libcpmt:winapinls.obj
 0002:00004570       ??_C@_1M@IAIGNEJG@?$AAt?$AAn?$AA?9?$AAZ?$AAA?$AA?$AA@ 000000018004a570     libcpmt:winapinls.obj
 0002:00004580       ??_C@_1M@IIJCOJFA@?$AAx?$AAh?$AA?9?$AAZ?$AAA?$AA?$AA@ 000000018004a580     libcpmt:winapinls.obj
 0002:00004590       ??_C@_1M@LGPJHNJH@?$AAz?$AAu?$AA?9?$AAZ?$AAA?$AA?$AA@ 000000018004a590     libcpmt:winapinls.obj
 0002:000045a0       ??_C@_1M@HOKAOIO@?$AAa?$AAf?$AA?9?$AAZ?$AAA?$AA?$AA@ 000000018004a5a0     libcpmt:winapinls.obj
 0002:000045b0       ??_C@_1M@DPCLHLIE@?$AAk?$AAa?$AA?9?$AAG?$AAE?$AA?$AA@ 000000018004a5b0     libcpmt:winapinls.obj
 0002:000045c0       ??_C@_1M@BLKMHJBI@?$AAf?$AAo?$AA?9?$AAF?$AAO?$AA?$AA@ 000000018004a5c0     libcpmt:winapinls.obj
 0002:000045d0       ??_C@_1M@LGGJAPPB@?$AAh?$AAi?$AA?9?$AAI?$AAN?$AA?$AA@ 000000018004a5d0     libcpmt:winapinls.obj
 0002:000045e0       ??_C@_1M@FIKPIHFE@?$AAm?$AAt?$AA?9?$AAM?$AAT?$AA?$AA@ 000000018004a5e0     libcpmt:winapinls.obj
 0002:000045f0       ??_C@_1M@HEGGPBFA@?$AAs?$AAe?$AA?9?$AAN?$AAO?$AA?$AA@ 000000018004a5f0     libcpmt:winapinls.obj
 0002:00004600       ??_C@_1M@EIBJEEPA@?$AAm?$AAs?$AA?9?$AAM?$AAY?$AA?$AA@ 000000018004a600     libcpmt:winapinls.obj
 0002:00004610       ??_C@_1M@FHLBGMPP@?$AAk?$AAk?$AA?9?$AAK?$AAZ?$AA?$AA@ 000000018004a610     libcpmt:winapinls.obj
 0002:00004620       ??_C@_1M@NGJJLCGI@?$AAk?$AAy?$AA?9?$AAK?$AAG?$AA?$AA@ 000000018004a620     libcpmt:winapinls.obj
 0002:00004630       ??_C@_1M@GIENNBFC@?$AAs?$AAw?$AA?9?$AAK?$AAE?$AA?$AA@ 000000018004a630     libcpmt:winapinls.obj
 0002:00004640       ??_C@_1BG@NDGMJIMJ@?$AAu?$AAz?$AA?9?$AAU?$AAZ?$AA?9?$AAL?$AAa?$AAt?$AAn?$AA?$AA@ 000000018004a640     libcpmt:winapinls.obj
 0002:00004658       ??_C@_1M@IDCCIHBC@?$AAt?$AAt?$AA?9?$AAR?$AAU?$AA?$AA@ 000000018004a658     libcpmt:winapinls.obj
 0002:00004668       ??_C@_1M@LOICPMOJ@?$AAb?$AAn?$AA?9?$AAI?$AAN?$AA?$AA@ 000000018004a668     libcpmt:winapinls.obj
 0002:00004678       ??_C@_1M@KPKKNEAH@?$AAp?$AAa?$AA?9?$AAI?$AAN?$AA?$AA@ 000000018004a678     libcpmt:winapinls.obj
 0002:00004688       ??_C@_1M@PJGPPBOG@?$AAg?$AAu?$AA?9?$AAI?$AAN?$AA?$AA@ 000000018004a688     libcpmt:winapinls.obj
 0002:00004698       ??_C@_1M@KMKMOPHI@?$AAt?$AAa?$AA?9?$AAI?$AAN?$AA?$AA@ 000000018004a698     libcpmt:winapinls.obj
 0002:000046a8       ??_C@_1M@KFEHEPAC@?$AAt?$AAe?$AA?9?$AAI?$AAN?$AA?$AA@ 000000018004a6a8     libcpmt:winapinls.obj
 0002:000046b8       ??_C@_1M@CDCLMGHI@?$AAk?$AAn?$AA?9?$AAI?$AAN?$AA?$AA@ 000000018004a6b8     libcpmt:winapinls.obj
 0002:000046c8       ??_C@_1M@MIODLDKF@?$AAm?$AAl?$AA?9?$AAI?$AAN?$AA?$AA@ 000000018004a6c8     libcpmt:winapinls.obj
 0002:000046d8       ??_C@_1M@PBIEACPO@?$AAm?$AAr?$AA?9?$AAI?$AAN?$AA?$AA@ 000000018004a6d8     libcpmt:winapinls.obj
 0002:000046e8       ??_C@_1M@NIDEAGPH@?$AAs?$AAa?$AA?9?$AAI?$AAN?$AA?$AA@ 000000018004a6e8     libcpmt:winapinls.obj
 0002:000046f8       ??_C@_1M@FHIHCBIO@?$AAm?$AAn?$AA?9?$AAM?$AAN?$AA?$AA@ 000000018004a6f8     libcpmt:winapinls.obj
 0002:00004708       ??_C@_1M@JAIJPENP@?$AAc?$AAy?$AA?9?$AAG?$AAB?$AA?$AA@ 000000018004a708     libcpmt:winapinls.obj
 0002:00004718       ??_C@_1M@PHGFBEPN@?$AAg?$AAl?$AA?9?$AAE?$AAS?$AA?$AA@ 000000018004a718     libcpmt:winapinls.obj
 0002:00004728       ??_C@_1O@KPIPDNCP@?$AAk?$AAo?$AAk?$AA?9?$AAI?$AAN?$AA?$AA@ 000000018004a728     libcpmt:winapinls.obj
 0002:00004738       ??_C@_1O@KNHJLDJA@?$AAs?$AAy?$AAr?$AA?9?$AAS?$AAY?$AA?$AA@ 000000018004a738     libcpmt:winapinls.obj
 0002:00004748       ??_C@_1O@MKEKBLAH@?$AAd?$AAi?$AAv?$AA?9?$AAM?$AAV?$AA?$AA@ 000000018004a748     libcpmt:winapinls.obj
 0002:00004758       ??_C@_1O@OHDCKDDF@?$AAq?$AAu?$AAz?$AA?9?$AAB?$AAO?$AA?$AA@ 000000018004a758     libcpmt:winapinls.obj
 0002:00004768       ??_C@_1M@LEPJNLFD@?$AAn?$AAs?$AA?9?$AAZ?$AAA?$AA?$AA@ 000000018004a768     libcpmt:winapinls.obj
 0002:00004778       ??_C@_1M@OMLEIIJB@?$AAm?$AAi?$AA?9?$AAN?$AAZ?$AA?$AA@ 000000018004a778     libcpmt:winapinls.obj
 0002:00004788       ??_C@_1M@PMPEAILG@?$AAa?$AAr?$AA?9?$AAI?$AAQ?$AA?$AA@ 000000018004a788     libcpmt:winapinls.obj
 0002:00004798       ??_C@_1M@BIBDDEMK@?$AAz?$AAh?$AA?9?$AAC?$AAN?$AA?$AA@ 000000018004a798     libcpmt:winapinls.obj
 0002:000047a8       ??_C@_1M@CNKPNOEE@?$AAd?$AAe?$AA?9?$AAC?$AAH?$AA?$AA@ 000000018004a7a8     libcpmt:winapinls.obj
 0002:000047b8       ??_C@_1M@LKMGMLKO@?$AAe?$AAn?$AA?9?$AAG?$AAB?$AA?$AA@ 000000018004a7b8     libcpmt:winapinls.obj
 0002:000047c8       ??_C@_1M@PGKJFFGL@?$AAe?$AAs?$AA?9?$AAM?$AAX?$AA?$AA@ 000000018004a7c8     libcpmt:winapinls.obj
 0002:000047d8       ??_C@_1M@DNNANBDC@?$AAf?$AAr?$AA?9?$AAB?$AAE?$AA?$AA@ 000000018004a7d8     libcpmt:winapinls.obj
 0002:000047e8       ??_C@_1M@HLGMDFHM@?$AAi?$AAt?$AA?9?$AAC?$AAH?$AA?$AA@ 000000018004a7e8     libcpmt:winapinls.obj
 0002:000047f8       ??_C@_1M@CLLBGJH@?$AAn?$AAl?$AA?9?$AAB?$AAE?$AA?$AA@ 000000018004a7f8     libcpmt:winapinls.obj
 0002:00004808       ??_C@_1M@BODBOGLF@?$AAn?$AAn?$AA?9?$AAN?$AAO?$AA?$AA@ 000000018004a808     libcpmt:winapinls.obj
 0002:00004818       ??_C@_1M@HFFAHKAD@?$AAp?$AAt?$AA?9?$AAP?$AAT?$AA?$AA@ 000000018004a818     libcpmt:winapinls.obj
 0002:00004828       ??_C@_1BG@LNOAKHIE@?$AAs?$AAr?$AA?9?$AAS?$AAP?$AA?9?$AAL?$AAa?$AAt?$AAn?$AA?$AA@ 000000018004a828     libcpmt:winapinls.obj
 0002:00004840       ??_C@_1M@HBMHBGAK@?$AAs?$AAv?$AA?9?$AAF?$AAI?$AA?$AA@ 000000018004a840     libcpmt:winapinls.obj
 0002:00004850       ??_C@_1BG@DGCJGJBE@?$AAa?$AAz?$AA?9?$AAA?$AAZ?$AA?9?$AAC?$AAy?$AAr?$AAl?$AA?$AA@ 000000018004a850     libcpmt:winapinls.obj
 0002:00004868       ??_C@_1M@KEJDAAHB@?$AAs?$AAe?$AA?9?$AAS?$AAE?$AA?$AA@ 000000018004a868     libcpmt:winapinls.obj
 0002:00004878       ??_C@_1M@HEIBJJAD@?$AAm?$AAs?$AA?9?$AAB?$AAN?$AA?$AA@ 000000018004a878     libcpmt:winapinls.obj
 0002:00004888       ??_C@_1BG@PBGJMCEM@?$AAu?$AAz?$AA?9?$AAU?$AAZ?$AA?9?$AAC?$AAy?$AAr?$AAl?$AA?$AA@ 000000018004a888     libcpmt:winapinls.obj
 0002:000048a0       ??_C@_1O@LAOBCMDF@?$AAq?$AAu?$AAz?$AA?9?$AAE?$AAC?$AA?$AA@ 000000018004a8a0     libcpmt:winapinls.obj
 0002:000048b0       ??_C@_1M@POEEMAIO@?$AAa?$AAr?$AA?9?$AAE?$AAG?$AA?$AA@ 000000018004a8b0     libcpmt:winapinls.obj
 0002:000048c0       ??_C@_1M@EFAKDEDL@?$AAz?$AAh?$AA?9?$AAH?$AAK?$AA?$AA@ 000000018004a8c0     libcpmt:winapinls.obj
 0002:000048d0       ??_C@_1M@HKKIJHGI@?$AAd?$AAe?$AA?9?$AAA?$AAT?$AA?$AA@ 000000018004a8d0     libcpmt:winapinls.obj
 0002:000048e0       ??_C@_1M@KBFBEHJF@?$AAe?$AAn?$AA?9?$AAA?$AAU?$AA?$AA@ 000000018004a8e0     libcpmt:winapinls.obj
 0002:000048f0       ??_C@_1M@MNPLFAAH@?$AAe?$AAs?$AA?9?$AAE?$AAS?$AA?$AA@ 000000018004a8f0     libcpmt:winapinls.obj
 0002:00004900       ??_C@_1M@HJOOJFMA@?$AAf?$AAr?$AA?9?$AAC?$AAA?$AA?$AA@ 000000018004a900     libcpmt:winapinls.obj
 0002:00004910       ??_C@_1BG@JPOFPNAB@?$AAs?$AAr?$AA?9?$AAS?$AAP?$AA?9?$AAC?$AAy?$AAr?$AAl?$AA?$AA@ 000000018004a910     libcpmt:winapinls.obj
 0002:00004928       ??_C@_1M@LNFOCMOB@?$AAs?$AAe?$AA?9?$AAF?$AAI?$AA?$AA@ 000000018004a928     libcpmt:winapinls.obj
 0002:00004938       ??_C@_1O@MGJBOAMB@?$AAq?$AAu?$AAz?$AA?9?$AAP?$AAE?$AA?$AA@ 000000018004a938     libcpmt:winapinls.obj
 0002:00004948       ??_C@_1M@GJINLBOK@?$AAa?$AAr?$AA?9?$AAL?$AAY?$AA?$AA@ 000000018004a948     libcpmt:winapinls.obj
 0002:00004958       ??_C@_1M@GGMNHJNL@?$AAz?$AAh?$AA?9?$AAS?$AAG?$AA?$AA@ 000000018004a958     libcpmt:winapinls.obj
 0002:00004968       ??_C@_1M@HOIKODND@?$AAd?$AAe?$AA?9?$AAL?$AAU?$AA?$AA@ 000000018004a968     libcpmt:winapinls.obj
 0002:00004978       ??_C@_1M@DDOCCGFG@?$AAe?$AAn?$AA?9?$AAC?$AAA?$AA?$AA@ 000000018004a978     libcpmt:winapinls.obj
 0002:00004988       ??_C@_1M@BNOEMJLF@?$AAe?$AAs?$AA?9?$AAG?$AAT?$AA?$AA@ 000000018004a988     libcpmt:winapinls.obj
 0002:00004998       ??_C@_1M@EOGNKEK@?$AAf?$AAr?$AA?9?$AAC?$AAH?$AA?$AA@ 000000018004a998     libcpmt:winapinls.obj
 0002:000049a8       ??_C@_1M@FLIDJFHL@?$AAh?$AAr?$AA?9?$AAB?$AAA?$AA?$AA@ 000000018004a9a8     libcpmt:winapinls.obj
 0002:000049b8       ??_C@_1O@FMCELNAJ@?$AAs?$AAm?$AAj?$AA?9?$AAN?$AAO?$AA?$AA@ 000000018004a9b8     libcpmt:winapinls.obj
 0002:000049c8       ??_C@_1M@JHGLJMGJ@?$AAa?$AAr?$AA?9?$AAD?$AAZ?$AA?$AA@ 000000018004a9c8     libcpmt:winapinls.obj
 0002:000049d8       ??_C@_1M@JKKFDCNP@?$AAz?$AAh?$AA?9?$AAM?$AAO?$AA?$AA@ 000000018004a9d8     libcpmt:winapinls.obj
 0002:000049e8       ??_C@_1M@GEEFALPE@?$AAd?$AAe?$AA?9?$AAL?$AAI?$AA?$AA@ 000000018004a9e8     libcpmt:winapinls.obj
 0002:000049f8       ??_C@_1M@IGEOFBG@?$AAe?$AAn?$AA?9?$AAN?$AAZ?$AA?$AA@ 000000018004a9f8     libcpmt:winapinls.obj
 0002:00004a08       ??_C@_1M@KDBONEHP@?$AAe?$AAs?$AA?9?$AAC?$AAR?$AA?$AA@ 000000018004aa08     libcpmt:winapinls.obj
 0002:00004a18       ??_C@_1M@FHMDOHNN@?$AAf?$AAr?$AA?9?$AAL?$AAU?$AA?$AA@ 000000018004aa18     libcpmt:winapinls.obj
 0002:00004a28       ??_C@_1BG@NFKKMAFG@?$AAb?$AAs?$AA?9?$AAB?$AAA?$AA?9?$AAL?$AAa?$AAt?$AAn?$AA?$AA@ 000000018004aa28     libcpmt:winapinls.obj
 0002:00004a40       ??_C@_1O@IMNBEMCI@?$AAs?$AAm?$AAj?$AA?9?$AAS?$AAE?$AA?$AA@ 000000018004aa40     libcpmt:winapinls.obj
 0002:00004a50       ??_C@_1M@DHHMBNDP@?$AAa?$AAr?$AA?9?$AAM?$AAA?$AA?$AA@ 000000018004aa50     libcpmt:winapinls.obj
 0002:00004a60       ??_C@_1M@BNBLJCGH@?$AAe?$AAn?$AA?9?$AAI?$AAE?$AA?$AA@ 000000018004aa60     libcpmt:winapinls.obj
 0002:00004a70       ??_C@_1M@GEPAFMDL@?$AAe?$AAs?$AA?9?$AAP?$AAA?$AA?$AA@ 000000018004aa70     libcpmt:winapinls.obj
 0002:00004a80       ??_C@_1M@OJONDMDL@?$AAf?$AAr?$AA?9?$AAM?$AAC?$AA?$AA@ 000000018004aa80     libcpmt:winapinls.obj
 0002:00004a90       ??_C@_1BG@OBCNFJB@?$AAs?$AAr?$AA?9?$AAB?$AAA?$AA?9?$AAL?$AAa?$AAt?$AAn?$AA?$AA@ 000000018004aa90     libcpmt:winapinls.obj
 0002:00004aa8       ??_C@_1O@KEMEEGPO@?$AAs?$AAm?$AAa?$AA?9?$AAN?$AAO?$AA?$AA@ 000000018004aaa8     libcpmt:winapinls.obj
 0002:00004ab8       ??_C@_1M@ELMGFODK@?$AAa?$AAr?$AA?9?$AAT?$AAN?$AA?$AA@ 000000018004aab8     libcpmt:winapinls.obj
 0002:00004ac8       ??_C@_1M@BHDLHFAF@?$AAe?$AAn?$AA?9?$AAZ?$AAA?$AA?$AA@ 000000018004aac8     libcpmt:winapinls.obj
 0002:00004ad8       ??_C@_1M@BMGIGLIF@?$AAe?$AAs?$AA?9?$AAD?$AAO?$AA?$AA@ 000000018004aad8     libcpmt:winapinls.obj
 0002:00004ae8       ??_C@_1BG@CMBHIPBE@?$AAs?$AAr?$AA?9?$AAB?$AAA?$AA?9?$AAC?$AAy?$AAr?$AAl?$AA?$AA@ 000000018004aae8     libcpmt:winapinls.obj
 0002:00004b00       ??_C@_1O@HEDBLHNP@?$AAs?$AAm?$AAa?$AA?9?$AAS?$AAE?$AA?$AA@ 000000018004ab00     libcpmt:winapinls.obj
 0002:00004b10       ??_C@_1M@DAGCADIM@?$AAa?$AAr?$AA?9?$AAO?$AAM?$AA?$AA@ 000000018004ab10     libcpmt:winapinls.obj
 0002:00004b20       ??_C@_1M@FODLMICG@?$AAe?$AAn?$AA?9?$AAJ?$AAM?$AA?$AA@ 000000018004ab20     libcpmt:winapinls.obj
 0002:00004b30       ??_C@_1M@DNMLCIHB@?$AAe?$AAs?$AA?9?$AAV?$AAE?$AA?$AA@ 000000018004ab30     libcpmt:winapinls.obj
 0002:00004b40       ??_C@_1O@EOKHMKJK@?$AAs?$AAm?$AAs?$AA?9?$AAF?$AAI?$AA?$AA@ 000000018004ab40     libcpmt:winapinls.obj
 0002:00004b50       ??_C@_1M@CAFJMKOF@?$AAa?$AAr?$AA?9?$AAY?$AAE?$AA?$AA@ 000000018004ab50     libcpmt:winapinls.obj
 0002:00004b60       ??_C@_1M@CBFHIJLI@?$AAe?$AAn?$AA?9?$AAC?$AAB?$AA?$AA@ 000000018004ab60     libcpmt:winapinls.obj
 0002:00004b70       ??_C@_1M@BGNFLDN@?$AAe?$AAs?$AA?9?$AAC?$AAO?$AA?$AA@ 000000018004ab70     libcpmt:winapinls.obj
 0002:00004b80       ??_C@_1O@JMPHMAMC@?$AAs?$AAm?$AAn?$AA?9?$AAF?$AAI?$AA?$AA@ 000000018004ab80     libcpmt:winapinls.obj
 0002:00004b90       ??_C@_1M@JLANABKE@?$AAa?$AAr?$AA?9?$AAS?$AAY?$AA?$AA@ 000000018004ab90     libcpmt:winapinls.obj
 0002:00004ba0       ??_C@_1M@HPKGCFGN@?$AAe?$AAn?$AA?9?$AAB?$AAZ?$AA?$AA@ 000000018004aba0     libcpmt:winapinls.obj
 0002:00004bb0       ??_C@_1M@OLJCMLGM@?$AAe?$AAs?$AA?9?$AAP?$AAE?$AA?$AA@ 000000018004abb0     libcpmt:winapinls.obj
 0002:00004bc0       ??_C@_1M@MKKGFKLE@?$AAa?$AAr?$AA?9?$AAJ?$AAO?$AA?$AA@ 000000018004abc0     libcpmt:winapinls.obj
 0002:00004bd0       ??_C@_1M@EKPGLDNI@?$AAe?$AAn?$AA?9?$AAT?$AAT?$AA?$AA@ 000000018004abd0     libcpmt:winapinls.obj
 0002:00004be0       ??_C@_1M@OONGHFHE@?$AAe?$AAs?$AA?9?$AAA?$AAR?$AA?$AA@ 000000018004abe0     libcpmt:winapinls.obj
 0002:00004bf0       ??_C@_1M@OOJFGBHE@?$AAa?$AAr?$AA?9?$AAL?$AAB?$AA?$AA@ 000000018004abf0     libcpmt:winapinls.obj
 0002:00004c00       ??_C@_1M@GCEJHNEG@?$AAe?$AAn?$AA?9?$AAZ?$AAW?$AA?$AA@ 000000018004ac00     libcpmt:winapinls.obj
 0002:00004c10       ??_C@_1M@JNOCAHJI@?$AAe?$AAs?$AA?9?$AAE?$AAC?$AA?$AA@ 000000018004ac10     libcpmt:winapinls.obj
 0002:00004c20       ??_C@_1M@JEFHPGGB@?$AAa?$AAr?$AA?9?$AAK?$AAW?$AA?$AA@ 000000018004ac20     libcpmt:winapinls.obj
 0002:00004c30       ??_C@_1M@MLKIBJOJ@?$AAe?$AAn?$AA?9?$AAP?$AAH?$AA?$AA@ 000000018004ac30     libcpmt:winapinls.obj
 0002:00004c40       ??_C@_1M@BDNIPEND@?$AAe?$AAs?$AA?9?$AAC?$AAL?$AA?$AA@ 000000018004ac40     libcpmt:winapinls.obj
 0002:00004c50       ??_C@_1M@MPNMEKBD@?$AAa?$AAr?$AA?9?$AAA?$AAE?$AA?$AA@ 000000018004ac50     libcpmt:winapinls.obj
 0002:00004c60       ??_C@_1M@KBJALCPI@?$AAe?$AAs?$AA?9?$AAU?$AAY?$AA?$AA@ 000000018004ac60     libcpmt:winapinls.obj
 0002:00004c70       ??_C@_1M@LLCCOAGA@?$AAa?$AAr?$AA?9?$AAB?$AAH?$AA?$AA@ 000000018004ac70     libcpmt:winapinls.obj
 0002:00004c80       ??_C@_1M@PBFNCDEL@?$AAe?$AAs?$AA?9?$AAP?$AAY?$AA?$AA@ 000000018004ac80     libcpmt:winapinls.obj
 0002:00004c90       ??_C@_1M@EDGINPNP@?$AAa?$AAr?$AA?9?$AAQ?$AAA?$AA?$AA@ 000000018004ac90     libcpmt:winapinls.obj
 0002:00004ca0       ??_C@_1M@MKDBIIJI@?$AAe?$AAs?$AA?9?$AAB?$AAO?$AA?$AA@ 000000018004aca0     libcpmt:winapinls.obj
 0002:00004cb0       ??_C@_1M@CPKKEBLD@?$AAe?$AAs?$AA?9?$AAS?$AAV?$AA?$AA@ 000000018004acb0     libcpmt:winapinls.obj
 0002:00004cc0       ??_C@_1M@NDBGMMJL@?$AAe?$AAs?$AA?9?$AAH?$AAN?$AA?$AA@ 000000018004acc0     libcpmt:winapinls.obj
 0002:00004cd0       ??_C@_1M@JIJIBHDP@?$AAe?$AAs?$AA?9?$AAN?$AAI?$AA?$AA@ 000000018004acd0     libcpmt:winapinls.obj
 0002:00004ce0       ??_C@_1M@CGFMKEEK@?$AAe?$AAs?$AA?9?$AAP?$AAR?$AA?$AA@ 000000018004ace0     libcpmt:winapinls.obj
 0002:00004cf0       ??_C@_1O@ICJHKIIK@?$AAz?$AAh?$AA?9?$AAC?$AAH?$AAT?$AA?$AA@ 000000018004acf0     libcpmt:winapinls.obj
 0002:00004d00       ??_C@_15CLNEJCE@?$AAs?$AAr?$AA?$AA@ 000000018004ad00     libcpmt:winapinls.obj
 0002:00004d08       ??_C@_1M@KAHEKEIG@?$AAa?$AAf?$AA?9?$AAz?$AAa?$AA?$AA@ 000000018004ad08     libcpmt:winapinls.obj
 0002:00004d18       ??_C@_1M@GIECOABL@?$AAa?$AAr?$AA?9?$AAa?$AAe?$AA?$AA@ 000000018004ad18     libcpmt:winapinls.obj
 0002:00004d28       ??_C@_1M@BMLMEKGI@?$AAa?$AAr?$AA?9?$AAb?$AAh?$AA?$AA@ 000000018004ad28     libcpmt:winapinls.obj
 0002:00004d38       ??_C@_1M@DAPFDGGB@?$AAa?$AAr?$AA?9?$AAd?$AAz?$AA?$AA@ 000000018004ad38     libcpmt:winapinls.obj
 0002:00004d48       ??_C@_1M@FJNKGKIG@?$AAa?$AAr?$AA?9?$AAe?$AAg?$AA?$AA@ 000000018004ad48     libcpmt:winapinls.obj
 0002:00004d58       ??_C@_1M@FLGKKCLO@?$AAa?$AAr?$AA?9?$AAi?$AAq?$AA?$AA@ 000000018004ad58     libcpmt:winapinls.obj
 0002:00004d68       ??_C@_1M@GNDIPALM@?$AAa?$AAr?$AA?9?$AAj?$AAo?$AA?$AA@ 000000018004ad68     libcpmt:winapinls.obj
 0002:00004d78       ??_C@_1M@DDMJFMGJ@?$AAa?$AAr?$AA?9?$AAk?$AAw?$AA?$AA@ 000000018004ad78     libcpmt:winapinls.obj
 0002:00004d88       ??_C@_1M@EJALMLHM@?$AAa?$AAr?$AA?9?$AAl?$AAb?$AA?$AA@ 000000018004ad88     libcpmt:winapinls.obj
 0002:00004d98       ??_C@_1M@MOBDBLOC@?$AAa?$AAr?$AA?9?$AAl?$AAy?$AA?$AA@ 000000018004ad98     libcpmt:winapinls.obj
 0002:00004da8       ??_C@_1M@JAOCLHDH@?$AAa?$AAr?$AA?9?$AAm?$AAa?$AA?$AA@ 000000018004ada8     libcpmt:winapinls.obj
 0002:00004db8       ??_C@_1M@JHPMKJIE@?$AAa?$AAr?$AA?9?$AAo?$AAm?$AA?$AA@ 000000018004adb8     libcpmt:winapinls.obj
 0002:00004dc8       ??_C@_1M@OEPGHFNH@?$AAa?$AAr?$AA?9?$AAq?$AAa?$AA?$AA@ 000000018004adc8     libcpmt:winapinls.obj
 0002:00004dd8       ??_C@_1M@KJDONENM@?$AAa?$AAr?$AA?9?$AAs?$AAa?$AA?$AA@ 000000018004add8     libcpmt:winapinls.obj
 0002:00004de8       ??_C@_1M@DMJDKLKM@?$AAa?$AAr?$AA?9?$AAs?$AAy?$AA?$AA@ 000000018004ade8     libcpmt:winapinls.obj
 0002:00004df8       ??_C@_1M@OMFIPEDC@?$AAa?$AAr?$AA?9?$AAt?$AAn?$AA?$AA@ 000000018004adf8     libcpmt:winapinls.obj
 0002:00004e08       ??_C@_1M@IHMHGAON@?$AAa?$AAr?$AA?9?$AAy?$AAe?$AA?$AA@ 000000018004ae08     libcpmt:winapinls.obj
 0002:00004e18       ??_C@_1BG@KDCPGJGB@?$AAa?$AAz?$AA?9?$AAa?$AAz?$AA?9?$AAc?$AAy?$AAr?$AAl?$AA?$AA@ 000000018004ae18     libcpmt:winapinls.obj
 0002:00004e30       ??_C@_1BG@IBCKDDOE@?$AAa?$AAz?$AA?9?$AAa?$AAz?$AA?9?$AAl?$AAa?$AAt?$AAn?$AA?$AA@ 000000018004ae30     libcpmt:winapinls.obj
 0002:00004e48       ??_C@_1M@EGPFDCPD@?$AAb?$AAe?$AA?9?$AAb?$AAy?$AA?$AA@ 000000018004ae48     libcpmt:winapinls.obj
 0002:00004e58       ??_C@_1M@PCMGMCGC@?$AAb?$AAg?$AA?9?$AAb?$AAg?$AA?$AA@ 000000018004ae58     libcpmt:winapinls.obj
 0002:00004e68       ??_C@_1M@BJBMFGOB@?$AAb?$AAn?$AA?9?$AAi?$AAn?$AA?$AA@ 000000018004ae68     libcpmt:winapinls.obj
 0002:00004e78       ??_C@_1BG@EAKMMACD@?$AAb?$AAs?$AA?9?$AAb?$AAa?$AA?9?$AAl?$AAa?$AAt?$AAn?$AA?$AA@ 000000018004ae78     libcpmt:winapinls.obj
 0002:00004e90       ??_C@_1M@KGADAODK@?$AAc?$AAa?$AA?9?$AAe?$AAs?$AA?$AA@ 000000018004ae90     libcpmt:winapinls.obj
 0002:00004ea0       ??_C@_1M@COAJPDHI@?$AAc?$AAs?$AA?9?$AAc?$AAz?$AA?$AA@ 000000018004aea0     libcpmt:winapinls.obj
 0002:00004eb0       ??_C@_1M@DHBHFONH@?$AAc?$AAy?$AA?9?$AAg?$AAb?$AA?$AA@ 000000018004aeb0     libcpmt:winapinls.obj
 0002:00004ec0       ??_C@_1M@IMGKELGA@?$AAd?$AAa?$AA?9?$AAd?$AAk?$AA?$AA@ 000000018004aec0     libcpmt:winapinls.obj
 0002:00004ed0       ??_C@_1M@NNDGDNGA@?$AAd?$AAe?$AA?9?$AAa?$AAt?$AA?$AA@ 000000018004aed0     libcpmt:winapinls.obj
 0002:00004ee0       ??_C@_1M@IKDBHEEM@?$AAd?$AAe?$AA?9?$AAc?$AAh?$AA?$AA@ 000000018004aee0     libcpmt:winapinls.obj
 0002:00004ef0       ??_C@_1M@GFFOJMCJ@?$AAd?$AAe?$AA?9?$AAd?$AAe?$AA?$AA@ 000000018004aef0     libcpmt:winapinls.obj
 0002:00004f00       ??_C@_1M@MDNLKBPM@?$AAd?$AAe?$AA?9?$AAl?$AAi?$AA?$AA@ 000000018004af00     libcpmt:winapinls.obj
 0002:00004f10       ??_C@_1M@NJBEEJNL@?$AAd?$AAe?$AA?9?$AAl?$AAu?$AA?$AA@ 000000018004af10     libcpmt:winapinls.obj
 0002:00004f20       ??_C@_1O@GNNELBAP@?$AAd?$AAi?$AAv?$AA?9?$AAm?$AAv?$AA?$AA@ 000000018004af20     libcpmt:winapinls.obj
 0002:00004f30       ??_C@_1M@EJLEOGAE@?$AAe?$AAl?$AA?9?$AAg?$AAr?$AA?$AA@ 000000018004af30     libcpmt:winapinls.obj
 0002:00004f40       ??_C@_1M@GMPONJN@?$AAe?$AAn?$AA?9?$AAa?$AAu?$AA?$AA@ 000000018004af40     libcpmt:winapinls.obj
 0002:00004f50       ??_C@_1M@NIDIIPGF@?$AAe?$AAn?$AA?9?$AAb?$AAz?$AA?$AA@ 000000018004af50     libcpmt:winapinls.obj
 0002:00004f60       ??_C@_1M@JEHMIMFO@?$AAe?$AAn?$AA?9?$AAc?$AAa?$AA?$AA@ 000000018004af60     libcpmt:winapinls.obj
 0002:00004f70       ??_C@_1M@IGMJCDLA@?$AAe?$AAn?$AA?9?$AAc?$AAb?$AA?$AA@ 000000018004af70     libcpmt:winapinls.obj
 0002:00004f80       ??_C@_1M@BNFIGBKG@?$AAe?$AAn?$AA?9?$AAg?$AAb?$AA?$AA@ 000000018004af80     libcpmt:winapinls.obj
 0002:00004f90       ??_C@_1M@LKIFDIGP@?$AAe?$AAn?$AA?9?$AAi?$AAe?$AA?$AA@ 000000018004af90     libcpmt:winapinls.obj
 0002:00004fa0       ??_C@_1M@PJKFGCCO@?$AAe?$AAn?$AA?9?$AAj?$AAm?$AA?$AA@ 000000018004afa0     libcpmt:winapinls.obj
 0002:00004fb0       ??_C@_1M@KPPKEPBO@?$AAe?$AAn?$AA?9?$AAn?$AAz?$AA?$AA@ 000000018004afb0     libcpmt:winapinls.obj
 0002:00004fc0       ??_C@_1M@GMDGLDOB@?$AAe?$AAn?$AA?9?$AAp?$AAh?$AA?$AA@ 000000018004afc0     libcpmt:winapinls.obj
 0002:00004fd0       ??_C@_1M@ONGIBJNA@?$AAe?$AAn?$AA?9?$AAt?$AAt?$AA?$AA@ 000000018004afd0     libcpmt:winapinls.obj
 0002:00004fe0       ??_C@_1M@LLODPCMM@?$AAe?$AAn?$AA?9?$AAu?$AAs?$AA?$AA@ 000000018004afe0     libcpmt:winapinls.obj
 0002:00004ff0       ??_C@_1M@LAKFNPAN@?$AAe?$AAn?$AA?9?$AAz?$AAa?$AA?$AA@ 000000018004aff0     libcpmt:winapinls.obj
 0002:00005000       ??_C@_1M@MFNHNHEO@?$AAe?$AAn?$AA?9?$AAz?$AAw?$AA?$AA@ 000000018004b000     libcpmt:winapinls.obj
 0002:00005010       ??_C@_1M@EJEINPHM@?$AAe?$AAs?$AA?9?$AAa?$AAr?$AA?$AA@ 000000018004b010     libcpmt:winapinls.obj
 0002:00005020       ??_C@_1M@GNKPCCJA@?$AAe?$AAs?$AA?9?$AAb?$AAo?$AA?$AA@ 000000018004b020     libcpmt:winapinls.obj
 0002:00005030       ??_C@_1M@LEEGFONL@?$AAe?$AAs?$AA?9?$AAc?$AAl?$AA?$AA@ 000000018004b030     libcpmt:winapinls.obj
 0002:00005080       __real@0000000000000000    000000018004b080     libcpmt:xprec.obj
 0002:00005138       _pRawDllMain               000000018004b138     LIBCMT:dll_dllmain.obj
 0002:00005138       _pDefaultRawDllMain        000000018004b138     LIBCMT:dll_dllmain.obj
 0002:00005148       ??_7type_info@@6B@         000000018004b148     LIBCMT:std_type_info_static.obj
 0002:00005168       ??_7bad_array_new_length@std@@6B@ 000000018004b168     LIBCMT:throw_bad_alloc.obj
 0002:00005178       ??_C@_0BF@KINCDENJ@bad?5array?5new?5length?$AA@ 000000018004b178     LIBCMT:throw_bad_alloc.obj
 0002:00005190       _pDestructExceptionObject  000000018004b190     libvcruntime:frame.obj
 0002:000051a0       ??_7bad_exception@std@@6B@ 000000018004b1a0     libvcruntime:frame.obj
 0002:000051b0       ??_C@_0O@DPKOEFFH@bad?5exception?$AA@ 000000018004b1b0     libvcruntime:frame.obj
 0002:000052c0       ??_C@_1BC@DNHGCMLG@?$AAa?$AAd?$AAv?$AAa?$AAp?$AAi?$AA3?$AA2?$AA?$AA@ 000000018004b2c0     libvcruntime:winapi_downlevel.obj
 0002:000052d8       ??_C@_1DM@KHCHBNEB@?$AAa?$AAp?$AAi?$AA?9?$AAm?$AAs?$AA?9?$AAw?$AAi?$AAn?$AA?9?$AAc?$AAo?$AAr?$AAe?$AA?9?$AAf?$AAi?$AAb?$AAe?$AAr?$AAs?$AA?9?$AAl?$AA1?$AA?9?$AA1?$AA?9?$AA1?$AA?$AA@ 000000018004b2d8     libvcruntime:winapi_downlevel.obj
 0002:00005318       ??_C@_1DK@LPPGFMPP@?$AAa?$AAp?$AAi?$AA?9?$AAm?$AAs?$AA?9?$AAw?$AAi?$AAn?$AA?9?$AAc?$AAo?$AAr?$AAe?$AA?9?$AAs?$AAy?$AAn?$AAc?$AAh?$AA?9?$AAl?$AA1?$AA?9?$AA2?$AA?9?$AA0?$AA?$AA@ 000000018004b318     libvcruntime:winapi_downlevel.obj
 0002:00005358       ??_C@_1BC@GDMECMAK@?$AAk?$AAe?$AAr?$AAn?$AAe?$AAl?$AA3?$AA2?$AA?$AA@ 000000018004b358     libvcruntime:winapi_downlevel.obj
 0002:00005370       ??_C@_0O@BAMBGLIE@EventRegister?$AA@ 000000018004b370     libvcruntime:winapi_downlevel.obj
 0002:00005388       ??_C@_0BE@BJEEGHGK@EventSetInformation?$AA@ 000000018004b388     libvcruntime:winapi_downlevel.obj
 0002:000053a0       ??_C@_0BA@FAKLIPIC@EventUnregister?$AA@ 000000018004b3a0     libvcruntime:winapi_downlevel.obj
 0002:000053b8       ??_C@_0BD@PKLHJPHD@EventWriteTransfer?$AA@ 000000018004b3b8     libvcruntime:winapi_downlevel.obj
 0002:000053f8       _Microsoft_CRTProvider     000000018004b3f8     libvcruntime:telemetry.obj
 0002:00005400       ??_C@_0O@JEOPJOMI@Main?5Invoked?4?$AA@ 000000018004b400     libvcruntime:telemetry.obj
 0002:00005410       ??_C@_0P@NEAEIBDO@Main?5Returned?4?$AA@ 000000018004b410     libvcruntime:telemetry.obj
 0002:00005420       ??_C@_02EEKDKGMJ@?$DO?$DN?$AA@ 000000018004b420     libvcruntime:undname.obj
 0002:00005424       ??_C@_02HCKGKOFO@?$CI?$CJ?$AA@ 000000018004b424     libvcruntime:undname.obj
 0002:00005428       ??_C@_01PJKLJHI@?$HO?$AA@  000000018004b428     libvcruntime:undname.obj
 0002:0000542c       ??_C@_01JKBOJNNK@?$FO?$AA@ 000000018004b42c     libvcruntime:undname.obj
 0002:00005430       ??_C@_01DNKMNLPK@?$HM?$AA@ 000000018004b430     libvcruntime:undname.obj
 0002:00005434       ??_C@_02PPKAJPJL@?$CG?$CG?$AA@ 000000018004b434     libvcruntime:undname.obj
 0002:00005438       ??_C@_02NONPIBCD@?$HM?$HM?$AA@ 000000018004b438     libvcruntime:undname.obj
 0002:0000543c       ??_C@_02FPIMKNGF@?$CK?$DN?$AA@ 000000018004b43c     libvcruntime:undname.obj
 0002:00005440       ??_C@_02FOEOMHFC@?$CL?$DN?$AA@ 000000018004b440     libvcruntime:undname.obj
 0002:00005444       ??_C@_02FKMDLLOA@?9?$DN?$AA@ 000000018004b444     libvcruntime:undname.obj
 0002:00005448       ??_C@_02FJEHGPIO@?1?$DN?$AA@ 000000018004b448     libvcruntime:undname.obj
 0002:0000544c       ??_C@_02FENAOKFI@?$CF?$DN?$AA@ 000000018004b44c     libvcruntime:undname.obj
 0002:00005450       ??_C@_03IKFCCPFF@?$DO?$DO?$DN?$AA@ 000000018004b450     libvcruntime:undname.obj
 0002:00005454       ??_C@_03CDNPDDLA@?$DM?$DM?$DN?$AA@ 000000018004b454     libvcruntime:undname.obj
 0002:00005458       ??_C@_02FGJGFEAB@?$CG?$DN?$AA@ 000000018004b458     libvcruntime:undname.obj
 0002:0000545c       ??_C@_02DHLNPPGH@?$HM?$DN?$AA@ 000000018004b45c     libvcruntime:undname.obj
 0002:00005460       ??_C@_02MHEGNOJ@?$FO?$DN?$AA@ 000000018004b460     libvcruntime:undname.obj
 0002:00005468       ??_C@_09IFPLHPGF@?$GAvftable?8?$AA@ 000000018004b468     libvcruntime:undname.obj
 0002:00005478       ??_C@_09BLBHBJP@?$GAvbtable?8?$AA@ 000000018004b478     libvcruntime:undname.obj
 0002:00005488       ??_C@_07FEEIOKP@?$GAvcall?8?$AA@ 000000018004b488     libvcruntime:undname.obj
 0002:00005490       ??_C@_08LLFFHHDJ@?$GAtypeof?8?$AA@ 000000018004b490     libvcruntime:undname.obj
 0002:000054a0       ??_C@_0BF@KDPPACIK@?$GAlocal?5static?5guard?8?$AA@ 000000018004b4a0     libvcruntime:undname.obj
 0002:000054b8       ??_C@_08OBABFOLI@?$GAstring?8?$AA@ 000000018004b4b8     libvcruntime:undname.obj
 0002:000054c8       ??_C@_0BD@JDLKDPAB@?$GAvbase?5destructor?8?$AA@ 000000018004b4c8     libvcruntime:undname.obj
 0002:000054e0       ??_C@_0BN@DEGPLNFK@?$GAvector?5deleting?5destructor?8?$AA@ 000000018004b4e0     libvcruntime:undname.obj
 0002:00005500       ??_C@_0BO@OBMKPJIG@?$GAdefault?5constructor?5closure?8?$AA@ 000000018004b500     libvcruntime:undname.obj
 0002:00005520       ??_C@_0BN@IMDCHIKM@?$GAscalar?5deleting?5destructor?8?$AA@ 000000018004b520     libvcruntime:undname.obj
 0002:00005540       ??_C@_0BO@PFGOCPJJ@?$GAvector?5constructor?5iterator?8?$AA@ 000000018004b540     libvcruntime:undname.obj
 0002:00005560       ??_C@_0BN@LFPFMEDL@?$GAvector?5destructor?5iterator?8?$AA@ 000000018004b560     libvcruntime:undname.obj
 0002:00005580       ??_C@_0CE@IKBNEHA@?$GAvector?5vbase?5constructor?5iterat@ 000000018004b580     libvcruntime:undname.obj
 0002:000055a8       ??_C@_0BL@NILFHHPC@?$GAvirtual?5displacement?5map?8?$AA@ 000000018004b5a8     libvcruntime:undname.obj
 0002:000055c8       ??_C@_0CB@JONCMFFK@?$GAeh?5vector?5constructor?5iterator?8@ 000000018004b5c8     libvcruntime:undname.obj
 0002:000055f0       ??_C@_0CA@GCEOPDGL@?$GAeh?5vector?5destructor?5iterator?8?$AA@ 000000018004b5f0     libvcruntime:undname.obj
 0002:00005610       ??_C@_0CH@OOJPLCPH@?$GAeh?5vector?5vbase?5constructor?5ite@ 000000018004b610     libvcruntime:undname.obj
 0002:00005638       ??_C@_0BL@LLKPOHJI@?$GAcopy?5constructor?5closure?8?$AA@ 000000018004b638     libvcruntime:undname.obj
 0002:00005658       ??_C@_0BA@KBCDOMBN@?$GAudt?5returning?8?$AA@ 000000018004b658     libvcruntime:undname.obj
 0002:00005668       ??_C@_03KLGMFNMG@?$GAEH?$AA@ 000000018004b668     libvcruntime:undname.obj
 0002:0000566c       ??_C@_05KHLCHHI@?$GARTTI?$AA@ 000000018004b66c     libvcruntime:undname.obj
 0002:00005678       ??_C@_0BA@KKLDJDLB@?$GAlocal?5vftable?8?$AA@ 000000018004b678     libvcruntime:undname.obj
 0002:00005688       ??_C@_0CE@IIHCMGGL@?$GAlocal?5vftable?5constructor?5closu@ 000000018004b688     libvcruntime:undname.obj
 0002:000056ac       ??_C@_06FHBGPFGH@?5new?$FL?$FN?$AA@ 000000018004b6ac     libvcruntime:undname.obj
 0002:000056b8       ??_C@_09LBNFPBCA@?5delete?$FL?$FN?$AA@ 000000018004b6b8     libvcruntime:undname.obj
 0002:000056c8       ??_C@_0P@HJKNJFNN@?$GAomni?5callsig?8?$AA@ 000000018004b6c8     libvcruntime:undname.obj
 0002:000056d8       ??_C@_0BL@CNOONJFP@?$GAplacement?5delete?5closure?8?$AA@ 000000018004b6d8     libvcruntime:undname.obj
 0002:000056f8       ??_C@_0BN@CKNJLHMB@?$GAplacement?5delete?$FL?$FN?5closure?8?$AA@ 000000018004b6f8     libvcruntime:undname.obj
 0002:00005718       ??_C@_0CG@CFDHKGGD@?$GAmanaged?5vector?5constructor?5iter@ 000000018004b718     libvcruntime:undname.obj
 0002:00005740       ??_C@_0CF@IMGKMJNO@?$GAmanaged?5vector?5destructor?5itera@ 000000018004b740     libvcruntime:undname.obj
 0002:00005768       ??_C@_0CG@HLDDJMAG@?$GAeh?5vector?5copy?5constructor?5iter@ 000000018004b768     libvcruntime:undname.obj
 0002:00005790       ??_C@_0CM@FCBBDIGB@?$GAeh?5vector?5vbase?5copy?5constructo@ 000000018004b790     libvcruntime:undname.obj
 0002:000057c0       ??_C@_0BL@CLIPGLGB@?$GAdynamic?5initializer?5for?5?8?$AA@ 000000018004b7c0     libvcruntime:undname.obj
 0002:000057e0       ??_C@_0CB@PDBIFEP@?$GAdynamic?5atexit?5destructor?5for?5?8@ 000000018004b7e0     libvcruntime:undname.obj
 0002:00005808       ??_C@_0CD@CGAJBKEJ@?$GAvector?5copy?5constructor?5iterato@ 000000018004b808     libvcruntime:undname.obj
 0002:00005830       ??_C@_0CJ@GJELGAMM@?$GAvector?5vbase?5copy?5constructor?5i@ 000000018004b830     libvcruntime:undname.obj
 0002:00005860       ??_C@_0CL@FGIJHLCE@?$GAmanaged?5vector?5copy?5constructor@ 000000018004b860     libvcruntime:undname.obj
 0002:00005890       ??_C@_0BM@PMGGMLDN@?$GAlocal?5static?5thread?5guard?8?$AA@ 000000018004b890     libvcruntime:undname.obj
 0002:000058b0       ??_C@_0N@BDNMDMOL@operator?5?$CC?$CC?5?$AA@ 000000018004b8b0     libvcruntime:undname.obj
 0002:00005be8       ??_C@_0BC@DAFEJGAK@?5Type?5Descriptor?8?$AA@ 000000018004bbe8     libvcruntime:undname.obj
 0002:00005c00       ??_C@_0BM@LDKODKLH@?5Base?5Class?5Descriptor?5at?5?$CI?$AA@ 000000018004bc00     libvcruntime:undname.obj
 0002:00005c20       ??_C@_0BD@LGICGFMM@?5Base?5Class?5Array?8?$AA@ 000000018004bc20     libvcruntime:undname.obj
 0002:00005c38       ??_C@_0BN@MECKDCOJ@?5Class?5Hierarchy?5Descriptor?8?$AA@ 000000018004bc38     libvcruntime:undname.obj
 0002:00005c58       ??_C@_0BK@CFCOFLF@?5Complete?5Object?5Locator?8?$AA@ 000000018004bc58     libvcruntime:undname.obj
 0002:00005c78       ??_C@_08EHJDFFNH@__based?$CI?$AA@ 000000018004bc78     libvcruntime:undname.obj
 0002:00005c88       ??_C@_07KOLFKCDI@__cdecl?$AA@ 000000018004bc88     libvcruntime:undname.obj
 0002:00005c90       ??_C@_08GHMPAG@__pascal?$AA@ 000000018004bc90     libvcruntime:undname.obj
 0002:00005ca0       ??_C@_09IFJBGAPI@__stdcall?$AA@ 000000018004bca0     libvcruntime:undname.obj
 0002:00005cb0       ??_C@_0L@NPHFGOKO@__thiscall?$AA@ 000000018004bcb0     libvcruntime:undname.obj
 0002:00005cc0       ??_C@_0L@JMKHOMEK@__fastcall?$AA@ 000000018004bcc0     libvcruntime:undname.obj
 0002:00005cd0       ??_C@_0N@BCKKPABJ@__vectorcall?$AA@ 000000018004bcd0     libvcruntime:undname.obj
 0002:00005ce0       ??_C@_09HIJEGCPM@__clrcall?$AA@ 000000018004bce0     libvcruntime:undname.obj
 0002:00005cec       ??_C@_06GHPCKEAG@__eabi?$AA@ 000000018004bcec     libvcruntime:undname.obj
 0002:00005cf8       ??_C@_07JOMMBBKO@__ptr64?$AA@ 000000018004bcf8     libvcruntime:undname.obj
 0002:00005d00       ??_C@_0L@PILCLIHE@__restrict?$AA@ 000000018004bd00     libvcruntime:undname.obj
 0002:00005d10       ??_C@_0M@GFIIJFMG@__unaligned?$AA@ 000000018004bd10     libvcruntime:undname.obj
 0002:00005d20       ??_C@_09DHDLOLLB@restrict?$CI?$AA@ 000000018004bd20     libvcruntime:undname.obj
 0002:00005d2c       ??_C@_04NIHEBCM@?5new?$AA@ 000000018004bd2c     libvcruntime:undname.obj
 0002:00005d38       ??_C@_07FPCDHGMM@?5delete?$AA@ 000000018004bd38     libvcruntime:undname.obj
 0002:00005d40       ??_C@_01NEMOKFLO@?$DN?$AA@ 000000018004bd40     libvcruntime:undname.obj
 0002:00005d44       ??_C@_02GPIOPFAK@?$DO?$DO?$AA@ 000000018004bd44     libvcruntime:undname.obj
 0002:00005d48       ??_C@_02FODMEDOG@?$DM?$DM?$AA@ 000000018004bd48     libvcruntime:undname.obj
 0002:00005d4c       ??_C@_01DCLJPIOD@?$CB?$AA@ 000000018004bd4c     libvcruntime:undname.obj
 0002:00005d50       ??_C@_02EGOFBIJA@?$DN?$DN?$AA@ 000000018004bd50     libvcruntime:undname.obj
 0002:00005d54       ??_C@_02FDNJECIE@?$CB?$DN?$AA@ 000000018004bd54     libvcruntime:undname.obj
 0002:00005d58       ??_C@_02GPECMEKF@?$FL?$FN?$AA@ 000000018004bd58     libvcruntime:undname.obj
 0002:00005d60       ??_C@_08LHJFAFGD@operator?$AA@ 000000018004bd60     libvcruntime:undname.obj
 0002:00005d6c       ??_C@_02HBOOOICD@?9?$DO?$AA@ 000000018004bd6c     libvcruntime:undname.obj
 0002:00005d70       ??_C@_02ECNGHCIF@?$CL?$CL?$AA@ 000000018004bd70     libvcruntime:undname.obj
 0002:00005d74       ??_C@_02BAABKJLB@?9?9?$AA@ 000000018004bd74     libvcruntime:undname.obj
 0002:00005d78       ??_C@_01MIFGBAGJ@?$CL?$AA@ 000000018004bd78     libvcruntime:undname.obj
 0002:00005d7c       ??_C@_01HNPIGOCE@?$CG?$AA@ 000000018004bd7c     libvcruntime:undname.obj
 0002:00005d80       ??_C@_03MNHNFDLC@?9?$DO?$CK?$AA@ 000000018004bd80     libvcruntime:undname.obj
 0002:00005d84       ??_C@_01KMDKNFGN@?1?$AA@   000000018004bd84     libvcruntime:undname.obj
 0002:00005d88       ??_C@_01FGNFDNOH@?$CF?$AA@ 000000018004bd88     libvcruntime:undname.obj
 0002:00005d8c       ??_C@_01MNNFJEPP@?$DM?$AA@ 000000018004bd8c     libvcruntime:undname.obj
 0002:00005d90       ??_C@_02EHCHHCKH@?$DM?$DN?$AA@ 000000018004bd90     libvcruntime:undname.obj
 0002:00005d94       ??_C@_01PPODPGHN@?$DO?$AA@ 000000018004bd94     libvcruntime:undname.obj
 0002:00005da0       standard_lookup_table      000000018004bda0     libucrt:output.obj
 0002:00005e00       format_validation_lookup_table 000000018004be00     libucrt:output.obj
 0002:00005e5c       ??_C@_06OJHGLDPL@?$CInull?$CJ?$AA@ 000000018004be5c     libucrt:output.obj
 0002:00005e68       ??_C@_1O@CEDCILHN@?$AA?$CI?$AAn?$AAu?$AAl?$AAl?$AA?$CJ?$AA?$AA@ 000000018004be68     libucrt:output.obj
 0002:00005fe8       __real@8000000000000000    000000018004bfe8     libucrt:frexp.obj
 0002:00005ff0       ?large_power_data@?1??multiply_by_power_of_ten@__crt_strtox@@YA_NAEAUbig_integer@2@I@Z@4QBIB 000000018004bff0     libucrt:atof.obj
 0002:00006900       ?large_power_indices@?1??multiply_by_power_of_ten@__crt_strtox@@YA_NAEAUbig_integer@2@I@Z@4QBUunpack_index@?1??12@YA_N0I@Z@B 000000018004c900     libucrt:atof.obj
 0002:00006998       ?small_powers_of_ten@?6??multiply_by_power_of_ten@__crt_strtox@@YA_NAEAUbig_integer@2@I@Z@4QBIB 000000018004c998     libucrt:atof.obj
 0002:000069c0       ??_C@_1GE@DPGDJKLM@?$AAm?$AAi?$AAn?$AAk?$AAe?$AAr?$AAn?$AAe?$AAl?$AA?2?$AAc?$AAr?$AAt?$AAs?$AA?2?$AAu?$AAc?$AAr?$AAt?$AA?2?$AAi?$AAn?$AAc?$AA?2?$AAc?$AAo?$AAr?$AAe?$AAc?$AAr?$AAt?$AA_@ 000000018004c9c0     libucrt:atof.obj
 0002:00006a30       ??_C@_1FM@FELNCOBF@?$AA_?$AA_?$AAc?$AAr?$AAt?$AA_?$AAs?$AAt?$AAr?$AAt?$AAo?$AAx?$AA?3?$AA?3?$AAf?$AAl?$AAo?$AAa?$AAt?$AAi?$AAn?$AAg?$AA_?$AAp?$AAo?$AAi?$AAn?$AAt?$AA_?$AAv?$AAa?$AAl@ 000000018004ca30     libucrt:atof.obj
 0002:00006a90       ??_C@_1BG@GEMHBGAF@?$AA_?$AAi?$AAs?$AA_?$AAd?$AAo?$AAu?$AAb?$AAl?$AAe?$AA?$AA@ 000000018004ca90     libucrt:atof.obj
 0002:00006ab0       ??_C@_1FK@JOJELFFO@?$AA_?$AA_?$AAc?$AAr?$AAt?$AA_?$AAs?$AAt?$AAr?$AAt?$AAo?$AAx?$AA?3?$AA?3?$AAf?$AAl?$AAo?$AAa?$AAt?$AAi?$AAn?$AAg?$AA_?$AAp?$AAo?$AAi?$AAn?$AAt?$AA_?$AAv?$AAa?$AAl@ 000000018004cab0     libucrt:atof.obj
 0002:00006b10       ??_C@_1BI@BANMPGJI@?$AA?$CB?$AA_?$AAi?$AAs?$AA_?$AAd?$AAo?$AAu?$AAb?$AAl?$AAe?$AA?$AA@ 000000018004cb10     libucrt:atof.obj
 0002:00006b28       ?inf_uppercase@?2???$parse_floating_point_possible_infinity@DV?$c_string_character_source@D@__crt_strtox@@PEBD@__crt_strtox@@YA?AW4floating_point_parse_result@1@AEADAEAV?$c_string_character_source@D@1@PEBD@Z@4QBDB 000000018004cb28     libucrt:atof.obj
 0002:00006b2c       ?inf_lowercase@?2???$parse_floating_point_possible_infinity@DV?$c_string_character_source@D@__crt_strtox@@PEBD@__crt_strtox@@YA?AW4floating_point_parse_result@1@AEADAEAV?$c_string_character_source@D@1@PEBD@Z@4QBDB 000000018004cb2c     libucrt:atof.obj
 0002:00006b30       ?inity_uppercase@?5???$parse_floating_point_possible_infinity@DV?$c_string_character_source@D@__crt_strtox@@PEBD@__crt_strtox@@YA?AW4floating_point_parse_result@1@AEADAEAV?$c_string_character_source@D@1@PEBD@Z@4QBDB 000000018004cb30     libucrt:atof.obj
 0002:00006b38       ?inity_lowercase@?5???$parse_floating_point_possible_infinity@DV?$c_string_character_source@D@__crt_strtox@@PEBD@__crt_strtox@@YA?AW4floating_point_parse_result@1@AEADAEAV?$c_string_character_source@D@1@PEBD@Z@4QBDB 000000018004cb38     libucrt:atof.obj
 0002:00006b40       ?uppercase@?2???$parse_floating_point_possible_nan@DV?$c_string_character_source@D@__crt_strtox@@PEBD@__crt_strtox@@YA?AW4floating_point_parse_result@1@AEADAEAV?$c_string_character_source@D@1@PEBD@Z@4QBDB 000000018004cb40     libucrt:atof.obj
 0002:00006b44       ?lowercase@?2???$parse_floating_point_possible_nan@DV?$c_string_character_source@D@__crt_strtox@@PEBD@__crt_strtox@@YA?AW4floating_point_parse_result@1@AEADAEAV?$c_string_character_source@D@1@PEBD@Z@4QBDB 000000018004cb44     libucrt:atof.obj
 0002:00006b48       ?uppercase@?1???$parse_floating_point_possible_nan_is_snan@DV?$c_string_character_source@D@__crt_strtox@@@__crt_strtox@@YA_NAEADAEAV?$c_string_character_source@D@1@@Z@4QBDB 000000018004cb48     libucrt:atof.obj
 0002:00006b50       ?lowercase@?1???$parse_floating_point_possible_nan_is_snan@DV?$c_string_character_source@D@__crt_strtox@@@__crt_strtox@@YA_NAEADAEAV?$c_string_character_source@D@1@@Z@4QBDB 000000018004cb50     libucrt:atof.obj
 0002:00006b58       ?uppercase@?1???$parse_floating_point_possible_nan_is_ind@DV?$c_string_character_source@D@__crt_strtox@@@__crt_strtox@@YA_NAEADAEAV?$c_string_character_source@D@1@@Z@4QBDB 000000018004cb58     libucrt:atof.obj
 0002:00006b5c       ?lowercase@?1???$parse_floating_point_possible_nan_is_ind@DV?$c_string_character_source@D@__crt_strtox@@@__crt_strtox@@YA_NAEADAEAV?$c_string_character_source@D@1@@Z@4QBDB 000000018004cb5c     libucrt:atof.obj
 0002:00006b60       ??_C@_1EK@MBDPDCGA@?$AAM?$AAi?$AAc?$AAr?$AAo?$AAs?$AAo?$AAf?$AAt?$AA?5?$AAV?$AAi?$AAs?$AAu?$AAa?$AAl?$AA?5?$AAC?$AA?$CL?$AA?$CL?$AA?5?$AAR?$AAu?$AAn?$AAt?$AAi?$AAm?$AAe?$AA?5?$AAL?$AAi?$AAb@ 000000018004cb60     libucrt:assert.obj
 0002:00006bb0       ??_C@_1FE@LHBLIKM@?$AAA?$AAs?$AAs?$AAe?$AAr?$AAt?$AAi?$AAo?$AAn?$AA?5?$AAf?$AAa?$AAi?$AAl?$AAe?$AAd?$AA?3?$AA?5?$AA?$CF?$AAT?$AAs?$AA?0?$AA?5?$AAf?$AAi?$AAl?$AAe?$AA?5?$AA?$CF?$AAT?$AAs?$AA?0@ 000000018004cbb0     libucrt:assert.obj
 0002:00006c08       ??_C@_1CE@OJBNHDMO@?$AAA?$AAs?$AAs?$AAe?$AAr?$AAt?$AAi?$AAo?$AAn?$AA?5?$AAf?$AAa?$AAi?$AAl?$AAe?$AAd?$AA?$CB?$AA?$AA@ 000000018004cc08     libucrt:assert.obj
 0002:00006c30       ??_C@_1BE@PHKBBGE@?$AAP?$AAr?$AAo?$AAg?$AAr?$AAa?$AAm?$AA?3?$AA?5?$AA?$AA@ 000000018004cc30     libucrt:assert.obj
 0002:00006c48       ??_C@_1O@HEMHKNDC@?$AAF?$AAi?$AAl?$AAe?$AA?3?$AA?5?$AA?$AA@ 000000018004cc48     libucrt:assert.obj
 0002:00006c58       ??_C@_1O@KCAFKHJE@?$AAL?$AAi?$AAn?$AAe?$AA?3?$AA?5?$AA?$AA@ 000000018004cc58     libucrt:assert.obj
 0002:00006c68       ??_C@_1BK@PEDCIPMA@?$AAE?$AAx?$AAp?$AAr?$AAe?$AAs?$AAs?$AAi?$AAo?$AAn?$AA?3?$AA?5?$AA?$AA@ 000000018004cc68     libucrt:assert.obj
 0002:00006c90       ??_C@_1OA@EGMLFBHJ@?$AAF?$AAo?$AAr?$AA?5?$AAi?$AAn?$AAf?$AAo?$AAr?$AAm?$AAa?$AAt?$AAi?$AAo?$AAn?$AA?5?$AAo?$AAn?$AA?5?$AAh?$AAo?$AAw?$AA?5?$AAy?$AAo?$AAu?$AAr?$AA?5?$AAp?$AAr?$AAo?$AAg@ 000000018004cc90     libucrt:assert.obj
 0002:00006d70       ??_C@_1HK@POCJMFGK@?$AA?$CI?$AAP?$AAr?$AAe?$AAs?$AAs?$AA?5?$AAR?$AAe?$AAt?$AAr?$AAy?$AA?5?$AAt?$AAo?$AA?5?$AAd?$AAe?$AAb?$AAu?$AAg?$AA?5?$AAt?$AAh?$AAe?$AA?5?$AAa?$AAp?$AAp?$AAl?$AAi?$AAc@ 000000018004cd70     libucrt:assert.obj
 0002:00006df0       ??_C@_17LGKOMLJ@?$AA?4?$AA?4?$AA?4?$AA?$AA@ 000000018004cdf0     libucrt:assert.obj
 0002:00006df8       ??_C@_13LBAGMAIH@?$AA?6?$AA?$AA@ 000000018004cdf8     libucrt:assert.obj
 0002:00006dfc       ??_C@_15IABLJNFO@?$AA?6?$AA?6?$AA?$AA@ 000000018004cdfc     libucrt:assert.obj
 0002:00006e08       ??_C@_1CO@EAEJAADC@?$AA?$DM?$AAp?$AAr?$AAo?$AAg?$AAr?$AAa?$AAm?$AA?5?$AAn?$AAa?$AAm?$AAe?$AA?5?$AAu?$AAn?$AAk?$AAn?$AAo?$AAw?$AAn?$AA?$DO?$AA?$AA@ 000000018004ce08     libucrt:assert.obj
 0002:00006e40       __newctype                 000000018004ce40     libucrt:ctype.obj
 0002:00007140       __newclmap                 000000018004d140     libucrt:ctype.obj
 0002:000072c0       __newcumap                 000000018004d2c0     libucrt:ctype.obj
 0002:00007440       _wctype                    000000018004d440     libucrt:ctype.obj
 0002:00007648       ??_C@_1M@PBPMMENC@?$AAa?$AAm?$AA?1?$AAp?$AAm?$AA?$AA@ 000000018004d648     libucrt:wcsftime.obj
 0002:00007658       ??_C@_17BLFJJHMM@?$AAa?$AA?1?$AAp?$AA?$AA@ 000000018004d658     libucrt:wcsftime.obj
 0002:00007660       ??_C@_13HOIJIPNN@?$AA?5?$AA?$AA@ 000000018004d660     libucrt:wcsftime.obj
 0002:00007664       ??_C@_13CGOKJPIL@?$AA?1?$AA?$AA@ 000000018004d664     libucrt:wcsftime.obj
 0002:00007668       ??_C@_13EBCNDICG@?$AA?3?$AA?$AA@ 000000018004d668     libucrt:wcsftime.obj
 0002:0000766c       ??_C@_13KDLDGPGJ@?$AA?7?$AA?$AA@ 000000018004d66c     libucrt:wcsftime.obj
 0002:00007670       ??_C@_13KJIIAINM@?$AA?$CL?$AA?$AA@ 000000018004d670     libucrt:wcsftime.obj
 0002:00007674       ??_C@_13EJFHHPOP@?$AA?$CF?$AA?$AA@ 000000018004d674     libucrt:wcsftime.obj
 0002:00007678       ??_C@_04EIAKFFMI@sqrt?$AA@ 000000018004d678     libucrt:sqrt.obj
 0002:00007680       __acrt_exception_action_table 000000018004d680     libucrt:exception_filter.obj
 0002:00007740       __acrt_signal_action_table_count 000000018004d740     libucrt:exception_filter.obj
 0002:00007748       __acrt_signal_action_first_fpe_index 000000018004d748     libucrt:exception_filter.obj
 0002:00007750       __acrt_signal_action_fpe_count 000000018004d750     libucrt:exception_filter.obj
 0002:00007758       ??_C@_1BI@BGOHAHKC@?$AAm?$AAs?$AAc?$AAo?$AAr?$AAe?$AAe?$AA?4?$AAd?$AAl?$AAl?$AA?$AA@ 000000018004d758     libucrt:exit.obj
 0002:00007770       ??_C@_0P@MIGLKIOC@CorExitProcess?$AA@ 000000018004d770     libucrt:exit.obj
 0002:00007870       __lc_category              000000018004d870     libucrt:wsetlocale.obj
 0002:00007900       ??_C@_1O@GIFLHMA@?$AAL?$AAC?$AA_?$AAA?$AAL?$AAL?$AA?$AA@ 000000018004d900     libucrt:wsetlocale.obj
 0002:00007910       ??_C@_1BG@PPOMIBNJ@?$AAL?$AAC?$AA_?$AAC?$AAO?$AAL?$AAL?$AAA?$AAT?$AAE?$AA?$AA@ 000000018004d910     libucrt:wsetlocale.obj
 0002:00007928       ??_C@_1BC@FFJGAPJM@?$AAL?$AAC?$AA_?$AAC?$AAT?$AAY?$AAP?$AAE?$AA?$AA@ 000000018004d928     libucrt:wsetlocale.obj
 0002:00007940       ??_C@_1BI@PCKFNJFB@?$AAL?$AAC?$AA_?$AAM?$AAO?$AAN?$AAE?$AAT?$AAA?$AAR?$AAY?$AA?$AA@ 000000018004d940     libucrt:wsetlocale.obj
 0002:00007958       ??_C@_1BG@ENIEDKID@?$AAL?$AAC?$AA_?$AAN?$AAU?$AAM?$AAE?$AAR?$AAI?$AAC?$AA?$AA@ 000000018004d958     libucrt:wsetlocale.obj
 0002:00007970       ??_C@_1BA@HAAOMIIG@?$AAL?$AAC?$AA_?$AAT?$AAI?$AAM?$AAE?$AA?$AA@ 000000018004d970     libucrt:wsetlocale.obj
 0002:00007a00       ??_C@_15NBPDDFIP@?$AA?$DN?$AA?$DL?$AA?$AA@ 000000018004da00     libucrt:wsetlocale.obj
 0002:00007a08       ??_C@_13PJJBFPED@?$AA?$DL?$AA?$AA@ 000000018004da08     libucrt:wsetlocale.obj
 0002:00007a0c       ??_C@_13NMPKAAJP@?$AA?$DN?$AA?$AA@ 000000018004da0c     libucrt:wsetlocale.obj
 0002:00007a10       ??_C@_13FHBKNHDA@?$AAC?$AA?$AA@ 000000018004da10     libucrt:wsetlocale.obj
 0002:00007a18       ??_C@_17MBJJLFDM@?$AA_?$AA?4?$AA?0?$AA?$AA@ 000000018004da18     libucrt:wsetlocale.obj
 0002:00007a20       ??_C@_13ENNFDPBH@?$AA_?$AA?$AA@ 000000018004da20     libucrt:wsetlocale.obj
 0002:00007a24       ??_C@_13JOFGPIOO@?$AA?4?$AA?$AA@ 000000018004da24     libucrt:wsetlocale.obj
 0002:00007a30       __lc_time_c                000000018004da30     libucrt:nlsdata.obj
 0002:00007cf0       ??_C@_03KOEHGMDN@Sun?$AA@  000000018004dcf0     libucrt:nlsdata.obj
 0002:00007cf4       ??_C@_03PDAGKDH@Mon?$AA@   000000018004dcf4     libucrt:nlsdata.obj
 0002:00007cf8       ??_C@_03NAGEINEP@Tue?$AA@  000000018004dcf8     libucrt:nlsdata.obj
 0002:00007cfc       ??_C@_03MHOMLAJA@Wed?$AA@  000000018004dcfc     libucrt:nlsdata.obj
 0002:00007d00       ??_C@_03IOFIKPDN@Thu?$AA@  000000018004dd00     libucrt:nlsdata.obj
 0002:00007d04       ??_C@_03IDIOELNC@Fri?$AA@  000000018004dd04     libucrt:nlsdata.obj
 0002:00007d08       ??_C@_03FEFJNEK@Sat?$AA@   000000018004dd08     libucrt:nlsdata.obj
 0002:00007d0c       ??_C@_06OOPIFAJ@Sunday?$AA@ 000000018004dd0c     libucrt:nlsdata.obj
 0002:00007d14       ??_C@_06JLEDEDGH@Monday?$AA@ 000000018004dd14     libucrt:nlsdata.obj
 0002:00007d20       ??_C@_07BAAGCFCM@Tuesday?$AA@ 000000018004dd20     libucrt:nlsdata.obj
 0002:00007d28       ??_C@_09DLIGFAKA@Wednesday?$AA@ 000000018004dd28     libucrt:nlsdata.obj
 0002:00007d38       ??_C@_08HACCIKIA@Thursday?$AA@ 000000018004dd38     libucrt:nlsdata.obj
 0002:00007d44       ??_C@_06JECMNKMI@Friday?$AA@ 000000018004dd44     libucrt:nlsdata.obj
 0002:00007d50       ??_C@_08INBOOONO@Saturday?$AA@ 000000018004dd50     libucrt:nlsdata.obj
 0002:00007d5c       ??_C@_03JIHJHPIE@Jan?$AA@  000000018004dd5c     libucrt:nlsdata.obj
 0002:00007d60       ??_C@_03HJBDCHOM@Feb?$AA@  000000018004dd60     libucrt:nlsdata.obj
 0002:00007d64       ??_C@_03ODNJBKGA@Mar?$AA@  000000018004dd64     libucrt:nlsdata.obj
 0002:00007d68       ??_C@_03LEOLGMJP@Apr?$AA@  000000018004dd68     libucrt:nlsdata.obj
 0002:00007d6c       ??_C@_03CNMDKL@May?$AA@    000000018004dd6c     libucrt:nlsdata.obj
 0002:00007d70       ??_C@_03IDFGHECI@Jun?$AA@  000000018004dd70     libucrt:nlsdata.obj
 0002:00007d74       ??_C@_03LBGABGKK@Jul?$AA@  000000018004dd74     libucrt:nlsdata.obj
 0002:00007d78       ??_C@_03IFJFEIGA@Aug?$AA@  000000018004dd78     libucrt:nlsdata.obj
 0002:00007d7c       ??_C@_03GGCAPAJC@Sep?$AA@  000000018004dd7c     libucrt:nlsdata.obj
 0002:00007d80       ??_C@_03BMAOKBAD@Oct?$AA@  000000018004dd80     libucrt:nlsdata.obj
 0002:00007d84       ??_C@_03JPJOFNIA@Nov?$AA@  000000018004dd84     libucrt:nlsdata.obj
 0002:00007d88       ??_C@_03MKABNOCG@Dec?$AA@  000000018004dd88     libucrt:nlsdata.obj
 0002:00007d90       ??_C@_07CGJPFGJA@January?$AA@ 000000018004dd90     libucrt:nlsdata.obj
 0002:00007d98       ??_C@_08GNJGEPFN@February?$AA@ 000000018004dd98     libucrt:nlsdata.obj
 0002:00007da4       ??_C@_05HPCKOFNC@March?$AA@ 000000018004dda4     libucrt:nlsdata.obj
 0002:00007dac       ??_C@_05DMJDNLEJ@April?$AA@ 000000018004ddac     libucrt:nlsdata.obj
 0002:00007db4       ??_C@_04CNLMGBGM@June?$AA@ 000000018004ddb4     libucrt:nlsdata.obj
 0002:00007dbc       ??_C@_04MIEPOIFP@July?$AA@ 000000018004ddbc     libucrt:nlsdata.obj
 0002:00007dc4       ??_C@_06LBBHFDDG@August?$AA@ 000000018004ddc4     libucrt:nlsdata.obj
 0002:00007dd0       ??_C@_09BHHEALKD@September?$AA@ 000000018004ddd0     libucrt:nlsdata.obj
 0002:00007de0       ??_C@_07JJNFCEND@October?$AA@ 000000018004dde0     libucrt:nlsdata.obj
 0002:00007de8       ??_C@_08HCHEGEOA@November?$AA@ 000000018004dde8     libucrt:nlsdata.obj
 0002:00007df8       ??_C@_08EDHMEBNP@December?$AA@ 000000018004ddf8     libucrt:nlsdata.obj
 0002:00007e04       ??_C@_02DEDBPAFC@AM?$AA@   000000018004de04     libucrt:nlsdata.obj
 0002:00007e08       ??_C@_02CJNFDJBF@PM?$AA@   000000018004de08     libucrt:nlsdata.obj
 0002:00007e10       ??_C@_08BPBNCDIB@MM?1dd?1yy?$AA@ 000000018004de10     libucrt:nlsdata.obj
 0002:00007e20       ??_C@_0BE@CKGJFCPC@dddd?0?5MMMM?5dd?0?5yyyy?$AA@ 000000018004de20     libucrt:nlsdata.obj
 0002:00007e38       ??_C@_08JCCMCCIL@HH?3mm?3ss?$AA@ 000000018004de38     libucrt:nlsdata.obj
 0002:00007e48       ??_C@_17MBGCMIPB@?$AAS?$AAu?$AAn?$AA?$AA@ 000000018004de48     libucrt:nlsdata.obj
 0002:00007e50       ??_C@_17KBOMKBF@?$AAM?$AAo?$AAn?$AA?$AA@ 000000018004de50     libucrt:nlsdata.obj
 0002:00007e58       ??_C@_17BMKGEGOJ@?$AAT?$AAu?$AAe?$AA?$AA@ 000000018004de58     libucrt:nlsdata.obj
 0002:00007e60       ??_C@_17CJEDCEPE@?$AAW?$AAe?$AAd?$AA?$AA@ 000000018004de60     libucrt:nlsdata.obj
 0002:00007e68       ??_C@_17PDPHAADD@?$AAT?$AAh?$AAu?$AA?$AA@ 000000018004de68     libucrt:nlsdata.obj
 0002:00007e70       ??_C@_17HFOLPPLP@?$AAF?$AAr?$AAi?$AA?$AA@ 000000018004de70     libucrt:nlsdata.obj
 0002:00007e78       ??_C@_17GGIBDPIH@?$AAS?$AAa?$AAt?$AA?$AA@ 000000018004de78     libucrt:nlsdata.obj
 0002:00007e80       ??_C@_1O@IHNHDHPB@?$AAS?$AAu?$AAn?$AAd?$AAa?$AAy?$AA?$AA@ 000000018004de80     libucrt:nlsdata.obj
 0002:00007e90       ??_C@_1O@MMNBFLIA@?$AAM?$AAo?$AAn?$AAd?$AAa?$AAy?$AA?$AA@ 000000018004de90     libucrt:nlsdata.obj
 0002:00007ea0       ??_C@_1BA@ENFBFFEK@?$AAT?$AAu?$AAe?$AAs?$AAd?$AAa?$AAy?$AA?$AA@ 000000018004dea0     libucrt:nlsdata.obj
 0002:00007eb0       ??_C@_1BE@EBOGMDOH@?$AAW?$AAe?$AAd?$AAn?$AAe?$AAs?$AAd?$AAa?$AAy?$AA?$AA@ 000000018004deb0     libucrt:nlsdata.obj
 0002:00007ec8       ??_C@_1BC@HHMNLIHE@?$AAT?$AAh?$AAu?$AAr?$AAs?$AAd?$AAa?$AAy?$AA?$AA@ 000000018004dec8     libucrt:nlsdata.obj
 0002:00007ee0       ??_C@_1O@PDICJHAG@?$AAF?$AAr?$AAi?$AAd?$AAa?$AAy?$AA?$AA@ 000000018004dee0     libucrt:nlsdata.obj
 0002:00007ef0       ??_C@_1BC@ENMNNPAJ@?$AAS?$AAa?$AAt?$AAu?$AAr?$AAd?$AAa?$AAy?$AA?$AA@ 000000018004def0     libucrt:nlsdata.obj
 0002:00007f08       ??_C@_17DKNBKCHM@?$AAJ?$AAa?$AAn?$AA?$AA@ 000000018004df08     libucrt:nlsdata.obj
 0002:00007f10       ??_C@_17LMDJEKJN@?$AAF?$AAe?$AAb?$AA?$AA@ 000000018004df10     libucrt:nlsdata.obj
 0002:00007f18       ??_C@_17CKNLEDEC@?$AAM?$AAa?$AAr?$AA?$AA@ 000000018004df18     libucrt:nlsdata.obj
 0002:00007f20       ??_C@_17LFPOIHDD@?$AAA?$AAp?$AAr?$AA?$AA@ 000000018004df20     libucrt:nlsdata.obj
 0002:00007f28       ??_C@_17PNNKMEED@?$AAM?$AAa?$AAy?$AA?$AA@ 000000018004df28     libucrt:nlsdata.obj
 0002:00007f30       ??_C@_17KCJGOCPB@?$AAJ?$AAu?$AAn?$AA?$AA@ 000000018004df30     libucrt:nlsdata.obj
 0002:00007f38       ??_C@_17IJPCKHK@?$AAJ?$AAu?$AAl?$AA?$AA@ 000000018004df38     libucrt:nlsdata.obj
 0002:00007f40       ??_C@_17ICPELBCN@?$AAA?$AAu?$AAg?$AA?$AA@ 000000018004df40     libucrt:nlsdata.obj
 0002:00007f48       ??_C@_17HCHCOKMG@?$AAS?$AAe?$AAp?$AA?$AA@ 000000018004df48     libucrt:nlsdata.obj
 0002:00007f50       ??_C@_17FNLKOI@?$AAO?$AAc?$AAt?$AA?$AA@ 000000018004df50     libucrt:nlsdata.obj
 0002:00007f58       ??_C@_17BBDMLCIG@?$AAN?$AAo?$AAv?$AA?$AA@ 000000018004df58     libucrt:nlsdata.obj
 0002:00007f60       ??_C@_17EGKACKIF@?$AAD?$AAe?$AAc?$AA?$AA@ 000000018004df60     libucrt:nlsdata.obj
 0002:00007f68       ??_C@_1BA@EFMEIEBA@?$AAJ?$AAa?$AAn?$AAu?$AAa?$AAr?$AAy?$AA?$AA@ 000000018004df68     libucrt:nlsdata.obj
 0002:00007f78       ??_C@_1BC@JGDDFFAM@?$AAF?$AAe?$AAb?$AAr?$AAu?$AAa?$AAr?$AAy?$AA?$AA@ 000000018004df78     libucrt:nlsdata.obj
 0002:00007f90       ??_C@_1M@IKEENEDF@?$AAM?$AAa?$AAr?$AAc?$AAh?$AA?$AA@ 000000018004df90     libucrt:nlsdata.obj
 0002:00007fa0       ??_C@_1M@GJNLMHFD@?$AAA?$AAp?$AAr?$AAi?$AAl?$AA?$AA@ 000000018004dfa0     libucrt:nlsdata.obj
 0002:00007fb0       ??_C@_19EPFLPGAP@?$AAJ?$AAu?$AAn?$AAe?$AA?$AA@ 000000018004dfb0     libucrt:nlsdata.obj
 0002:00007fc0       ??_C@_19BIFMLPCD@?$AAJ?$AAu?$AAl?$AAy?$AA?$AA@ 000000018004dfc0     libucrt:nlsdata.obj
 0002:00007fd0       ??_C@_1O@PAHLKOAC@?$AAA?$AAu?$AAg?$AAu?$AAs?$AAt?$AA?$AA@ 000000018004dfd0     libucrt:nlsdata.obj
 0002:00007fe0       ??_C@_1BE@DKAAMBJL@?$AAS?$AAe?$AAp?$AAt?$AAe?$AAm?$AAb?$AAe?$AAr?$AA?$AA@ 000000018004dfe0     libucrt:nlsdata.obj
 0002:00007ff8       ??_C@_1BA@EPANDLNG@?$AAO?$AAc?$AAt?$AAo?$AAb?$AAe?$AAr?$AA?$AA@ 000000018004dff8     libucrt:nlsdata.obj
 0002:00008008       ??_C@_1BC@BGLIFPF@?$AAN?$AAo?$AAv?$AAe?$AAm?$AAb?$AAe?$AAr?$AA?$AA@ 000000018004e008     libucrt:nlsdata.obj
 0002:00008020       ??_C@_1BC@FEMKIFH@?$AAD?$AAe?$AAc?$AAe?$AAm?$AAb?$AAe?$AAr?$AA?$AA@ 000000018004e020     libucrt:nlsdata.obj
 0002:00008034       ??_C@_15ODEHAHHF@?$AAA?$AAM?$AA?$AA@ 000000018004e034     libucrt:nlsdata.obj
 0002:0000803c       ??_C@_15CLMNNGEL@?$AAP?$AAM?$AA?$AA@ 000000018004e03c     libucrt:nlsdata.obj
 0002:00008048       ??_C@_1BC@IEBCMHCM@?$AAM?$AAM?$AA?1?$AAd?$AAd?$AA?1?$AAy?$AAy?$AA?$AA@ 000000018004e048     libucrt:nlsdata.obj
 0002:00008060       ??_C@_1CI@KNAKOEBC@?$AAd?$AAd?$AAd?$AAd?$AA?0?$AA?5?$AAM?$AAM?$AAM?$AAM?$AA?5?$AAd?$AAd?$AA?0?$AA?5?$AAy?$AAy?$AAy?$AAy?$AA?$AA@ 000000018004e060     libucrt:nlsdata.obj
 0002:00008088       ??_C@_1BC@GDGBMEMK@?$AAH?$AAH?$AA?3?$AAm?$AAm?$AA?3?$AAs?$AAs?$AA?$AA@ 000000018004e088     libucrt:nlsdata.obj
 0002:0000809c       ??_C@_03OEIAHPBN@INF?$AA@  000000018004e09c     libucrt:cvt.obj
 0002:000080a0       ??_C@_03OJHLLCGB@inf?$AA@  000000018004e0a0     libucrt:cvt.obj
 0002:000080a4       ??_C@_03LKNCIKJB@NAN?$AA@  000000018004e0a4     libucrt:cvt.obj
 0002:000080a8       ??_C@_03LHCJEHON@nan?$AA@  000000018004e0a8     libucrt:cvt.obj
 0002:000080b0       ??_C@_09OFJJIMPC@NAN?$CISNAN?$CJ?$AA@ 000000018004e0b0     libucrt:cvt.obj
 0002:000080c0       ??_C@_09IPFBKMDL@nan?$CIsnan?$CJ?$AA@ 000000018004e0c0     libucrt:cvt.obj
 0002:000080d0       ??_C@_08IKHNHAJ@NAN?$CIIND?$CJ?$AA@ 000000018004e0d0     libucrt:cvt.obj
 0002:000080e0       ??_C@_08OFCDMILK@nan?$CIind?$CJ?$AA@ 000000018004e0e0     libucrt:cvt.obj
 0002:000080ec       ??_C@_05KLBDPFGC@e?$CL000?$AA@ 000000018004e0ec     libucrt:cvt.obj
 0002:000081a0       ??_C@_1EG@CNNIPFIM@?$AAa?$AAp?$AAi?$AA?9?$AAm?$AAs?$AA?9?$AAw?$AAi?$AAn?$AA?9?$AAa?$AAp?$AAp?$AAm?$AAo?$AAd?$AAe?$AAl?$AA?9?$AAr?$AAu?$AAn?$AAt?$AAi?$AAm?$AAe?$AA?9?$AAl?$AA1?$AA?9?$AA1@ 000000018004e1a0     libucrt:winapi_thunks.obj
 0002:000081f0       ??_C@_1EA@JGEFHKEI@?$AAa?$AAp?$AAi?$AA?9?$AAm?$AAs?$AA?9?$AAw?$AAi?$AAn?$AA?9?$AAc?$AAo?$AAr?$AAe?$AA?9?$AAd?$AAa?$AAt?$AAe?$AAt?$AAi?$AAm?$AAe?$AA?9?$AAl?$AA1?$AA?9?$AA1?$AA?9?$AA1?$AA?$AA@ 000000018004e1f0     libucrt:winapi_thunks.obj
 0002:00008230       ??_C@_1DI@GCIAAENM@?$AAa?$AAp?$AAi?$AA?9?$AAm?$AAs?$AA?9?$AAw?$AAi?$AAn?$AA?9?$AAc?$AAo?$AAr?$AAe?$AA?9?$AAf?$AAi?$AAl?$AAe?$AA?9?$AAl?$AA2?$AA?9?$AA1?$AA?9?$AA1?$AA?$AA@ 000000018004e230     libucrt:winapi_thunks.obj
 0002:00008270       ??_C@_1EI@MPIAOHOC@?$AAa?$AAp?$AAi?$AA?9?$AAm?$AAs?$AA?9?$AAw?$AAi?$AAn?$AA?9?$AAc?$AAo?$AAr?$AAe?$AA?9?$AAl?$AAo?$AAc?$AAa?$AAl?$AAi?$AAz?$AAa?$AAt?$AAi?$AAo?$AAn?$AA?9?$AAl?$AA1?$AA?9@ 000000018004e270     libucrt:winapi_thunks.obj
 0002:000082c0       ??_C@_1FK@FPHCKFIE@?$AAa?$AAp?$AAi?$AA?9?$AAm?$AAs?$AA?9?$AAw?$AAi?$AAn?$AA?9?$AAc?$AAo?$AAr?$AAe?$AA?9?$AAl?$AAo?$AAc?$AAa?$AAl?$AAi?$AAz?$AAa?$AAt?$AAi?$AAo?$AAn?$AA?9?$AAo?$AAb?$AAs@ 000000018004e2c0     libucrt:winapi_thunks.obj
 0002:00008320       ??_C@_1EM@DILCGIIO@?$AAa?$AAp?$AAi?$AA?9?$AAm?$AAs?$AA?9?$AAw?$AAi?$AAn?$AA?9?$AAc?$AAo?$AAr?$AAe?$AA?9?$AAp?$AAr?$AAo?$AAc?$AAe?$AAs?$AAs?$AAt?$AAh?$AAr?$AAe?$AAa?$AAd?$AAs?$AA?9?$AAl@ 000000018004e320     libucrt:winapi_thunks.obj
 0002:00008370       ??_C@_1DM@LNCGDDPN@?$AAa?$AAp?$AAi?$AA?9?$AAm?$AAs?$AA?9?$AAw?$AAi?$AAn?$AA?9?$AAc?$AAo?$AAr?$AAe?$AA?9?$AAs?$AAt?$AAr?$AAi?$AAn?$AAg?$AA?9?$AAl?$AA1?$AA?9?$AA1?$AA?9?$AA0?$AA?$AA@ 000000018004e370     libucrt:winapi_thunks.obj
 0002:000083b0       ??_C@_1DO@FPAPJEMD@?$AAa?$AAp?$AAi?$AA?9?$AAm?$AAs?$AA?9?$AAw?$AAi?$AAn?$AA?9?$AAc?$AAo?$AAr?$AAe?$AA?9?$AAs?$AAy?$AAs?$AAi?$AAn?$AAf?$AAo?$AA?9?$AAl?$AA1?$AA?9?$AA2?$AA?9?$AA1?$AA?$AA@ 000000018004e3b0     libucrt:winapi_thunks.obj
 0002:000083f0       ??_C@_1DK@NDHNAHIO@?$AAa?$AAp?$AAi?$AA?9?$AAm?$AAs?$AA?9?$AAw?$AAi?$AAn?$AA?9?$AAc?$AAo?$AAr?$AAe?$AA?9?$AAw?$AAi?$AAn?$AAr?$AAt?$AA?9?$AAl?$AA1?$AA?9?$AA1?$AA?9?$AA0?$AA?$AA@ 000000018004e3f0     libucrt:winapi_thunks.obj
 0002:00008430       ??_C@_1DM@KGHDGBCM@?$AAa?$AAp?$AAi?$AA?9?$AAm?$AAs?$AA?9?$AAw?$AAi?$AAn?$AA?9?$AAc?$AAo?$AAr?$AAe?$AA?9?$AAx?$AAs?$AAt?$AAa?$AAt?$AAe?$AA?9?$AAl?$AA2?$AA?9?$AA1?$AA?9?$AA0?$AA?$AA@ 000000018004e430     libucrt:winapi_thunks.obj
 0002:00008470       ??_C@_1EO@IJIOEFOH@?$AAa?$AAp?$AAi?$AA?9?$AAm?$AAs?$AA?9?$AAw?$AAi?$AAn?$AA?9?$AAr?$AAt?$AAc?$AAo?$AAr?$AAe?$AA?9?$AAn?$AAt?$AAu?$AAs?$AAe?$AAr?$AA?9?$AAw?$AAi?$AAn?$AAd?$AAo?$AAw?$AA?9@ 000000018004e470     libucrt:winapi_thunks.obj
 0002:000084c0       ??_C@_1FG@HHGEKANL@?$AAa?$AAp?$AAi?$AA?9?$AAm?$AAs?$AA?9?$AAw?$AAi?$AAn?$AA?9?$AAs?$AAe?$AAc?$AAu?$AAr?$AAi?$AAt?$AAy?$AA?9?$AAs?$AAy?$AAs?$AAt?$AAe?$AAm?$AAf?$AAu?$AAn?$AAc?$AAt?$AAi@ 000000018004e4c0     libucrt:winapi_thunks.obj
 0002:00008520       ??_C@_1FG@NCKKOLKO@?$AAe?$AAx?$AAt?$AA?9?$AAm?$AAs?$AA?9?$AAw?$AAi?$AAn?$AA?9?$AAk?$AAe?$AAr?$AAn?$AAe?$AAl?$AA3?$AA2?$AA?9?$AAp?$AAa?$AAc?$AAk?$AAa?$AAg?$AAe?$AA?9?$AAc?$AAu?$AAr?$AAr@ 000000018004e520     libucrt:winapi_thunks.obj
 0002:00008580       ??_C@_1EG@DBIOJECG@?$AAe?$AAx?$AAt?$AA?9?$AAm?$AAs?$AA?9?$AAw?$AAi?$AAn?$AA?9?$AAn?$AAt?$AAu?$AAs?$AAe?$AAr?$AA?9?$AAd?$AAi?$AAa?$AAl?$AAo?$AAg?$AAb?$AAo?$AAx?$AA?9?$AAl?$AA1?$AA?9?$AA1@ 000000018004e580     libucrt:winapi_thunks.obj
 0002:000085d0       ??_C@_1EO@FIHMJCLF@?$AAe?$AAx?$AAt?$AA?9?$AAm?$AAs?$AA?9?$AAw?$AAi?$AAn?$AA?9?$AAn?$AAt?$AAu?$AAs?$AAe?$AAr?$AA?9?$AAw?$AAi?$AAn?$AAd?$AAo?$AAw?$AAs?$AAt?$AAa?$AAt?$AAi?$AAo?$AAn?$AA?9@ 000000018004e5d0     libucrt:winapi_thunks.obj
 0002:00008620       ??_C@_1O@BCCLBEOE@?$AAu?$AAs?$AAe?$AAr?$AA3?$AA2?$AA?$AA@ 000000018004e620     libucrt:winapi_thunks.obj
 0002:00008638       ??_C@_0BA@FHFNEAED@AreFileApisANSI?$AA@ 000000018004e638     libucrt:winapi_thunks.obj
 0002:00008658       ??_C@_0BE@LJANKFHF@EnumSystemLocalesEx?$AA@ 000000018004e658     libucrt:winapi_thunks.obj
 0002:00008698       ??_C@_0BA@HNOPNCHB@GetActiveWindow?$AA@ 000000018004e698     libucrt:winapi_thunks.obj
 0002:000086b8       ??_C@_0BA@EPCJIIPD@GetDateFormatEx?$AA@ 000000018004e6b8     libucrt:winapi_thunks.obj
 0002:000086d0       ??_C@_0BD@HHGDFDBJ@GetLastActivePopup?$AA@ 000000018004e6d0     libucrt:winapi_thunks.obj
 0002:000086f8       ??_C@_0BI@DFKBFLJE@GetProcessWindowStation?$AA@ 000000018004e6f8     libucrt:winapi_thunks.obj
 0002:00008720       ??_C@_0BA@CIJJKCJJ@GetTimeFormatEx?$AA@ 000000018004e720     libucrt:winapi_thunks.obj
 0002:00008738       ??_C@_0BJ@PBCCBIPI@GetUserDefaultLocaleName?$AA@ 000000018004e738     libucrt:winapi_thunks.obj
 0002:00008760       ??_C@_0BK@DEKFELLI@GetUserObjectInformationW?$AA@ 000000018004e760     libucrt:winapi_thunks.obj
 0002:00008790       ??_C@_0BC@CELBKLLA@IsValidLocaleName?$AA@ 000000018004e790     libucrt:winapi_thunks.obj
 0002:000087b8       ??_C@_0BB@CDHDDLLP@LCIDToLocaleName?$AA@ 000000018004e7b8     libucrt:winapi_thunks.obj
 0002:000087d8       ??_C@_0BB@HBDEELFH@LocaleNameToLCID?$AA@ 000000018004e7d8     libucrt:winapi_thunks.obj
 0002:000087f8       ??_C@_0M@CHKKJDAI@MessageBoxA?$AA@ 000000018004e7f8     libucrt:winapi_thunks.obj
 0002:00008810       ??_C@_0M@DLDCCGNP@MessageBoxW?$AA@ 000000018004e810     libucrt:winapi_thunks.obj
 0002:0000881c       ??_C@_02CLFPBFFP@TZ?$AA@   000000018004e81c     libucrt:tzset.obj
 0002:000089f0       ??_C@_03KHJOGHMM@exp?$AA@  000000018004e9f0     libucrt:fpexcept.obj
 0002:000089f4       ??_C@_03JGHBODFD@pow?$AA@  000000018004e9f4     libucrt:fpexcept.obj
 0002:000089f8       ??_C@_03MGHMBJCF@log?$AA@  000000018004e9f8     libucrt:fpexcept.obj
 0002:000089fc       ??_C@_05HGHHAHAP@log10?$AA@ 000000018004e9fc     libucrt:fpexcept.obj
 0002:00008a04       ??_C@_04COOMCNPB@sinh?$AA@ 000000018004ea04     libucrt:fpexcept.obj
 0002:00008a0c       ??_C@_04HPJJNFIM@cosh?$AA@ 000000018004ea0c     libucrt:fpexcept.obj
 0002:00008a14       ??_C@_04FJHINJAO@tanh?$AA@ 000000018004ea14     libucrt:fpexcept.obj
 0002:00008a1c       ??_C@_04FIHNOPOL@asin?$AA@ 000000018004ea1c     libucrt:fpexcept.obj
 0002:00008a24       ??_C@_04PDIFKINK@acos?$AA@ 000000018004ea24     libucrt:fpexcept.obj
 0002:00008a2c       ??_C@_04MLLJIGOK@atan?$AA@ 000000018004ea2c     libucrt:fpexcept.obj
 0002:00008a34       ??_C@_05KNGEOGJB@atan2?$AA@ 000000018004ea34     libucrt:fpexcept.obj
 0002:00008a3c       ??_C@_03BLEJJJBH@sin?$AA@  000000018004ea3c     libucrt:fpexcept.obj
 0002:00008a40       ??_C@_03LALBNOCG@cos?$AA@  000000018004ea40     libucrt:fpexcept.obj
 0002:00008a44       ??_C@_03IIINPABG@tan?$AA@  000000018004ea44     libucrt:fpexcept.obj
 0002:00008a48       ??_C@_04GFPJNGEK@ceil?$AA@ 000000018004ea48     libucrt:fpexcept.obj
 0002:00008a50       ??_C@_05PBJFFIGL@floor?$AA@ 000000018004ea50     libucrt:fpexcept.obj
 0002:00008a58       ??_C@_04ODHECPBC@fabs?$AA@ 000000018004ea58     libucrt:fpexcept.obj
 0002:00008a60       ??_C@_04EHEDPDJG@modf?$AA@ 000000018004ea60     libucrt:fpexcept.obj
 0002:00008a68       ??_C@_05CEJMAHNP@ldexp?$AA@ 000000018004ea68     libucrt:fpexcept.obj
 0002:00008a70       ??_C@_05KBKMEMPO@_cabs?$AA@ 000000018004ea70     libucrt:fpexcept.obj
 0002:00008a78       ??_C@_06MEIMCGCF@_hypot?$AA@ 000000018004ea78     libucrt:fpexcept.obj
 0002:00008a80       ??_C@_04KEPJIHGP@fmod?$AA@ 000000018004ea80     libucrt:fpexcept.obj
 0002:00008a88       ??_C@_05GKKHEGJL@frexp?$AA@ 000000018004ea88     libucrt:fpexcept.obj
 0002:00008a90       ??_C@_03MJLDFKDL@_y0?$AA@  000000018004ea90     libucrt:fpexcept.obj
 0002:00008a94       ??_C@_03NAKIGLHK@_y1?$AA@  000000018004ea94     libucrt:fpexcept.obj
 0002:00008a98       ??_C@_03ONILCKOB@_yn?$AA@  000000018004ea98     libucrt:fpexcept.obj
 0002:00008a9c       ??_C@_05JGDBENOH@_logb?$AA@ 000000018004ea9c     libucrt:fpexcept.obj
 0002:00008aa8       ??_C@_0L@KDOEJCKC@_nextafter?$AA@ 000000018004eaa8     libucrt:fpexcept.obj
 0002:00008ab8       _d_inf                     000000018004eab8     libucrt:util.obj
 0002:00008ac0       _d_max                     000000018004eac0     libucrt:util.obj
 0002:00008ac8       ?ccs@?BL@???$__acrt_stdio_parse_mode@D@@YA?AU__acrt_stdio_stream_mode@@QEBD@Z@4QBDB 000000018004eac8     libucrt:openfile.obj
 0002:00008acc       ?utf8_encoding@?BL@???$__acrt_stdio_parse_mode@D@@YA?AU__acrt_stdio_stream_mode@@QEBD@Z@4QBDB 000000018004eacc     libucrt:openfile.obj
 0002:00008ad8       ?utf16_encoding@?BL@???$__acrt_stdio_parse_mode@D@@YA?AU__acrt_stdio_stream_mode@@QEBD@Z@4QBDB 000000018004ead8     libucrt:openfile.obj
 0002:00008ae0       ?unicode_encoding@?BL@???$__acrt_stdio_parse_mode@D@@YA?AU__acrt_stdio_stream_mode@@QEBD@Z@4QBDB 000000018004eae0     libucrt:openfile.obj
 0002:00008b10       __acrt_rg_language         000000018004eb10     libucrt:get_qualified_locale.obj
 0002:00008f20       __acrt_rg_language_count   000000018004ef20     libucrt:get_qualified_locale.obj
 0002:00008f30       __acrt_rg_country          000000018004ef30     libucrt:get_qualified_locale.obj
 0002:000090a0       __acrt_rg_country_count    000000018004f0a0     libucrt:get_qualified_locale.obj
 0002:000090a8       ??_C@_1BC@LLOKLNP@?$AAa?$AAm?$AAe?$AAr?$AAi?$AAc?$AAa?$AAn?$AA?$AA@ 000000018004f0a8     libucrt:get_qualified_locale.obj
 0002:000090c0       ??_C@_1CC@HEIGCDGG@?$AAa?$AAm?$AAe?$AAr?$AAi?$AAc?$AAa?$AAn?$AA?5?$AAe?$AAn?$AAg?$AAl?$AAi?$AAs?$AAh?$AA?$AA@ 000000018004f0c0     libucrt:get_qualified_locale.obj
 0002:000090e8       ??_C@_1CC@IHCNOMIN@?$AAa?$AAm?$AAe?$AAr?$AAi?$AAc?$AAa?$AAn?$AA?9?$AAe?$AAn?$AAg?$AAl?$AAi?$AAs?$AAh?$AA?$AA@ 000000018004f0e8     libucrt:get_qualified_locale.obj
 0002:00009110       ??_C@_1BG@GKAGPCGG@?$AAa?$AAu?$AAs?$AAt?$AAr?$AAa?$AAl?$AAi?$AAa?$AAn?$AA?$AA@ 000000018004f110     libucrt:get_qualified_locale.obj
 0002:00009128       ??_C@_1BA@GMENCENF@?$AAb?$AAe?$AAl?$AAg?$AAi?$AAa?$AAn?$AA?$AA@ 000000018004f128     libucrt:get_qualified_locale.obj
 0002:00009138       ??_C@_1BC@PJMIIAAN@?$AAc?$AAa?$AAn?$AAa?$AAd?$AAi?$AAa?$AAn?$AA?$AA@ 000000018004f138     libucrt:get_qualified_locale.obj
 0002:00009150       ??_C@_17NOIMNFBF@?$AAc?$AAh?$AAh?$AA?$AA@ 000000018004f150     libucrt:get_qualified_locale.obj
 0002:00009158       ??_C@_17GGDALCHA@?$AAc?$AAh?$AAi?$AA?$AA@ 000000018004f158     libucrt:get_qualified_locale.obj
 0002:00009160       ??_C@_1BA@NPNJKIBL@?$AAc?$AAh?$AAi?$AAn?$AAe?$AAs?$AAe?$AA?$AA@ 000000018004f160     libucrt:get_qualified_locale.obj
 0002:00009170       ??_C@_1CC@DINBAMMJ@?$AAc?$AAh?$AAi?$AAn?$AAe?$AAs?$AAe?$AA?9?$AAh?$AAo?$AAn?$AAg?$AAk?$AAo?$AAn?$AAg?$AA?$AA@ 000000018004f170     libucrt:get_qualified_locale.obj
 0002:00009198       ??_C@_1CG@IOBJPACO@?$AAc?$AAh?$AAi?$AAn?$AAe?$AAs?$AAe?$AA?9?$AAs?$AAi?$AAm?$AAp?$AAl?$AAi?$AAf?$AAi?$AAe?$AAd?$AA?$AA@ 000000018004f198     libucrt:get_qualified_locale.obj
 0002:000091c0       ??_C@_1CE@GAJNDCKG@?$AAc?$AAh?$AAi?$AAn?$AAe?$AAs?$AAe?$AA?9?$AAs?$AAi?$AAn?$AAg?$AAa?$AAp?$AAo?$AAr?$AAe?$AA?$AA@ 000000018004f1c0     libucrt:get_qualified_locale.obj
 0002:000091e8       ??_C@_1CI@PAJPIOOD@?$AAc?$AAh?$AAi?$AAn?$AAe?$AAs?$AAe?$AA?9?$AAt?$AAr?$AAa?$AAd?$AAi?$AAt?$AAi?$AAo?$AAn?$AAa?$AAl?$AA?$AA@ 000000018004f1e8     libucrt:get_qualified_locale.obj
 0002:00009210       ??_C@_1BM@NILJBMMD@?$AAd?$AAu?$AAt?$AAc?$AAh?$AA?9?$AAb?$AAe?$AAl?$AAg?$AAi?$AAa?$AAn?$AA?$AA@ 000000018004f210     libucrt:get_qualified_locale.obj
 0002:00009230       ??_C@_1CC@OOJPJNEJ@?$AAe?$AAn?$AAg?$AAl?$AAi?$AAs?$AAh?$AA?9?$AAa?$AAm?$AAe?$AAr?$AAi?$AAc?$AAa?$AAn?$AA?$AA@ 000000018004f230     libucrt:get_qualified_locale.obj
 0002:00009258       ??_C@_1BI@IOLFEEM@?$AAe?$AAn?$AAg?$AAl?$AAi?$AAs?$AAh?$AA?9?$AAa?$AAu?$AAs?$AA?$AA@ 000000018004f258     libucrt:get_qualified_locale.obj
 0002:00009270       ??_C@_1BO@HFFNLENJ@?$AAe?$AAn?$AAg?$AAl?$AAi?$AAs?$AAh?$AA?9?$AAb?$AAe?$AAl?$AAi?$AAz?$AAe?$AA?$AA@ 000000018004f270     libucrt:get_qualified_locale.obj
 0002:00009290       ??_C@_1BI@HAPKJMPO@?$AAe?$AAn?$AAg?$AAl?$AAi?$AAs?$AAh?$AA?9?$AAc?$AAa?$AAn?$AA?$AA@ 000000018004f290     libucrt:get_qualified_locale.obj
 0002:000092a8       ??_C@_1CE@HLNDMIOJ@?$AAe?$AAn?$AAg?$AAl?$AAi?$AAs?$AAh?$AA?9?$AAc?$AAa?$AAr?$AAi?$AAb?$AAb?$AAe?$AAa?$AAn?$AA?$AA@ 000000018004f2a8     libucrt:get_qualified_locale.obj
 0002:000092d0       ??_C@_1BI@LDHJHHAC@?$AAe?$AAn?$AAg?$AAl?$AAi?$AAs?$AAh?$AA?9?$AAi?$AAr?$AAe?$AA?$AA@ 000000018004f2d0     libucrt:get_qualified_locale.obj
 0002:000092e8       ??_C@_1CA@NJMMCFOC@?$AAe?$AAn?$AAg?$AAl?$AAi?$AAs?$AAh?$AA?9?$AAj?$AAa?$AAm?$AAa?$AAi?$AAc?$AAa?$AA?$AA@ 000000018004f2e8     libucrt:get_qualified_locale.obj
 0002:00009308       ??_C@_1BG@BHJEBBGG@?$AAe?$AAn?$AAg?$AAl?$AAi?$AAs?$AAh?$AA?9?$AAn?$AAz?$AA?$AA@ 000000018004f308     libucrt:get_qualified_locale.obj
 0002:00009320       ??_C@_1CK@FGOEJJCO@?$AAe?$AAn?$AAg?$AAl?$AAi?$AAs?$AAh?$AA?9?$AAs?$AAo?$AAu?$AAt?$AAh?$AA?5?$AAa?$AAf?$AAr?$AAi?$AAc?$AAa?$AA?$AA@ 000000018004f320     libucrt:get_qualified_locale.obj
 0002:00009350       ??_C@_1DE@PDBJPCJ@?$AAe?$AAn?$AAg?$AAl?$AAi?$AAs?$AAh?$AA?9?$AAt?$AAr?$AAi?$AAn?$AAi?$AAd?$AAa?$AAd?$AA?5?$AAy?$AA?5?$AAt?$AAo?$AAb?$AAa?$AAg?$AAo?$AA?$AA@ 000000018004f350     libucrt:get_qualified_locale.obj
 0002:00009388       ??_C@_1BG@JGCANDME@?$AAe?$AAn?$AAg?$AAl?$AAi?$AAs?$AAh?$AA?9?$AAu?$AAk?$AA?$AA@ 000000018004f388     libucrt:get_qualified_locale.obj
 0002:000093a0       ??_C@_1BG@DINKMLE@?$AAe?$AAn?$AAg?$AAl?$AAi?$AAs?$AAh?$AA?9?$AAu?$AAs?$AA?$AA@ 000000018004f3a0     libucrt:get_qualified_locale.obj
 0002:000093b8       ??_C@_1BI@NMFDBHJE@?$AAe?$AAn?$AAg?$AAl?$AAi?$AAs?$AAh?$AA?9?$AAu?$AAs?$AAa?$AA?$AA@ 000000018004f3b8     libucrt:get_qualified_locale.obj
 0002:000093d0       ??_C@_1BO@OIHKJKII@?$AAf?$AAr?$AAe?$AAn?$AAc?$AAh?$AA?9?$AAb?$AAe?$AAl?$AAg?$AAi?$AAa?$AAn?$AA?$AA@ 000000018004f3d0     libucrt:get_qualified_locale.obj
 0002:000093f0       ??_C@_1CA@NKAELJKI@?$AAf?$AAr?$AAe?$AAn?$AAc?$AAh?$AA?9?$AAc?$AAa?$AAn?$AAa?$AAd?$AAi?$AAa?$AAn?$AA?$AA@ 000000018004f3f0     libucrt:get_qualified_locale.obj
 0002:00009410       ??_C@_1CE@MGKCNLGN@?$AAf?$AAr?$AAe?$AAn?$AAc?$AAh?$AA?9?$AAl?$AAu?$AAx?$AAe?$AAm?$AAb?$AAo?$AAu?$AAr?$AAg?$AA?$AA@ 000000018004f410     libucrt:get_qualified_locale.obj
 0002:00009438       ??_C@_1BK@CEGEAILM@?$AAf?$AAr?$AAe?$AAn?$AAc?$AAh?$AA?9?$AAs?$AAw?$AAi?$AAs?$AAs?$AA?$AA@ 000000018004f438     libucrt:get_qualified_locale.obj
 0002:00009458       ??_C@_1CA@PAFKEOCC@?$AAg?$AAe?$AAr?$AAm?$AAa?$AAn?$AA?9?$AAa?$AAu?$AAs?$AAt?$AAr?$AAi?$AAa?$AAn?$AA?$AA@ 000000018004f458     libucrt:get_qualified_locale.obj
 0002:00009478       ??_C@_1CI@HCFHGOFD@?$AAg?$AAe?$AAr?$AAm?$AAa?$AAn?$AA?9?$AAl?$AAi?$AAc?$AAh?$AAt?$AAe?$AAn?$AAs?$AAt?$AAe?$AAi?$AAn?$AA?$AA@ 000000018004f478     libucrt:get_qualified_locale.obj
 0002:000094a0       ??_C@_1CE@FEDDNPDG@?$AAg?$AAe?$AAr?$AAm?$AAa?$AAn?$AA?9?$AAl?$AAu?$AAx?$AAe?$AAm?$AAb?$AAo?$AAu?$AAr?$AAg?$AA?$AA@ 000000018004f4a0     libucrt:get_qualified_locale.obj
 0002:000094c8       ??_C@_1BK@LIMINNMN@?$AAg?$AAe?$AAr?$AAm?$AAa?$AAn?$AA?9?$AAs?$AAw?$AAi?$AAs?$AAs?$AA?$AA@ 000000018004f4c8     libucrt:get_qualified_locale.obj
 0002:000094e8       ??_C@_1BM@LGMDBEPD@?$AAi?$AAr?$AAi?$AAs?$AAh?$AA?9?$AAe?$AAn?$AAg?$AAl?$AAi?$AAs?$AAh?$AA?$AA@ 000000018004f4e8     libucrt:get_qualified_locale.obj
 0002:00009508       ??_C@_1BM@NNCFBAEE@?$AAi?$AAt?$AAa?$AAl?$AAi?$AAa?$AAn?$AA?9?$AAs?$AAw?$AAi?$AAs?$AAs?$AA?$AA@ 000000018004f508     libucrt:get_qualified_locale.obj
 0002:00009528       ??_C@_1BE@FEDJNPIB@?$AAn?$AAo?$AAr?$AAw?$AAe?$AAg?$AAi?$AAa?$AAn?$AA?$AA@ 000000018004f528     libucrt:get_qualified_locale.obj
 0002:00009540       ??_C@_1CC@CILKDEIE@?$AAn?$AAo?$AAr?$AAw?$AAe?$AAg?$AAi?$AAa?$AAn?$AA?9?$AAb?$AAo?$AAk?$AAm?$AAa?$AAl?$AA?$AA@ 000000018004f540     libucrt:get_qualified_locale.obj
 0002:00009568       ??_C@_1CE@DHMMHEPL@?$AAn?$AAo?$AAr?$AAw?$AAe?$AAg?$AAi?$AAa?$AAn?$AA?9?$AAn?$AAy?$AAn?$AAo?$AAr?$AAs?$AAk?$AA?$AA@ 000000018004f568     libucrt:get_qualified_locale.obj
 0002:00009590       ??_C@_1CK@OPNMHECD@?$AAp?$AAo?$AAr?$AAt?$AAu?$AAg?$AAu?$AAe?$AAs?$AAe?$AA?9?$AAb?$AAr?$AAa?$AAz?$AAi?$AAl?$AAi?$AAa?$AAn?$AA?$AA@ 000000018004f590     libucrt:get_qualified_locale.obj
 0002:000095c0       ??_C@_1CE@KEEHCDB@?$AAs?$AAp?$AAa?$AAn?$AAi?$AAs?$AAh?$AA?9?$AAa?$AAr?$AAg?$AAe?$AAn?$AAt?$AAi?$AAn?$AAa?$AA?$AA@ 000000018004f5c0     libucrt:get_qualified_locale.obj
 0002:000095e8       ??_C@_1CA@GIAOLHJD@?$AAs?$AAp?$AAa?$AAn?$AAi?$AAs?$AAh?$AA?9?$AAb?$AAo?$AAl?$AAi?$AAv?$AAi?$AAa?$AA?$AA@ 000000018004f5e8     libucrt:get_qualified_locale.obj
 0002:00009608       ??_C@_1BM@OJNDFNPD@?$AAs?$AAp?$AAa?$AAn?$AAi?$AAs?$AAh?$AA?9?$AAc?$AAh?$AAi?$AAl?$AAe?$AA?$AA@ 000000018004f608     libucrt:get_qualified_locale.obj
 0002:00009628       ??_C@_1CC@OCOLPALL@?$AAs?$AAp?$AAa?$AAn?$AAi?$AAs?$AAh?$AA?9?$AAc?$AAo?$AAl?$AAo?$AAm?$AAb?$AAi?$AAa?$AA?$AA@ 000000018004f628     libucrt:get_qualified_locale.obj
 0002:00009650       ??_C@_1CG@BPOFMKBB@?$AAs?$AAp?$AAa?$AAn?$AAi?$AAs?$AAh?$AA?9?$AAc?$AAo?$AAs?$AAt?$AAa?$AA?5?$AAr?$AAi?$AAc?$AAa?$AA?$AA@ 000000018004f650     libucrt:get_qualified_locale.obj
 0002:00009678       ??_C@_1DG@IGOBAPBB@?$AAs?$AAp?$AAa?$AAn?$AAi?$AAs?$AAh?$AA?9?$AAd?$AAo?$AAm?$AAi?$AAn?$AAi?$AAc?$AAa?$AAn?$AA?5?$AAr?$AAe?$AAp?$AAu?$AAb?$AAl?$AAi?$AAc?$AA?$AA@ 000000018004f678     libucrt:get_qualified_locale.obj
 0002:000096b0       ??_C@_1CA@JHAPGEGI@?$AAs?$AAp?$AAa?$AAn?$AAi?$AAs?$AAh?$AA?9?$AAe?$AAc?$AAu?$AAa?$AAd?$AAo?$AAr?$AA?$AA@ 000000018004f6b0     libucrt:get_qualified_locale.obj
 0002:000096d0       ??_C@_1CI@LAPALJPP@?$AAs?$AAp?$AAa?$AAn?$AAi?$AAs?$AAh?$AA?9?$AAe?$AAl?$AA?5?$AAs?$AAa?$AAl?$AAv?$AAa?$AAd?$AAo?$AAr?$AA?$AA@ 000000018004f6d0     libucrt:get_qualified_locale.obj
 0002:000096f8       ??_C@_1CE@PDGBOFOM@?$AAs?$AAp?$AAa?$AAn?$AAi?$AAs?$AAh?$AA?9?$AAg?$AAu?$AAa?$AAt?$AAe?$AAm?$AAa?$AAl?$AAa?$AA?$AA@ 000000018004f6f8     libucrt:get_qualified_locale.obj
 0002:00009720       ??_C@_1CC@NBEBAODI@?$AAs?$AAp?$AAa?$AAn?$AAi?$AAs?$AAh?$AA?9?$AAh?$AAo?$AAn?$AAd?$AAu?$AAr?$AAa?$AAs?$AA?$AA@ 000000018004f720     libucrt:get_qualified_locale.obj
 0002:00009748       ??_C@_1CA@LLKGHBMF@?$AAs?$AAp?$AAa?$AAn?$AAi?$AAs?$AAh?$AA?9?$AAm?$AAe?$AAx?$AAi?$AAc?$AAa?$AAn?$AA?$AA@ 000000018004f748     libucrt:get_qualified_locale.obj
 0002:00009768       ??_C@_1BO@LKNDOIGD@?$AAs?$AAp?$AAa?$AAn?$AAi?$AAs?$AAh?$AA?9?$AAm?$AAo?$AAd?$AAe?$AAr?$AAn?$AA?$AA@ 000000018004f768     libucrt:get_qualified_locale.obj
 0002:00009788       ??_C@_1CE@NMDMOEEB@?$AAs?$AAp?$AAa?$AAn?$AAi?$AAs?$AAh?$AA?9?$AAn?$AAi?$AAc?$AAa?$AAr?$AAa?$AAg?$AAu?$AAa?$AA?$AA@ 000000018004f788     libucrt:get_qualified_locale.obj
 0002:000097b0       ??_C@_1BO@LLCBEJGB@?$AAs?$AAp?$AAa?$AAn?$AAi?$AAs?$AAh?$AA?9?$AAp?$AAa?$AAn?$AAa?$AAm?$AAa?$AA?$AA@ 000000018004f7b0     libucrt:get_qualified_locale.obj
 0002:000097d0       ??_C@_1CC@FKPGGIHO@?$AAs?$AAp?$AAa?$AAn?$AAi?$AAs?$AAh?$AA?9?$AAp?$AAa?$AAr?$AAa?$AAg?$AAu?$AAa?$AAy?$AA?$AA@ 000000018004f7d0     libucrt:get_qualified_locale.obj
 0002:000097f8       ??_C@_1BK@CDEIHOOP@?$AAs?$AAp?$AAa?$AAn?$AAi?$AAs?$AAh?$AA?9?$AAp?$AAe?$AAr?$AAu?$AA?$AA@ 000000018004f7f8     libucrt:get_qualified_locale.obj
 0002:00009818       ??_C@_1CI@GAHAKKGP@?$AAs?$AAp?$AAa?$AAn?$AAi?$AAs?$AAh?$AA?9?$AAp?$AAu?$AAe?$AAr?$AAt?$AAo?$AA?5?$AAr?$AAi?$AAc?$AAo?$AA?$AA@ 000000018004f818     libucrt:get_qualified_locale.obj
 0002:00009840       ??_C@_1CA@NKJBCAGP@?$AAs?$AAp?$AAa?$AAn?$AAi?$AAs?$AAh?$AA?9?$AAu?$AAr?$AAu?$AAg?$AAu?$AAa?$AAy?$AA?$AA@ 000000018004f840     libucrt:get_qualified_locale.obj
 0002:00009860       ??_C@_1CE@ODILCONM@?$AAs?$AAp?$AAa?$AAn?$AAi?$AAs?$AAh?$AA?9?$AAv?$AAe?$AAn?$AAe?$AAz?$AAu?$AAe?$AAl?$AAa?$AA?$AA@ 000000018004f860     libucrt:get_qualified_locale.obj
 0002:00009888       ??_C@_1CA@OBNMCGFO@?$AAs?$AAw?$AAe?$AAd?$AAi?$AAs?$AAh?$AA?9?$AAf?$AAi?$AAn?$AAl?$AAa?$AAn?$AAd?$AA?$AA@ 000000018004f888     libucrt:get_qualified_locale.obj
 0002:000098a8       ??_C@_1M@PIPDDPPI@?$AAs?$AAw?$AAi?$AAs?$AAs?$AA?$AA@ 000000018004f8a8     libucrt:get_qualified_locale.obj
 0002:000098b4       ??_C@_15GMFIMNFM@?$AAu?$AAs?$AA?$AA@ 000000018004f8b4     libucrt:get_qualified_locale.obj
 0002:000098c0       ??_C@_17HAEBFAGL@?$AAu?$AAs?$AAa?$AA?$AA@ 000000018004f8c0     libucrt:get_qualified_locale.obj
 0002:000098c8       ??_C@_1BA@DPFJEPHB@?$AAa?$AAm?$AAe?$AAr?$AAi?$AAc?$AAa?$AA?$AA@ 000000018004f8c8     libucrt:get_qualified_locale.obj
 0002:000098d8       ??_C@_1BA@ELOGGFK@?$AAb?$AAr?$AAi?$AAt?$AAa?$AAi?$AAn?$AA?$AA@ 000000018004f8d8     libucrt:get_qualified_locale.obj
 0002:000098e8       ??_C@_1M@GHBGIGDA@?$AAc?$AAh?$AAi?$AAn?$AAa?$AA?$AA@ 000000018004f8e8     libucrt:get_qualified_locale.obj
 0002:000098f8       ??_C@_1M@NCHEJOPO@?$AAc?$AAz?$AAe?$AAc?$AAh?$AA?$AA@ 000000018004f8f8     libucrt:get_qualified_locale.obj
 0002:00009908       ??_C@_1BA@BKPAPBLA@?$AAe?$AAn?$AAg?$AAl?$AAa?$AAn?$AAd?$AA?$AA@ 000000018004f908     libucrt:get_qualified_locale.obj
 0002:00009918       ??_C@_1BM@HKBCKIPC@?$AAg?$AAr?$AAe?$AAa?$AAt?$AA?5?$AAb?$AAr?$AAi?$AAt?$AAa?$AAi?$AAn?$AA?$AA@ 000000018004f918     libucrt:get_qualified_locale.obj
 0002:00009938       ??_C@_1BA@PPCHPGJB@?$AAh?$AAo?$AAl?$AAl?$AAa?$AAn?$AAd?$AA?$AA@ 000000018004f938     libucrt:get_qualified_locale.obj
 0002:00009948       ??_C@_1BE@JBMPEGDG@?$AAh?$AAo?$AAn?$AAg?$AA?9?$AAk?$AAo?$AAn?$AAg?$AA?$AA@ 000000018004f948     libucrt:get_qualified_locale.obj
 0002:00009960       ??_C@_1BI@KOELBBPJ@?$AAn?$AAe?$AAw?$AA?9?$AAz?$AAe?$AAa?$AAl?$AAa?$AAn?$AAd?$AA?$AA@ 000000018004f960     libucrt:get_qualified_locale.obj
 0002:00009978       ??_C@_15HIEBHAIO@?$AAn?$AAz?$AA?$AA@ 000000018004f978     libucrt:get_qualified_locale.obj
 0002:00009980       ??_C@_1BC@CHBCPFPI@?$AAp?$AAr?$AA?5?$AAc?$AAh?$AAi?$AAn?$AAa?$AA?$AA@ 000000018004f980     libucrt:get_qualified_locale.obj
 0002:00009998       ??_C@_1BC@JAOIIFKD@?$AAp?$AAr?$AA?9?$AAc?$AAh?$AAi?$AAn?$AAa?$AA?$AA@ 000000018004f998     libucrt:get_qualified_locale.obj
 0002:000099b0       ??_C@_1BI@BEHPPHKC@?$AAp?$AAu?$AAe?$AAr?$AAt?$AAo?$AA?9?$AAr?$AAi?$AAc?$AAo?$AA?$AA@ 000000018004f9b0     libucrt:get_qualified_locale.obj
 0002:000099c8       ??_C@_1O@PAEOFKDI@?$AAs?$AAl?$AAo?$AAv?$AAa?$AAk?$AA?$AA@ 000000018004f9c8     libucrt:get_qualified_locale.obj
 0002:000099d8       ??_C@_1BK@FIHMCKAM@?$AAs?$AAo?$AAu?$AAt?$AAh?$AA?5?$AAa?$AAf?$AAr?$AAi?$AAc?$AAa?$AA?$AA@ 000000018004f9d8     libucrt:get_qualified_locale.obj
 0002:000099f8       ??_C@_1BI@NAEOODKB@?$AAs?$AAo?$AAu?$AAt?$AAh?$AA?5?$AAk?$AAo?$AAr?$AAe?$AAa?$AA?$AA@ 000000018004f9f8     libucrt:get_qualified_locale.obj
 0002:00009a10       ??_C@_1BK@FBDGGIFF@?$AAs?$AAo?$AAu?$AAt?$AAh?$AA?9?$AAa?$AAf?$AAr?$AAi?$AAc?$AAa?$AA?$AA@ 000000018004fa10     libucrt:get_qualified_locale.obj
 0002:00009a30       ??_C@_1BI@GHLEJDPK@?$AAs?$AAo?$AAu?$AAt?$AAh?$AA?9?$AAk?$AAo?$AAr?$AAe?$AAa?$AA?$AA@ 000000018004fa30     libucrt:get_qualified_locale.obj
 0002:00009a48       ??_C@_1CE@PLHLOMJF@?$AAt?$AAr?$AAi?$AAn?$AAi?$AAd?$AAa?$AAd?$AA?5?$AA?$CG?$AA?5?$AAt?$AAo?$AAb?$AAa?$AAg?$AAo?$AA?$AA@ 000000018004fa48     libucrt:get_qualified_locale.obj
 0002:00009a70       ??_C@_1BO@MODIMHHI@?$AAu?$AAn?$AAi?$AAt?$AAe?$AAd?$AA?9?$AAk?$AAi?$AAn?$AAg?$AAd?$AAo?$AAm?$AA?$AA@ 000000018004fa70     libucrt:get_qualified_locale.obj
 0002:00009a90       ??_C@_1BM@FFHJONBJ@?$AAu?$AAn?$AAi?$AAt?$AAe?$AAd?$AA?9?$AAs?$AAt?$AAa?$AAt?$AAe?$AAs?$AA?$AA@ 000000018004fa90     libucrt:get_qualified_locale.obj
 0002:00009ab0       ??_C@_17DNCLJFIF@?$AAA?$AAC?$AAP?$AA?$AA@ 000000018004fab0     libucrt:get_qualified_locale.obj
 0002:00009ab8       ??_C@_17CIKBIHLH@?$AAO?$AAC?$AAP?$AA?$AA@ 000000018004fab8     libucrt:get_qualified_locale.obj
 0002:00009ac0       __rglangidNotDefault       000000018004fac0     libucrt:getqloc_downlevel.obj
 0002:00009ad4       ??_C@_01GBGANLPD@0?$AA@    000000018004fad4     libucrt:cfout.obj
 0002:00009ad8       ??_C@_05DNEBIAHO@1?$CDINF?$AA@ 000000018004fad8     libucrt:cfout.obj
 0002:00009ae0       ??_C@_06IMKFLFPG@1?$CDQNAN?$AA@ 000000018004fae0     libucrt:cfout.obj
 0002:00009ae8       ??_C@_06PGGFOGJG@1?$CDSNAN?$AA@ 000000018004fae8     libucrt:cfout.obj
 0002:00009af0       ??_C@_05PHHOCPM@1?$CDIND?$AA@ 000000018004faf0     libucrt:cfout.obj
 0002:0000b780       _days                      0000000180051780     libucrt:days.obj
 0002:0000b7b8       _lpdays                    00000001800517b8     libucrt:days.obj
 0002:0000b800       ??_C@_1BA@BALFACEM@?$AAC?$AAO?$AAN?$AAO?$AAU?$AAT?$AA$?$AA?$AA@ 0000000180051800     libucrt:initcon.obj
 0002:0000ba60       __log10_256_lead           0000000180051a60     libucrt:log10_256_lead_tail_table.obj
 0002:0000c270       __log10_256_tail           0000000180052270     libucrt:log10_256_lead_tail_table.obj
 0002:0000ca80       __log_F_inv_qword          0000000180052a80     libucrt:log_f_inv_qword_table.obj
 0002:0000d290       ??_C@_1BK@DBDEIDLH@?$AAK?$AAE?$AAR?$AAN?$AAE?$AAL?$AA3?$AA2?$AA?4?$AAD?$AAL?$AAL?$AA?$AA@ 0000000180053290     DelayImp:delayhlp.obj
 0002:0000d2b0       _load_config_used          00000001800532b0     LIBCMT:loadcfg.obj
 0002:0000d344       ??_C@_03FJEPELFP@tag?$AA@  0000000180053344     index.obj
 0002:0000d348       ??_C@_04EONOHKEP@load?$AA@ 0000000180053348     index.obj
 0002:0000d350       ??_C@_03OOEBGOEH@cut?$AA@  0000000180053350     index.obj
 0002:0000d354       ??_C@_06CEFNIFDD@cutAll?$AA@ 0000000180053354     index.obj
 0002:0000d35c       ??_C@_06OMEFPDIN@cutHMM?$AA@ 000000018005335c     index.obj
 0002:0000d368       ??_C@_0N@IHHOLIPI@cutForSearch?$AA@ 0000000180053368     index.obj
 0002:0000d378       ??_C@_08GACIHCNA@cutSmall?$AA@ 0000000180053378     index.obj
 0002:0000d388       ??_C@_07EMKILFJA@extract?$AA@ 0000000180053388     index.obj
 0002:0000d390       ??_C@_0L@HFDMOLGE@insertWord?$AA@ 0000000180053390     index.obj
 0002:0000d3a0       ??_C@_0BB@MDGEJIOF@?4?4?2lib?2index?4cpp?$AA@ 00000001800533a0     index.obj
 0002:0000d3b8       ??_C@_09NLKOFLKF@nodejieba?$AA@ 00000001800533b8     index.obj
 0002:0000d3c8       ??_C@_0BC@BDKFLDHL@unknown?5exception?$AA@ 00000001800533c8     nodejieba.obj
 0002:0000d3e0       ??_C@_0BA@ELKIONDK@bad?5locale?5name?$AA@ 00000001800533e0     nodejieba.obj
 0002:0000d3f0       ??_C@_05LAPONLG@false?$AA@ 00000001800533f0     nodejieba.obj
 0002:0000d3f8       ??_C@_04LOAJBDKD@true?$AA@ 00000001800533f8     nodejieba.obj
 0002:0000d3fd       ??_C@_00CNPNBAHC@?$AA@     00000001800533fd     nodejieba.obj
 0002:0000d400       ??_C@_02LMMGGCAJ@?3?5?$AA@ 0000000180053400     nodejieba.obj
 0002:0000d408       ??_C@_08LLGCOLLL@iostream?$AA@ 0000000180053408     nodejieba.obj
 0002:0000d418       ??_C@_0BG@PADBLCHM@iostream?5stream?5error?$AA@ 0000000180053418     nodejieba.obj
 0002:0000d430       ??_C@_0BF@PHHKMMFD@ios_base?3?3badbit?5set?$AA@ 0000000180053430     nodejieba.obj
 0002:0000d448       ??_C@_0BG@FMKFHCIL@ios_base?3?3failbit?5set?$AA@ 0000000180053448     nodejieba.obj
 0002:0000d460       ??_C@_0BF@OOHOMBOF@ios_base?3?3eofbit?5set?$AA@ 0000000180053460     nodejieba.obj
 0002:0000d478       ??_C@_0BA@JFNIOLAK@string?5too?5long?$AA@ 0000000180053478     nodejieba.obj
 0002:0000d490       ??_C@_1IK@JKEIONHO@?$AAd?$AA?3?$AA?2?$AAo?$AAn?$AAc?$AAe?$AAf?$AAa?$AAn?$AAc?$AAy?$AA?2?$AAs?$AAm?$AAa?$AAl?$AAl?$AAt?$AAo?$AAo?$AAl?$AAs?$AA?2?$AAn?$AAo?$AAd?$AAe?$AA_?$AAm?$AAo?$AAd@ 0000000180053490     nodejieba.obj
 0002:0000d520       ??_C@_1FK@CBGIJHDF@?$AAv?$AAa?$AAl?$AAu?$AAe?$AA?4?$AAs?$AAi?$AAz?$AAe?$AA?$CI?$AA?$CJ?$AA?5?$AA?$DM?$AA?$DN?$AA?5?$AAI?$AAN?$AAT?$AA_?$AAM?$AAA?$AAX?$AA?5?$AA?$CG?$AA?$CG?$AA?5?$AA?$CC?$AAs?$AAt?$AAr?$AAi@ 0000000180053520     nodejieba.obj
 0002:0000d57c       ??_C@_04EHIOMBPF@word?$AA@ 000000018005357c     nodejieba.obj
 0002:0000d584       ??_C@_06CMCBKMCB@weight?$AA@ 0000000180053584     nodejieba.obj
 0002:0000d58c       ??_C@_05KOLFGEDA@DEBUG?$AA@ 000000018005358c     nodejieba.obj
 0002:0000d594       ??_C@_04BEADLPGM@INFO?$AA@ 0000000180053594     nodejieba.obj
 0002:0000d59c       ??_C@_04JBIELMDE@WARN?$AA@ 000000018005359c     nodejieba.obj
 0002:0000d5a4       ??_C@_05MBDEGLCK@ERROR?$AA@ 00000001800535a4     nodejieba.obj
 0002:0000d5ac       ??_C@_05JLFELJNP@FATAL?$AA@ 00000001800535ac     nodejieba.obj
 0002:0000d5b8       ??_C@_0BC@LGPAMIPH@?$CFY?9?$CFm?9?$CFd?5?$CFH?3?$CFM?3?$CFS?$AA@ 00000001800535b8     nodejieba.obj
 0002:0000d5d0       ??_C@_1IO@LAHEPHBH@?$AAD?$AA?3?$AA?2?$AAO?$AAn?$AAc?$AAe?$AAF?$AAa?$AAn?$AAc?$AAy?$AA?2?$AAs?$AAm?$AAa?$AAl?$AAl?$AAT?$AAo?$AAo?$AAl?$AAs?$AA?2?$AAn?$AAo?$AAd?$AAe?$AA_?$AAm?$AAo?$AAd@ 00000001800535d0     nodejieba.obj
 0002:0000d660       ??_C@_1HG@HHLCFMPM@?$AAl?$AAe?$AAv?$AAe?$AAl?$AA_?$AA?5?$AA?$DM?$AA?$DN?$AA?5?$AAs?$AAi?$AAz?$AAe?$AAo?$AAf?$AA?$CI?$AAL?$AAO?$AAG?$AA_?$AAL?$AAE?$AAV?$AAE?$AAL?$AA_?$AAA?$AAR?$AAR?$AAA?$AAY@ 0000000180053660     nodejieba.obj
 0002:0000d6d8       ??_C@_01CLKCMJKC@?5?$AA@   00000001800536d8     nodejieba.obj
 0002:0000d6dc       ??_C@_01JLIPDDHJ@?3?$AA@   00000001800536dc     nodejieba.obj
 0002:0000d6e0       ??_C@_1JC@COALJCFI@?$AAd?$AA?3?$AA?2?$AAo?$AAn?$AAc?$AAe?$AAf?$AAa?$AAn?$AAc?$AAy?$AA?2?$AAs?$AAm?$AAa?$AAl?$AAl?$AAt?$AAo?$AAo?$AAl?$AAs?$AA?2?$AAn?$AAo?$AAd?$AAe?$AA_?$AAm?$AAo?$AAd@ 00000001800536e0     nodejieba.obj
 0002:0000d778       ??_C@_1DM@CKOKLGCG@?$AAr?$AAi?$AAg?$AAh?$AAt?$AA?9?$AA?$DO?$AAo?$AAf?$AAf?$AAs?$AAe?$AAt?$AA?5?$AA?$DO?$AA?$DN?$AA?5?$AAl?$AAe?$AAf?$AAt?$AA?9?$AA?$DO?$AAo?$AAf?$AAf?$AAs?$AAe?$AAt?$AA?$AA@ 0000000180053778     nodejieba.obj
 0002:0000d7c0       ??_C@_1IM@JPLEGGNM@?$AAd?$AA?3?$AA?2?$AAo?$AAn?$AAc?$AAe?$AAf?$AAa?$AAn?$AAc?$AAy?$AA?2?$AAs?$AAm?$AAa?$AAl?$AAl?$AAt?$AAo?$AAo?$AAl?$AAs?$AA?2?$AAn?$AAo?$AAd?$AAe?$AA_?$AAm?$AAo?$AAd@ 00000001800537c0     nodejieba.obj
 0002:0000d850       ??_C@_1BM@LEGIAKN@?$AAr?$AAo?$AAo?$AAt?$AA_?$AA?5?$AA?$CB?$AA?$DN?$AA?5?$AAN?$AAU?$AAL?$AAL?$AA?$AA@ 0000000180053850     nodejieba.obj
 0002:0000d870       ??_C@_1BO@GLGLHCIH@?$AAp?$AAt?$AAN?$AAo?$AAd?$AAe?$AA?5?$AA?$CB?$AA?$DN?$AA?5?$AAN?$AAU?$AAL?$AAL?$AA?$AA@ 0000000180053870     nodejieba.obj
 0002:0000d890       ??_C@_1EI@CMHJFEKK@?$AAk?$AAe?$AAy?$AAs?$AA?4?$AAs?$AAi?$AAz?$AAe?$AA?$CI?$AA?$CJ?$AA?5?$AA?$DN?$AA?$DN?$AA?5?$AAv?$AAa?$AAl?$AAu?$AAe?$AAP?$AAo?$AAi?$AAn?$AAt?$AAe?$AAr?$AAs?$AA?4?$AAs?$AAi?$AAz@ 0000000180053890     nodejieba.obj
 0002:0000d8e0       ??_C@_1JE@IBOAJMJL@?$AAd?$AA?3?$AA?2?$AAo?$AAn?$AAc?$AAe?$AAf?$AAa?$AAn?$AAc?$AAy?$AA?2?$AAs?$AAm?$AAa?$AAl?$AAl?$AAt?$AAo?$AAo?$AAl?$AAs?$AA?2?$AAn?$AAo?$AAd?$AAe?$AA_?$AAm?$AAo?$AAd@ 00000001800538e0     nodejieba.obj
 0002:0000d978       ??_C@_1CC@FLHHECFC@?$AAd?$AAi?$AAc?$AAt?$AAU?$AAn?$AAi?$AAt?$AAs?$AA?4?$AAs?$AAi?$AAz?$AAe?$AA?$CI?$AA?$CJ?$AA?$AA@ 0000000180053978     nodejieba.obj
 0002:0000d99c       ??_C@_02GBOHFIOB@?$HM?$DL?$AA@ 000000018005399c     nodejieba.obj
 0002:0000d9a0       ??_C@_07OCDKBNAP@?5failed?$AA@ 00000001800539a0     nodejieba.obj
 0002:0000d9a8       ??_C@_05JFHIMGKF@open?5?$AA@ 00000001800539a8     nodejieba.obj
 0002:0000d9b0       ??_C@_09IDMAOLPI@?$FN?5false?4?5?$AA@ 00000001800539b0     nodejieba.obj
 0002:0000d9c0       ??_C@_0BE@ONLJFDGI@exp?3?5?$FLifs?4is_open?$CI?$CJ?$AA@ 00000001800539c0     nodejieba.obj
 0002:0000d9e0       ??_C@_0EK@IKHDODCD@d?3?2oncefancy?2smalltools?2node_mod@ 00000001800539e0     nodejieba.obj
 0002:0000da30       ??_C@_1CA@KCLNMCLO@?$AAf?$AAr?$AAe?$AAq?$AA_?$AAs?$AAu?$AAm?$AA_?$AA?5?$AA?$DO?$AA?5?$AA0?$AA?4?$AA0?$AA?$AA@ 0000000180053a30     nodejieba.obj
 0002:0000da50       ??_C@_08JLFKCOKA@?5failed?4?$AA@ 0000000180053a50     nodejieba.obj
 0002:0000da60       ??_C@_07BEFKFPJG@Decode?5?$AA@ 0000000180053a60     nodejieba.obj
 0002:0000da68       ??_C@_0BM@IANMBCPE@split?5result?5illegal?0?5line?3?$AA@ 0000000180053a68     nodejieba.obj
 0002:0000da88       ??_C@_0CE@BICEOEBJ@exp?3?5?$FLbuf?4size?$CI?$CJ?5?$DN?$DN?5DICT_COLUMN_@ 0000000180053a88     nodejieba.obj
 0002:0000dab0       ??_C@_0CC@KJOCALGI@exp?3?5?$FL?$CBstatic_node_infos_?4empty?$CI@ 0000000180053ab0     nodejieba.obj
 0002:0000dad8       ??_C@_1BE@LKLJBJHJ@?$AAs?$AAu?$AAm?$AA?5?$AA?$DO?$AA?5?$AA0?$AA?4?$AA0?$AA?$AA@ 0000000180053ad8     nodejieba.obj
 0002:0000daf0       ??_C@_1CO@LEEMAAHG@?$AAn?$AAo?$AAd?$AAe?$AA_?$AAi?$AAn?$AAf?$AAo?$AA?4?$AAw?$AAe?$AAi?$AAg?$AAh?$AAt?$AA?5?$AA?$DO?$AA?5?$AA0?$AA?4?$AA0?$AA?$AA@ 0000000180053af0     nodejieba.obj
 0002:0000db20       ??_C@_0BA@DNJAMLL@decode?5failed?4?5?$AA@ 0000000180053b20     nodejieba.obj
 0002:0000db30       ??_C@_0EL@BJNKCINA@d?3?2oncefancy?2smalltools?2node_mod@ 0000000180053b30     nodejieba.obj
 0002:0000db80       ??_C@_09KOPHGJDG@?5?7?6?o?$LM?$IM?c?$IA?$IC?$AA@ 0000000180053b80     nodejieba.obj
 0002:0000db90       ??_C@_0CK@IPOPEFIE@exp?3?5?$FLResetSeparators?$CISPECIAL_SE@ 0000000180053b90     nodejieba.obj
 0002:0000dbc0       ??_C@_0EN@CJOBMJFE@d?3?2oncefancy?2smalltools?2node_mod@ 0000000180053bc0     nodejieba.obj
 0002:0000dc10       ??_C@_07ONCMDNMA@decode?5?$AA@ 0000000180053c10     nodejieba.obj
 0002:0000dc18       ??_C@_0BA@FLFCHLDM@?5already?5exists?$AA@ 0000000180053c18     nodejieba.obj
 0002:0000dc30       ??_C@_1JK@JKOOHJGM@?$AAd?$AA?3?$AA?2?$AAo?$AAn?$AAc?$AAe?$AAf?$AAa?$AAn?$AAc?$AAy?$AA?2?$AAs?$AAm?$AAa?$AAl?$AAl?$AAt?$AAo?$AAo?$AAl?$AAs?$AA?2?$AAn?$AAo?$AAd?$AAe?$AA_?$AAm?$AAo?$AAd@ 0000000180053c30     nodejieba.obj
 0002:0000dcd0       ??_C@_1BE@KEHDKEPL@?$AAd?$AAi?$AAc?$AAt?$AAT?$AAr?$AAi?$AAe?$AA_?$AA?$AA@ 0000000180053cd0     nodejieba.obj
 0002:0000dce8       ??_C@_1DC@FBABHNBN@?$AAn?$AAe?$AAx?$AAt?$AAo?$AAf?$AAf?$AAs?$AAe?$AAt?$AA?5?$AA?$DM?$AA?5?$AAd?$AAa?$AAg?$AAs?$AA?4?$AAs?$AAi?$AAz?$AAe?$AA?$CI?$AA?$CJ?$AA?$AA@ 0000000180053ce8     nodejieba.obj
 0002:0000dd1c       ??_C@_01GOHFPIOK@m?$AA@    0000000180053d1c     nodejieba.obj
 0002:0000dd20       ??_C@_03LKLGDMJI@eng?$AA@  0000000180053d20     nodejieba.obj
 0002:0000dd24       ??_C@_01FJMABOPO@x?$AA@    0000000180053d24     nodejieba.obj
 0002:0000dd30       ??_C@_1JG@OLHBBCLI@?$AAd?$AA?3?$AA?2?$AAo?$AAn?$AAc?$AAe?$AAf?$AAa?$AAn?$AAc?$AAy?$AA?2?$AAs?$AAm?$AAa?$AAl?$AAl?$AAt?$AAo?$AAo?$AAl?$AAs?$AA?2?$AAn?$AAo?$AAd?$AAe?$AA_?$AAm?$AAo?$AAd@ 0000000180053d30     nodejieba.obj
 0002:0000ddc8       ??_C@_1BK@JEMNKLBK@?$AAd?$AAi?$AAc?$AAt?$AA?5?$AA?$CB?$AA?$DN?$AA?5?$AAN?$AAU?$AAL?$AAL?$AA?$AA@ 0000000180053dc8     nodejieba.obj
 0002:0000dde8       ??_C@_0P@NMEFKJNE@Decode?5failed?4?$AA@ 0000000180053de8     nodejieba.obj
 0002:0000de00       ??_C@_0EL@JMPIDDID@d?3?2oncefancy?2smalltools?2node_mod@ 0000000180053e00     nodejieba.obj
 0002:0000de50       ??_C@_1JG@CLBLDOLG@?$AAd?$AA?3?$AA?2?$AAo?$AAn?$AAc?$AAe?$AAf?$AAa?$AAn?$AAc?$AAy?$AA?2?$AAs?$AAm?$AAa?$AAl?$AAl?$AAt?$AAo?$AAo?$AAl?$AAs?$AA?2?$AAn?$AAo?$AAd?$AAe?$AA_?$AAm?$AAo?$AAd@ 0000000180053e50     nodejieba.obj
 0002:0000dee8       ??_C@_1CI@DMPMCEPO@?$AA?$CB?$AAr?$AAi?$AAt?$AA?9?$AA?$DO?$AAn?$AAe?$AAx?$AAt?$AAs?$AA?4?$AAe?$AAm?$AAp?$AAt?$AAy?$AA?$CI?$AA?$CJ?$AA?$AA@ 0000000180053ee8     nodejieba.obj
 0002:0000df10       ??_C@_1CI@MPLFAFKH@?$AAp?$AA?9?$AA?$DO?$AAw?$AAo?$AAr?$AAd?$AA?4?$AAs?$AAi?$AAz?$AAe?$AA?$CI?$AA?$CJ?$AA?5?$AA?$DO?$AA?$DN?$AA?5?$AA1?$AA?$AA@ 0000000180053f10     nodejieba.obj
 0002:0000df38       ??_C@_0BG@MGGJGIGH@exp?3?5?$FLifile?4is_open?$CI?$CJ?$AA@ 0000000180053f38     nodejieba.obj
 0002:0000df50       ??_C@_0EK@LNONOKGD@d?3?2oncefancy?2smalltools?2node_mod@ 0000000180053f50     nodejieba.obj
 0002:0000dfa0       ??_C@_0BL@LBKMIEFA@exp?3?5?$FLGetLine?$CIifile?0?5line?$CJ?$AA@ 0000000180053fa0     nodejieba.obj
 0002:0000dfc0       ??_C@_0BP@NHLHLPOB@exp?3?5?$FLtmp?4size?$CI?$CJ?5?$DN?$DN?5STATUS_SUM?$AA@ 0000000180053fc0     nodejieba.obj
 0002:0000dfe0       ??_C@_0CE@NGMDNELO@exp?3?5?$FLLoadEmitProb?$CIline?0?5emitPro@ 0000000180053fe0     nodejieba.obj
 0002:0000e008       ??_C@_0CE@NDIMMCDL@exp?3?5?$FLLoadEmitProb?$CIline?0?5emitPro@ 0000000180054008     nodejieba.obj
 0002:0000e030       ??_C@_0CE@NNJPJDID@exp?3?5?$FLLoadEmitProb?$CIline?0?5emitPro@ 0000000180054030     nodejieba.obj
 0002:0000e058       ??_C@_0CE@MLCHBNPJ@exp?3?5?$FLLoadEmitProb?$CIline?0?5emitPro@ 0000000180054058     nodejieba.obj
 0002:0000e07c       ??_C@_01IPJKGB@?$CD?$AA@   000000018005407c     nodejieba.obj
 0002:0000e080       ??_C@_01IHBHIGKO@?0?$AA@   0000000180054080     nodejieba.obj
 0002:0000e088       ??_C@_0BC@PDPNLGKN@emitProb?5illegal?4?$AA@ 0000000180054088     nodejieba.obj
 0002:0000e0a0       ??_C@_0BC@BGGOKDAF@TransCode?5failed?4?$AA@ 00000001800540a0     nodejieba.obj
 0002:0000e0c0       ??_C@_1JI@EKOMLOJJ@?$AAd?$AA?3?$AA?2?$AAo?$AAn?$AAc?$AAe?$AAf?$AAa?$AAn?$AAc?$AAy?$AA?2?$AAs?$AAm?$AAa?$AAl?$AAl?$AAt?$AAo?$AAo?$AAl?$AAs?$AA?2?$AAn?$AAo?$AAd?$AAe?$AA_?$AAm?$AAo?$AAd@ 00000001800540c0     nodejieba.obj
 0002:0000e158       ??_C@_1BK@OKFGHNFI@?$AAe?$AAn?$AAd?$AA?5?$AA?$DO?$AA?$DN?$AA?5?$AAb?$AAe?$AAg?$AAi?$AAn?$AA?$AA@ 0000000180054158     nodejieba.obj
 0002:0000e178       ??_C@_1BG@CGKCHLJE@?$AAj?$AA?5?$AA?9?$AA?5?$AA1?$AA?5?$AA?$DO?$AA?$DN?$AA?5?$AAi?$AA?$AA@ 0000000180054178     nodejieba.obj
 0002:0000e190       ??_C@_0O@LEGMDGCE@words?5illegal?$AA@ 0000000180054190     nodejieba.obj
 0002:0000e1a0       ??_C@_0FC@MFECLPMA@D?3?2OnceFancy?2smallTools?2node_mod@ 00000001800541a0     nodejieba.obj
 0002:0000e1f8       ??_C@_0BB@LHLNCINB@?5empty?4?5skipped?4?$AA@ 00000001800541f8     nodejieba.obj
 0002:0000e210       ??_C@_08BGIKOBLN@lineno?3?5?$AA@ 0000000180054210     nodejieba.obj
 0002:0000e220       ??_C@_0L@FINPFKDP@?0?5lineno?3?5?$AA@ 0000000180054220     nodejieba.obj
 0002:0000e22c       ??_C@_06JHPMNCHL@line?3?5?$AA@ 000000018005422c     nodejieba.obj
 0002:0000e240       ??_C@_1KE@CKJDKHHH@?$AAD?$AA?3?$AA?2?$AAO?$AAn?$AAc?$AAe?$AAF?$AAa?$AAn?$AAc?$AAy?$AA?2?$AAs?$AAm?$AAa?$AAl?$AAl?$AAT?$AAo?$AAo?$AAl?$AAs?$AA?2?$AAn?$AAo?$AAd?$AAe?$AA_?$AAm?$AAo?$AAd@ 0000000180054240     nodejieba.obj
 0002:0000e2e8       ??_C@_1O@DLAJNNMG@?$AAl?$AAi?$AAn?$AAe?$AAn?$AAo?$AA?$AA@ 00000001800542e8     nodejieba.obj
 0002:0000e2f8       ??_C@_1CE@GDKMKFPD@?$AAi?$AAd?$AAf?$AAA?$AAv?$AAe?$AAr?$AAa?$AAg?$AAe?$AA_?$AA?5?$AA?$DO?$AA?5?$AA0?$AA?4?$AA0?$AA?$AA@ 00000001800542f8     nodejieba.obj
 0002:0000e320       ??_C@_1CE@EAGFJHKK@?$AAs?$AAt?$AAo?$AAp?$AAW?$AAo?$AAr?$AAd?$AAs?$AA_?$AA?4?$AAs?$AAi?$AAz?$AAe?$AA?$CI?$AA?$CJ?$AA?$AA@ 0000000180054320     nodejieba.obj
 0002:0000e348       ??_C@_1CK@LBOPDODK@?$AA?4?$AA?4?$AA?2?$AAl?$AAi?$AAb?$AA?2?$AAn?$AAo?$AAd?$AAe?$AAj?$AAi?$AAe?$AAb?$AAa?$AA?4?$AAc?$AAp?$AAp?$AA?$AA@ 0000000180054348     nodejieba.obj
 0002:0000e378       ??_C@_1CI@PJGFNNNJ@?$AAg?$AAl?$AAo?$AAb?$AAa?$AAl?$AA_?$AAj?$AAi?$AAe?$AAb?$AAa?$AA_?$AAh?$AAa?$AAn?$AAd?$AAl?$AAe?$AA?$AA@ 0000000180054378     nodejieba.obj
 0002:0000e3a0       ??_C@_1JG@DCKFEAPN@?$AAD?$AA?3?$AA?2?$AAO?$AAn?$AAc?$AAe?$AAF?$AAa?$AAn?$AAc?$AAy?$AA?2?$AAs?$AAm?$AAa?$AAl?$AAl?$AAT?$AAo?$AAo?$AAl?$AAs?$AA?2?$AAn?$AAo?$AAd?$AAe?$AA_?$AAm?$AAo?$AAd@ 00000001800543a0     nodejieba.obj
 0002:0000e438       ??_C@_1BE@FDMNDHIH@?$AAc?$AAa?$AAp?$AAa?$AAc?$AAi?$AAt?$AAy?$AA_?$AA?$AA@ 0000000180054438     nodejieba.obj
 0002:0000e450       ??_C@_19EIHMLFPC@?$AAn?$AAe?$AAx?$AAt?$AA?$AA@ 0000000180054450     nodejieba.obj
 0002:0000e460       ??_C@_0BD@OLBABOEK@vector?$DMT?$DO?5too?5long?$AA@ 0000000180054460     nodejieba.obj
 0002:0000e478       ??_C@_19BHKCDOEF@?$AAp?$AAt?$AAr?$AA_?$AA?$AA@ 0000000180054478     nodejieba.obj
 0002:0000e484       ??_C@_02BBAHNLBA@?$CFp?$AA@ 0000000180054484     nodejieba.obj
 0002:0000e488       ??_C@_0BC@KBDMBKEH@deque?$DMT?$DO?5too?5long?$AA@ 0000000180054488     nodejieba.obj
 0002:0000e49c       ??_C@_02MDKMJEGG@eE?$AA@   000000018005449c     nodejieba.obj
 0002:0000e4a0       ??_C@_02OOPEBDOJ@pP?$AA@   00000001800544a0     nodejieba.obj
 0002:0000e4a8       ??_C@_0BI@CFPLBAOH@invalid?5string?5position?$AA@ 00000001800544a8     nodejieba.obj
 0002:0000e4c0       ??_C@_0BE@JONHPENG@map?1set?$DMT?$DO?5too?5long?$AA@ 00000001800544c0     nodejieba.obj
 0002:0000e4d8       ??_C@_0BB@MOGOBHAF@list?$DMT?$DO?5too?5long?$AA@ 00000001800544d8     nodejieba.obj
 0002:0000e4f0       ??_7?$basic_ostringstream@DU?$char_traits@D@std@@V?$allocator@D@2@@std@@6B@ 00000001800544f0     nodejieba.obj
 0002:0000e558       ??_7FullSegment@cppjieba@@6B@ 0000000180054558     nodejieba.obj
 0002:0000e568       ??_7QuerySegment@cppjieba@@6B@ 0000000180054568     nodejieba.obj
 0002:0000e578       ??_7MixSegment@cppjieba@@6B@ 0000000180054578     nodejieba.obj
 0002:0000e598       ??_7exception@stdext@@6B@  0000000180054598     nodejieba.obj
 0002:0000e5b0       ??_7?$basic_stringbuf@DU?$char_traits@D@std@@V?$allocator@D@2@@std@@6B@ 00000001800545b0     nodejieba.obj
 0002:0000e628       ??_8?$basic_ifstream@DU?$char_traits@D@std@@@std@@7B@ 0000000180054628     nodejieba.obj
 0002:0000e630       ??_7?$basic_istream@DU?$char_traits@D@std@@@std@@6B@ 0000000180054630     nodejieba.obj
 0002:0000e638       ??_7HMMSegment@cppjieba@@6B@ 0000000180054638     nodejieba.obj
 0002:0000e648       ??_8?$basic_ostream@DU?$char_traits@D@std@@@std@@7B@ 0000000180054648     nodejieba.obj
 0002:0000e650       ??_8?$basic_ostringstream@DU?$char_traits@D@std@@V?$allocator@D@2@@std@@7B@ 0000000180054650     nodejieba.obj
 0002:0000e658       ??_7MPSegment@cppjieba@@6B@ 0000000180054658     nodejieba.obj
 0002:0000e678       ??_7?$basic_ifstream@DU?$char_traits@D@std@@@std@@6B@ 0000000180054678     nodejieba.obj
 0002:0000e680       ??_7SegmentBase@cppjieba@@6B@ 0000000180054680     nodejieba.obj
 0002:0000e690       ??_C@_08HCOMDCCD@iojs?4exe?$AA@ 0000000180054690     win_delay_load_hook.obj
 0002:0000e6a0       ??_C@_08JDDNMFDB@node?4exe?$AA@ 00000001800546a0     win_delay_load_hook.obj
 0002:0000e700       __real@3ff0000000000000    0000000180054700     nodejieba.obj
 0002:0000e708       __real@4202a05f20000000    0000000180054708     nodejieba.obj
 0002:0000e710       __real@43f0000000000000    0000000180054710     nodejieba.obj
 0002:0000e718       __real@5f800000            0000000180054718     nodejieba.obj
 0002:0000e720       __real@d4ccb63b5c484765    0000000180054720     nodejieba.obj
 0002:0000e730       __xmm@7fffffffffffffff7fffffffffffffff 0000000180054730     nodejieba.obj
 0002:0000fa80       __log_256_lead             0000000180055a80     libucrt:log_256_lead_tail_table.obj
 0002:00010290       __log_256_tail             0000000180056290     libucrt:log_256_lead_tail_table.obj
 0002:00010af8       _tls_used                  0000000180056af8     LIBCMT:tlssup.obj
 0002:00010b20       ??_R4_Facet_base@std@@6B@  0000000180056b20     libcpmt:locale0.obj
 0002:00010b48       ??_R3_Facet_base@std@@8    0000000180056b48     libcpmt:locale0.obj
 0002:00010b60       ??_R2_Facet_base@std@@8    0000000180056b60     libcpmt:locale0.obj
 0002:00010b70       ??_R1A@?0A@EA@_Facet_base@std@@8 0000000180056b70     libcpmt:locale0.obj
 0002:00010b98       ??_R4_Locimp@locale@std@@6B@ 0000000180056b98     libcpmt:locale0.obj
 0002:00010bc0       ??_R3_Locimp@locale@std@@8 0000000180056bc0     libcpmt:locale0.obj
 0002:00010bd8       ??_R2_Locimp@locale@std@@8 0000000180056bd8     libcpmt:locale0.obj
 0002:00010c00       ??_R1A@?0A@EA@_Locimp@locale@std@@8 0000000180056c00     libcpmt:locale0.obj
 0002:00010c28       ??_R1A@?0A@EA@facet@locale@std@@8 0000000180056c28     libcpmt:locale0.obj
 0002:00010c50       ??_R3facet@locale@std@@8   0000000180056c50     libcpmt:locale0.obj
 0002:00010c68       ??_R2facet@locale@std@@8   0000000180056c68     libcpmt:locale0.obj
 0002:00010c88       ??_R17?0A@EA@_Crt_new_delete@std@@8 0000000180056c88     libcpmt:locale0.obj
 0002:00010cb0       ??_R3_Crt_new_delete@std@@8 0000000180056cb0     libcpmt:locale0.obj
 0002:00010cc8       ??_R2_Crt_new_delete@std@@8 0000000180056cc8     libcpmt:locale0.obj
 0002:00010cd8       ??_R1A@?0A@EA@_Crt_new_delete@std@@8 0000000180056cd8     libcpmt:locale0.obj
 0002:00010d00       ??_R4exception@std@@6B@    0000000180056d00     libcpmt:xthrow.obj
 0002:00010d28       ??_R3exception@std@@8      0000000180056d28     libcpmt:xthrow.obj
 0002:00010d40       ??_R2exception@std@@8      0000000180056d40     libcpmt:xthrow.obj
 0002:00010d50       ??_R1A@?0A@EA@exception@std@@8 0000000180056d50     libcpmt:xthrow.obj
 0002:00010d78       ??_R4bad_alloc@std@@6B@    0000000180056d78     libcpmt:xthrow.obj
 0002:00010da0       ??_R3bad_alloc@std@@8      0000000180056da0     libcpmt:xthrow.obj
 0002:00010db8       ??_R2bad_alloc@std@@8      0000000180056db8     libcpmt:xthrow.obj
 0002:00010dd0       ??_R1A@?0A@EA@bad_alloc@std@@8 0000000180056dd0     libcpmt:xthrow.obj
 0002:00010df8       ??_R4logic_error@std@@6B@  0000000180056df8     libcpmt:xthrow.obj
 0002:00010e20       ??_R3logic_error@std@@8    0000000180056e20     libcpmt:xthrow.obj
 0002:00010e38       ??_R2logic_error@std@@8    0000000180056e38     libcpmt:xthrow.obj
 0002:00010e50       ??_R1A@?0A@EA@logic_error@std@@8 0000000180056e50     libcpmt:xthrow.obj
 0002:00010e78       ??_R4length_error@std@@6B@ 0000000180056e78     libcpmt:xthrow.obj
 0002:00010ea0       ??_R3length_error@std@@8   0000000180056ea0     libcpmt:xthrow.obj
 0002:00010eb8       ??_R2length_error@std@@8   0000000180056eb8     libcpmt:xthrow.obj
 0002:00010ed8       ??_R1A@?0A@EA@length_error@std@@8 0000000180056ed8     libcpmt:xthrow.obj
 0002:00010f00       ??_R4out_of_range@std@@6B@ 0000000180056f00     libcpmt:xthrow.obj
 0002:00010f28       ??_R3out_of_range@std@@8   0000000180056f28     libcpmt:xthrow.obj
 0002:00010f40       ??_R2out_of_range@std@@8   0000000180056f40     libcpmt:xthrow.obj
 0002:00010f60       ??_R1A@?0A@EA@out_of_range@std@@8 0000000180056f60     libcpmt:xthrow.obj
 0002:00010f88       ??_R4runtime_error@std@@6B@ 0000000180056f88     libcpmt:xthrow.obj
 0002:00010fb0       ??_R3runtime_error@std@@8  0000000180056fb0     libcpmt:xthrow.obj
 0002:00010fc8       ??_R2runtime_error@std@@8  0000000180056fc8     libcpmt:xthrow.obj
 0002:00010fe0       ??_R1A@?0A@EA@runtime_error@std@@8 0000000180056fe0     libcpmt:xthrow.obj
 0002:00011008       ??_R4ios_base@std@@6B@     0000000180057008     libcpmt:cerr.obj
 0002:00011030       ??_R3ios_base@std@@8       0000000180057030     libcpmt:cerr.obj
 0002:00011048       ??_R2ios_base@std@@8       0000000180057048     libcpmt:cerr.obj
 0002:00011060       ??_R1A@?0A@EA@ios_base@std@@8 0000000180057060     libcpmt:cerr.obj
 0002:00011088       ??_R17?0A@EA@?$_Iosb@H@std@@8 0000000180057088     libcpmt:cerr.obj
 0002:000110b0       ??_R3?$_Iosb@H@std@@8      00000001800570b0     libcpmt:cerr.obj
 0002:000110c8       ??_R2?$_Iosb@H@std@@8      00000001800570c8     libcpmt:cerr.obj
 0002:000110d8       ??_R1A@?0A@EA@?$_Iosb@H@std@@8 00000001800570d8     libcpmt:cerr.obj
 0002:00011100       ??_R4?$basic_ios@DU?$char_traits@D@std@@@std@@6B@ 0000000180057100     libcpmt:cerr.obj
 0002:00011128       ??_R3?$basic_ios@DU?$char_traits@D@std@@@std@@8 0000000180057128     libcpmt:cerr.obj
 0002:00011140       ??_R2?$basic_ios@DU?$char_traits@D@std@@@std@@8 0000000180057140     libcpmt:cerr.obj
 0002:00011160       ??_R1A@?0A@EA@?$basic_ios@DU?$char_traits@D@std@@@std@@8 0000000180057160     libcpmt:cerr.obj
 0002:00011188       ??_R4?$basic_streambuf@DU?$char_traits@D@std@@@std@@6B@ 0000000180057188     libcpmt:cerr.obj
 0002:000111b0       ??_R3?$basic_streambuf@DU?$char_traits@D@std@@@std@@8 00000001800571b0     libcpmt:cerr.obj
 0002:000111c8       ??_R2?$basic_streambuf@DU?$char_traits@D@std@@@std@@8 00000001800571c8     libcpmt:cerr.obj
 0002:000111d8       ??_R1A@?0A@EA@?$basic_streambuf@DU?$char_traits@D@std@@@std@@8 00000001800571d8     libcpmt:cerr.obj
 0002:00011200       ??_R1A@A@3FA@?$basic_ios@DU?$char_traits@D@std@@@std@@8 0000000180057200     libcpmt:cerr.obj
 0002:00011228       ??_R1A@A@3EA@ios_base@std@@8 0000000180057228     libcpmt:cerr.obj
 0002:00011250       ??_R17A@3EA@?$_Iosb@H@std@@8 0000000180057250     libcpmt:cerr.obj
 0002:00011278       ??_R4?$basic_ostream@DU?$char_traits@D@std@@@std@@6B@ 0000000180057278     libcpmt:cerr.obj
 0002:000112a0       ??_R3?$basic_ostream@DU?$char_traits@D@std@@@std@@8 00000001800572a0     libcpmt:cerr.obj
 0002:000112b8       ??_R2?$basic_ostream@DU?$char_traits@D@std@@@std@@8 00000001800572b8     libcpmt:cerr.obj
 0002:000112e0       ??_R1A@?0A@EA@?$basic_ostream@DU?$char_traits@D@std@@@std@@8 00000001800572e0     libcpmt:cerr.obj
 0002:00011308       ??_R4?$basic_filebuf@DU?$char_traits@D@std@@@std@@6B@ 0000000180057308     libcpmt:cerr.obj
 0002:00011330       ??_R3?$basic_filebuf@DU?$char_traits@D@std@@@std@@8 0000000180057330     libcpmt:cerr.obj
 0002:00011348       ??_R2?$basic_filebuf@DU?$char_traits@D@std@@@std@@8 0000000180057348     libcpmt:cerr.obj
 0002:00011360       ??_R1A@?0A@EA@?$basic_filebuf@DU?$char_traits@D@std@@@std@@8 0000000180057360     libcpmt:cerr.obj
 0002:00011388       ??_R3codecvt_base@std@@8   0000000180057388     libcpmt:cerr.obj
 0002:000113a0       ??_R2codecvt_base@std@@8   00000001800573a0     libcpmt:cerr.obj
 0002:000113c8       ??_R1A@?0A@EA@codecvt_base@std@@8 00000001800573c8     libcpmt:cerr.obj
 0002:000113f0       ??_R3ctype_base@std@@8     00000001800573f0     libcpmt:cerr.obj
 0002:00011408       ??_R2ctype_base@std@@8     0000000180057408     libcpmt:cerr.obj
 0002:00011430       ??_R1A@?0A@EA@ctype_base@std@@8 0000000180057430     libcpmt:cerr.obj
 0002:00011458       ??_R4?$ctype@D@std@@6B@    0000000180057458     libcpmt:cerr.obj
 0002:00011480       ??_R3?$ctype@D@std@@8      0000000180057480     libcpmt:cerr.obj
 0002:00011498       ??_R2?$ctype@D@std@@8      0000000180057498     libcpmt:cerr.obj
 0002:000114c8       ??_R1A@?0A@EA@?$ctype@D@std@@8 00000001800574c8     libcpmt:cerr.obj
 0002:000114f0       ??_R4error_category@std@@6B@ 00000001800574f0     libcpmt:cerr.obj
 0002:00011518       ??_R3error_category@std@@8 0000000180057518     libcpmt:cerr.obj
 0002:00011530       ??_R2error_category@std@@8 0000000180057530     libcpmt:cerr.obj
 0002:00011540       ??_R1A@?0A@EA@error_category@std@@8 0000000180057540     libcpmt:cerr.obj
 0002:00011568       ??_R4_System_error@std@@6B@ 0000000180057568     libcpmt:cerr.obj
 0002:00011590       ??_R3_System_error@std@@8  0000000180057590     libcpmt:cerr.obj
 0002:000115a8       ??_R2_System_error@std@@8  00000001800575a8     libcpmt:cerr.obj
 0002:000115c8       ??_R1A@?0A@EA@_System_error@std@@8 00000001800575c8     libcpmt:cerr.obj
 0002:000115f0       ??_R4system_error@std@@6B@ 00000001800575f0     libcpmt:cerr.obj
 0002:00011618       ??_R3system_error@std@@8   0000000180057618     libcpmt:cerr.obj
 0002:00011630       ??_R2system_error@std@@8   0000000180057630     libcpmt:cerr.obj
 0002:00011658       ??_R1A@?0A@EA@system_error@std@@8 0000000180057658     libcpmt:cerr.obj
 0002:00011680       ??_R3_Generic_error_category@std@@8 0000000180057680     libcpmt:cerr.obj
 0002:00011698       ??_R2_Generic_error_category@std@@8 0000000180057698     libcpmt:cerr.obj
 0002:000116b0       ??_R1A@?0A@EA@_Generic_error_category@std@@8 00000001800576b0     libcpmt:cerr.obj
 0002:000116d8       ??_R4_Iostream_error_category@std@@6B@ 00000001800576d8     libcpmt:cerr.obj
 0002:00011700       ??_R3_Iostream_error_category@std@@8 0000000180057700     libcpmt:cerr.obj
 0002:00011718       ??_R2_Iostream_error_category@std@@8 0000000180057718     libcpmt:cerr.obj
 0002:00011738       ??_R1A@?0A@EA@_Iostream_error_category@std@@8 0000000180057738     libcpmt:cerr.obj
 0002:00011760       ??_R4failure@ios_base@std@@6B@ 0000000180057760     libcpmt:cerr.obj
 0002:00011788       ??_R3failure@ios_base@std@@8 0000000180057788     libcpmt:cerr.obj
 0002:000117a0       ??_R2failure@ios_base@std@@8 00000001800577a0     libcpmt:cerr.obj
 0002:000117d0       ??_R1A@?0A@EA@failure@ios_base@std@@8 00000001800577d0     libcpmt:cerr.obj
 0002:000117f8       ??_R4?$codecvt@DDU_Mbstatet@@@std@@6B@ 00000001800577f8     libcpmt:cerr.obj
 0002:00011820       ??_R3?$codecvt@DDU_Mbstatet@@@std@@8 0000000180057820     libcpmt:cerr.obj
 0002:00011838       ??_R2?$codecvt@DDU_Mbstatet@@@std@@8 0000000180057838     libcpmt:cerr.obj
 0002:00011868       ??_R1A@?0A@EA@?$codecvt@DDU_Mbstatet@@@std@@8 0000000180057868     libcpmt:cerr.obj
 0002:00011890       ??_R4?$num_put@DV?$ostreambuf_iterator@DU?$char_traits@D@std@@@std@@@std@@6B@ 0000000180057890     libcpmt:locale.obj
 0002:000118b8       ??_R3?$num_put@DV?$ostreambuf_iterator@DU?$char_traits@D@std@@@std@@@std@@8 00000001800578b8     libcpmt:locale.obj
 0002:000118d0       ??_R2?$num_put@DV?$ostreambuf_iterator@DU?$char_traits@D@std@@@std@@@std@@8 00000001800578d0     libcpmt:locale.obj
 0002:000118f8       ??_R1A@?0A@EA@?$num_put@DV?$ostreambuf_iterator@DU?$char_traits@D@std@@@std@@@std@@8 00000001800578f8     libcpmt:locale.obj
 0002:00011920       ??_R4?$numpunct@D@std@@6B@ 0000000180057920     libcpmt:locale.obj
 0002:00011948       ??_R3?$numpunct@D@std@@8   0000000180057948     libcpmt:locale.obj
 0002:00011960       ??_R2?$numpunct@D@std@@8   0000000180057960     libcpmt:locale.obj
 0002:00011988       ??_R1A@?0A@EA@?$numpunct@D@std@@8 0000000180057988     libcpmt:locale.obj
 0002:000119b0       ??_R4type_info@@6B@        00000001800579b0     LIBCMT:std_type_info_static.obj
 0002:000119d8       ??_R3type_info@@8          00000001800579d8     LIBCMT:std_type_info_static.obj
 0002:000119f0       ??_R2type_info@@8          00000001800579f0     LIBCMT:std_type_info_static.obj
 0002:00011a00       ??_R1A@?0A@EA@type_info@@8 0000000180057a00     LIBCMT:std_type_info_static.obj
 0002:00011a28       ??_R4bad_array_new_length@std@@6B@ 0000000180057a28     LIBCMT:throw_bad_alloc.obj
 0002:00011a50       ??_R3bad_array_new_length@std@@8 0000000180057a50     LIBCMT:throw_bad_alloc.obj
 0002:00011a68       ??_R2bad_array_new_length@std@@8 0000000180057a68     LIBCMT:throw_bad_alloc.obj
 0002:00011a88       ??_R1A@?0A@EA@bad_array_new_length@std@@8 0000000180057a88     LIBCMT:throw_bad_alloc.obj
 0002:00011ab0       ??_R4bad_exception@std@@6B@ 0000000180057ab0     libvcruntime:frame.obj
 0002:00011ad8       ??_R3bad_exception@std@@8  0000000180057ad8     libvcruntime:frame.obj
 0002:00011af0       ??_R2bad_exception@std@@8  0000000180057af0     libvcruntime:frame.obj
 0002:00011b08       ??_R1A@?0A@EA@bad_exception@std@@8 0000000180057b08     libvcruntime:frame.obj
 0002:00011b30       ?_TraceLoggingMetadata@?1??_TlgWrite@__vcrt_trace_logging_provider@@YAJPEBU_TlgProvider_t@2@PEFBXPEBU_GUID@@2IPEAU_EVENT_DATA_DESCRIPTOR@@@Z@4U_TraceLoggingMetadata_t@2@B 0000000180057b30     libvcruntime:telemetry.obj
 0002:00011be3       ?_TraceLoggingMetadataEnd@?1??_TlgWrite@__vcrt_trace_logging_provider@@YAJPEBU_TlgProvider_t@2@PEFBXPEBU_GUID@@2IPEAU_EVENT_DATA_DESCRIPTOR@@@Z@4EB 0000000180057be3     libvcruntime:telemetry.obj
 0002:000120d0       __rtc_iaa                  00000001800580d0     LIBCMT:_initsect_.obj
 0002:000120d8       __rtc_izz                  00000001800580d8     LIBCMT:_initsect_.obj
 0002:000120e0       __rtc_taa                  00000001800580e0     LIBCMT:_initsect_.obj
 0002:000120e8       __rtc_tzz                  00000001800580e8     LIBCMT:_initsect_.obj
 0002:000179c8       _TI2?AVbad_alloc@std@@     000000018005d9c8     libcpmt:xthrow.obj
 0002:000179e8       _CTA2?AVbad_alloc@std@@    000000018005d9e8     libcpmt:xthrow.obj
 0002:00017a00       _CT??_R0?AVbad_alloc@std@@@8??0bad_alloc@std@@QEAA@AEBV01@@Z24 000000018005da00     libcpmt:xthrow.obj
 0002:00017a28       _CT??_R0?AVexception@std@@@8??0exception@std@@QEAA@AEBV01@@Z24 000000018005da28     libcpmt:xthrow.obj
 0002:00017a50       _CT??_R0?AVlogic_error@std@@@8??0logic_error@std@@QEAA@AEBV01@@Z24 000000018005da50     libcpmt:xthrow.obj
 0002:00017a78       _TI3?AVlength_error@std@@  000000018005da78     libcpmt:xthrow.obj
 0002:00017a98       _CTA3?AVlength_error@std@@ 000000018005da98     libcpmt:xthrow.obj
 0002:00017ab8       _CT??_R0?AVlength_error@std@@@8??0length_error@std@@QEAA@AEBV01@@Z24 000000018005dab8     libcpmt:xthrow.obj
 0002:00017ae0       _TI3?AVout_of_range@std@@  000000018005dae0     libcpmt:xthrow.obj
 0002:00017b00       _CTA3?AVout_of_range@std@@ 000000018005db00     libcpmt:xthrow.obj
 0002:00017b20       _CT??_R0?AVout_of_range@std@@@8??0out_of_range@std@@QEAA@AEBV01@@Z24 000000018005db20     libcpmt:xthrow.obj
 0002:00017b48       _TI3?AVbad_array_new_length@std@@ 000000018005db48     LIBCMT:throw_bad_alloc.obj
 0002:00017b68       _CTA3?AVbad_array_new_length@std@@ 000000018005db68     LIBCMT:throw_bad_alloc.obj
 0002:00017b88       _CT??_R0?AVbad_array_new_length@std@@@8??0bad_array_new_length@std@@QEAA@AEBV01@@Z24 000000018005db88     LIBCMT:throw_bad_alloc.obj
 0002:00017bb0       _TI2?AVbad_exception@std@@ 000000018005dbb0     libvcruntime:frame.obj
 0002:00017bd0       _CTA2?AVbad_exception@std@@ 000000018005dbd0     libvcruntime:frame.obj
 0002:00017be8       _CT??_R0?AVbad_exception@std@@@8??0bad_exception@std@@QEAA@AEBV01@@Z24 000000018005dbe8     libvcruntime:frame.obj
 0002:00017c0c       __DELAY_IMPORT_DESCRIPTOR_node_exe 000000018005dc0c     node:node.exe
 0002:00017c2c       __NULL_DELAY_IMPORT_DESCRIPTOR 000000018005dc2c     node:node.exe
 0002:00017d48       \177node_NULL_THUNK_DATA_DLN 000000018005dd48     node:node.exe
 0002:00018518       \177node_NULL_THUNK_DATA_DLB 000000018005e518     node:node.exe
 0002:00018668       __IMPORT_DESCRIPTOR_KERNEL32 000000018005e668     kernel32:KERNEL32.dll
 0002:0001867c       __IMPORT_DESCRIPTOR_ADVAPI32 000000018005e67c     advapi32:ADVAPI32.dll
 0002:00018690       __NULL_IMPORT_DESCRIPTOR   000000018005e690     kernel32:KERNEL32.dll
 0003:00000004       ?_Sync@ios_base@std@@0_NA  0000000180060004     libcpmt:ios.obj
 0003:00000020       ?_PJP_CPP_Copyright@@3PADA 0000000180060020     libcpmt:iosptrs.obj
 0003:00000078       _FDenorm                   0000000180060078     libcpmt:xfvalues.obj
 0003:00000088       _FInf                      0000000180060088     libcpmt:xfvalues.obj
 0003:00000098       _FNan                      0000000180060098     libcpmt:xfvalues.obj
 0003:000000a8       _FSnan                     00000001800600a8     libcpmt:xfvalues.obj
 0003:000000b8       _FEps                      00000001800600b8     libcpmt:xfvalues.obj
 0003:000000c8       _FRteps                    00000001800600c8     libcpmt:xfvalues.obj
 0003:000000d8       _FXbig                     00000001800600d8     libcpmt:xfvalues.obj
 0003:000000e0       _Denorm                    00000001800600e0     libcpmt:xvalues.obj
 0003:000000f0       _Hugeval                   00000001800600f0     libcpmt:xvalues.obj
 0003:00000100       _Inf                       0000000180060100     libcpmt:xvalues.obj
 0003:00000110       _Nan                       0000000180060110     libcpmt:xvalues.obj
 0003:00000120       _Snan                      0000000180060120     libcpmt:xvalues.obj
 0003:00000130       _Eps                       0000000180060130     libcpmt:xvalues.obj
 0003:00000140       _Rteps                     0000000180060140     libcpmt:xvalues.obj
 0003:00000150       _Xbig                      0000000180060150     libcpmt:xvalues.obj
 0003:00000158       _LDenorm                   0000000180060158     libcpmt:xlvalues.obj
 0003:00000168       _LInf                      0000000180060168     libcpmt:xlvalues.obj
 0003:00000178       _LNan                      0000000180060178     libcpmt:xlvalues.obj
 0003:00000188       _LSnan                     0000000180060188     libcpmt:xlvalues.obj
 0003:00000198       _LEps                      0000000180060198     libcpmt:xlvalues.obj
 0003:000001a8       _LRteps                    00000001800601a8     libcpmt:xlvalues.obj
 0003:000001b8       _LXbig                     00000001800601b8     libcpmt:xlvalues.obj
 0003:000001c0       _Init_global_epoch         00000001800601c0     LIBCMT:thread_safe_statics.obj
 0003:000001c4       __scrt_native_dllmain_reason 00000001800601c4     LIBCMT:utility.obj
 0003:000001c8       __security_cookie          00000001800601c8     LIBCMT:gs_cookie.obj
 0003:000001d0       __security_cookie_complement 00000001800601d0     LIBCMT:gs_cookie.obj
 0003:000001d8       _fltused                   00000001800601d8     LIBCMT:fltused.obj
 0003:000001e0       __isa_available            00000001800601e0     LIBCMT:_cpu_disp_.obj
 0003:000001e4       __isa_enabled              00000001800601e4     LIBCMT:_cpu_disp_.obj
 0003:000001e8       __memcpy_nt_iters          00000001800601e8     LIBCMT:_cpu_disp_.obj
 0003:00000250       __abort_behavior           0000000180060250     libucrt:abort.obj
 0003:00000260       _iob                       0000000180060260     libucrt:_file.obj
 0003:00000370       __acrt_lconv_c             0000000180060370     libucrt:localeconv.obj
 0003:00000408       __acrt_lconv               0000000180060408     libucrt:localeconv.obj
 0003:00000410       __acrt_lconv_static_decimal 0000000180060410     libucrt:localeconv.obj
 0003:00000414       __acrt_lconv_static_W_decimal 0000000180060414     libucrt:localeconv.obj
 0003:00000420       _pctype                    0000000180060420     libucrt:ctype.obj
 0003:00000428       _pwctype                   0000000180060428     libucrt:ctype.obj
 0003:00000430       __badioinfo                0000000180060430     libucrt:ioinit.obj
 0003:00000480       __acrt_initial_locale_data 0000000180060480     libucrt:nlsdata.obj
 0003:000005d8       __acrt_initial_locale_pointers 00000001800605d8     libucrt:nlsdata.obj
 0003:000005e8       __acrt_wide_c_locale_string 00000001800605e8     libucrt:nlsdata.obj
 0003:000005ec       __mb_cur_max               00000001800605ec     libucrt:nlsdata.obj
 0003:000006a0       __globallocalestatus       00000001800606a0     libucrt:glstatus.obj
 0003:000006b0       __acrt_initial_multibyte_data 00000001800606b0     libucrt:mbctype.obj
 0003:000008d8       __acrt_current_multibyte_data 00000001800608d8     libucrt:mbctype.obj
 0003:000009e0       _mbctype                   00000001800609e0     libucrt:mbctype.obj
 0003:00000af0       _mbcasemap                 0000000180060af0     libucrt:mbctype.obj
 0003:00000bf0       _lookuptrailbytes          0000000180060bf0     libucrt:read.obj
 0003:00000cf0       __dcrt_lowio_console_output_handle 0000000180060cf0     libucrt:initcon.obj
 0003:00000d50       __pfnDliNotifyHook2        0000000180060d50     win_delay_load_hook.obj
 0003:00000d60       ??_R0?AV_Facet_base@std@@@8 0000000180060d60     libcpmt:locale0.obj
 0003:00000d88       ??_R0?AV_Locimp@locale@std@@@8 0000000180060d88     libcpmt:locale0.obj
 0003:00000db8       ??_R0?AVfacet@locale@std@@@8 0000000180060db8     libcpmt:locale0.obj
 0003:00000de0       ??_R0?AU_Crt_new_delete@std@@@8 0000000180060de0     libcpmt:locale0.obj
 0003:00000e10       ??_R0?AVbad_alloc@std@@@8  0000000180060e10     libcpmt:xthrow.obj
 0003:00000e38       ??_R0?AVexception@std@@@8  0000000180060e38     libcpmt:xthrow.obj
 0003:00000e60       ??_R0?AVlogic_error@std@@@8 0000000180060e60     libcpmt:xthrow.obj
 0003:00000e88       ??_R0?AVlength_error@std@@@8 0000000180060e88     libcpmt:xthrow.obj
 0003:00000eb0       ??_R0?AVout_of_range@std@@@8 0000000180060eb0     libcpmt:xthrow.obj
 0003:00000ed8       ??_R0?AVruntime_error@std@@@8 0000000180060ed8     libcpmt:xthrow.obj
 0003:00000f00       ??_R0?AVfailure@ios_base@std@@@8 0000000180060f00     libcpmt:cerr.obj
 0003:00000f30       ??_R0?AVsystem_error@std@@@8 0000000180060f30     libcpmt:cerr.obj
 0003:00000f58       ??_R0?AV_System_error@std@@@8 0000000180060f58     libcpmt:cerr.obj
 0003:00000f80       ??_R0?AVios_base@std@@@8   0000000180060f80     libcpmt:cerr.obj
 0003:00000fa8       ??_R0?AV?$_Iosb@H@std@@@8  0000000180060fa8     libcpmt:cerr.obj
 0003:00000fd0       ??_R0?AV?$basic_ios@DU?$char_traits@D@std@@@std@@@8 0000000180060fd0     libcpmt:cerr.obj
 0003:00001010       ??_R0?AV?$basic_streambuf@DU?$char_traits@D@std@@@std@@@8 0000000180061010     libcpmt:cerr.obj
 0003:00001060       ??_R0?AV?$basic_ostream@DU?$char_traits@D@std@@@std@@@8 0000000180061060     libcpmt:cerr.obj
 0003:000010b0       ??_R0?AV?$basic_filebuf@DU?$char_traits@D@std@@@std@@@8 00000001800610b0     libcpmt:cerr.obj
 0003:000010f8       ??_R0?AVcodecvt_base@std@@@8 00000001800610f8     libcpmt:cerr.obj
 0003:00001120       ??_R0?AUctype_base@std@@@8 0000000180061120     libcpmt:cerr.obj
 0003:00001148       ??_R0?AV?$ctype@D@std@@@8  0000000180061148     libcpmt:cerr.obj
 0003:00001170       ??_R0?AVerror_category@std@@@8 0000000180061170     libcpmt:cerr.obj
 0003:000011a0       ??_R0?AV_Generic_error_category@std@@@8 00000001800611a0     libcpmt:cerr.obj
 0003:000011d8       ??_R0?AV_Iostream_error_category@std@@@8 00000001800611d8     libcpmt:cerr.obj
 0003:00001210       ??_R0?AV?$codecvt@DDU_Mbstatet@@@std@@@8 0000000180061210     libcpmt:cerr.obj
 0003:00001250       ??_R0?AV?$num_put@DV?$ostreambuf_iterator@DU?$char_traits@D@std@@@std@@@std@@@8 0000000180061250     libcpmt:locale.obj
 0003:000012b0       ??_R0?AV?$numpunct@D@std@@@8 00000001800612b0     libcpmt:locale.obj
 0003:000012d8       ??_R0?AVtype_info@@@8      00000001800612d8     LIBCMT:std_type_info_static.obj
 0003:000012f8       ??_R0?AVbad_array_new_length@std@@@8 00000001800612f8     LIBCMT:throw_bad_alloc.obj
 0003:00001328       ??_R0?AVbad_exception@std@@@8 0000000180061328     libvcruntime:frame.obj
 0003:00001350       __imp_?Value@External@v8@@QEBAPEAXXZ 0000000180061350     node:node.exe
 0003:00001358       __imp_?New@External@v8@@SA?AV?$Local@VExternal@v8@@@2@PEAVIsolate@2@PEAX@Z 0000000180061358     node:node.exe
 0003:00001360       __imp_?GetCurrentContext@Isolate@v8@@QEAA?AV?$Local@VContext@v8@@@2@XZ 0000000180061360     node:node.exe
 0003:00001368       __imp_?GetCurrent@Isolate@v8@@SAPEAV12@XZ 0000000180061368     node:node.exe
 0003:00001370       __imp_?CreateHandle@HandleScope@v8@@KAPEAPEAVObject@internal@2@PEAVIsolate@42@PEAV342@@Z 0000000180061370     node:node.exe
 0003:00001378       __imp_?CreateHandle@HandleScope@v8@@CAPEAPEAVObject@internal@2@PEAVHeapObject@42@PEAV342@@Z 0000000180061378     node:node.exe
 0003:00001380       __imp_??1HandleScope@v8@@QEAA@XZ 0000000180061380     node:node.exe
 0003:00001388       __imp_?GetFunction@FunctionTemplate@v8@@QEAA?AV?$Local@VFunction@v8@@@2@XZ 0000000180061388     node:node.exe
 0003:00001390       __imp_?New@FunctionTemplate@v8@@SA?AV?$Local@VFunctionTemplate@v8@@@2@PEAVIsolate@2@P6AXAEBV?$FunctionCallbackInfo@VValue@v8@@@2@@ZV?$Local@VValue@v8@@@2@V?$Local@VSignature@v8@@@2@HW4ConstructorBehavior@2@@Z 0000000180061390     node:node.exe
 0003:00001398       __imp_?ToLocalEmpty@V8@v8@@CAXXZ 0000000180061398     node:node.exe
 0003:000013a0       __imp_?Escape@EscapableHandleScope@v8@@AEAAPEAPEAVObject@internal@2@PEAPEAV342@@Z 00000001800613a0     node:node.exe
 0003:000013a8       __imp_??0EscapableHandleScope@v8@@QEAA@PEAVIsolate@1@@Z 00000001800613a8     node:node.exe
 0003:000013b0       __imp_?NewFromUtf8@String@v8@@SA?AV?$MaybeLocal@VString@v8@@@2@PEAVIsolate@2@PEBDW4NewStringType@2@H@Z 00000001800613b0     node:node.exe
 0003:000013b8       __imp_?SlowGetInternalField@Object@v8@@AEAA?AV?$Local@VValue@v8@@@2@H@Z 00000001800613b8     node:node.exe
 0003:000013c0       __imp_?SetInternalField@Object@v8@@QEAAXHV?$Local@VValue@v8@@@2@@Z 00000001800613c0     node:node.exe
 0003:000013c8       __imp_?Set@Object@v8@@QEAA_NV?$Local@VValue@v8@@@2@0@Z 00000001800613c8     node:node.exe
 0003:000013d0       __imp_?SetInternalFieldCount@ObjectTemplate@v8@@QEAAXH@Z 00000001800613d0     node:node.exe
 0003:000013d8       __imp_?NewInstance@ObjectTemplate@v8@@QEAA?AV?$MaybeLocal@VObject@v8@@@2@V?$Local@VContext@v8@@@2@@Z 00000001800613d8     node:node.exe
 0003:000013e0       __imp_?New@ObjectTemplate@v8@@SA?AV?$Local@VObjectTemplate@v8@@@2@PEAVIsolate@2@V?$Local@VFunctionTemplate@v8@@@2@@Z 00000001800613e0     node:node.exe
 0003:000013e8       __imp_node_module_register 00000001800613e8     node:node.exe
 0003:000013f0       __imp_??1EscapableHandleScope@v8@@QEAA@XZ 00000001800613f0     node:node.exe
 0003:000013f8       __imp_?New@Array@v8@@SA?AV?$Local@VArray@v8@@@2@PEAVIsolate@2@H@Z 00000001800613f8     node:node.exe
 0003:00001400       __imp_?Int32Value@Value@v8@@QEBAHXZ 0000000180061400     node:node.exe
 0003:00001408       __imp_?IntegerValue@Value@v8@@QEBA_JXZ 0000000180061408     node:node.exe
 0003:00001410       __imp_??1Utf8Value@String@v8@@QEAA@XZ 0000000180061410     node:node.exe
 0003:00001418       __imp_??0Utf8Value@String@v8@@QEAA@V?$Local@VValue@v8@@@2@@Z 0000000180061418     node:node.exe
 0003:00001420       __imp_?New@Number@v8@@SA?AV?$Local@VNumber@v8@@@2@PEAVIsolate@2@N@Z 0000000180061420     node:node.exe
 0003:00001428       __imp_?New@Object@v8@@SA?AV?$Local@VObject@v8@@@2@PEAVIsolate@2@@Z 0000000180061428     node:node.exe
 0003:00001430       __imp_?Set@Object@v8@@QEAA_NIV?$Local@VValue@v8@@@2@@Z 0000000180061430     node:node.exe
 0003:00001438       __imp_?ToString@Value@v8@@QEBA?AV?$Local@VString@v8@@@2@XZ 0000000180061438     node:node.exe
 0003:00001440       __imp_?ToBoolean@Value@v8@@QEBA?AV?$Local@VBoolean@v8@@@2@XZ 0000000180061440     node:node.exe
 0003:00001448       \177node_NULL_THUNK_DATA_DLA 0000000180061448     node:node.exe
 0003:00001450       __hmod__node_exe           0000000180061450     node:node.exe
 0003:000015b0       ?_Id_cnt@id@locale@std@@0HA 00000001800615b0     libcpmt:locale0.obj
 0003:000015b8       ?_Clocptr@_Locimp@locale@std@@0PEAV123@EA 00000001800615b8     libcpmt:locale0.obj
 0003:000015d0       ?id@?$ctype@_W@std@@2V0locale@2@A 00000001800615d0     libcpmt:locale0.obj
 0003:000015d8       ?id@?$ctype@D@std@@2V0locale@2@A 00000001800615d8     libcpmt:locale0.obj
 0003:000015e0       ?id@?$codecvt@GDU_Mbstatet@@@std@@2V0locale@2@A 00000001800615e0     libcpmt:locale0.obj
 0003:000015e8       ?id@?$ctype@G@std@@2V0locale@2@A 00000001800615e8     libcpmt:locale0.obj
 0003:00001600       ?id@?$codecvt@_WDU_Mbstatet@@@std@@2V0locale@2@A 0000000180061600     libcpmt:locale0.obj
 0003:0000166c       ?_Index@ios_base@std@@0HA  000000018006166c     libcpmt:ios.obj
 0003:00001680       ?cerr@std@@3V?$basic_ostream@DU?$char_traits@D@std@@@1@A 0000000180061680     libcpmt:cerr.obj
 0003:00001788       ?_Raise_handler@std@@3P6AXAEBVexception@stdext@@@ZEA 0000000180061788     libcpmt:raisehan.obj
 0003:00001790       ?_Ptr_cin@std@@3PEAV?$basic_istream@DU?$char_traits@D@std@@@1@EA 0000000180061790     libcpmt:iosptrs.obj
 0003:00001798       ?_Ptr_cout@std@@3PEAV?$basic_ostream@DU?$char_traits@D@std@@@1@EA 0000000180061798     libcpmt:iosptrs.obj
 0003:000017f0       ?_Ptr_cerr@std@@3PEAV?$basic_ostream@DU?$char_traits@D@std@@@1@EA 00000001800617f0     libcpmt:iosptrs.obj
 0003:000017f8       ?_Ptr_clog@std@@3PEAV?$basic_ostream@DU?$char_traits@D@std@@@1@EA 00000001800617f8     libcpmt:iosptrs.obj
 0003:00001800       ?_Ptr_wcin@std@@3PEAV?$basic_istream@_WU?$char_traits@_W@std@@@1@EA 0000000180061800     libcpmt:iosptrs.obj
 0003:00001808       ?_Ptr_wcout@std@@3PEAV?$basic_ostream@_WU?$char_traits@_W@std@@@1@EA 0000000180061808     libcpmt:iosptrs.obj
 0003:00001810       ?_Ptr_wcerr@std@@3PEAV?$basic_ostream@_WU?$char_traits@_W@std@@@1@EA 0000000180061810     libcpmt:iosptrs.obj
 0003:00001818       ?_Ptr_wclog@std@@3PEAV?$basic_ostream@_WU?$char_traits@_W@std@@@1@EA 0000000180061818     libcpmt:iosptrs.obj
 0003:00001828       ?id@?$num_get@DV?$istreambuf_iterator@DU?$char_traits@D@std@@@std@@@std@@2V0locale@2@A 0000000180061828     libcpmt:locale.obj
 0003:00001830       __encodedKERNEL32Functions 0000000180061830     libcpmt:winapisupp.obj
 0003:00001970       ?id@?$time_put@_WV?$ostreambuf_iterator@_WU?$char_traits@_W@std@@@std@@@std@@2V0locale@2@A 0000000180061970     libcpmt:wlocale.obj
 0003:00001978       ?id@?$num_get@_WV?$istreambuf_iterator@_WU?$char_traits@_W@std@@@std@@@std@@2V0locale@2@A 0000000180061978     libcpmt:wlocale.obj
 0003:00001980       ?id@?$num_put@_WV?$ostreambuf_iterator@_WU?$char_traits@_W@std@@@std@@@std@@2V0locale@2@A 0000000180061980     libcpmt:wlocale.obj
 0003:00001988       ?id@?$numpunct@_W@std@@2V0locale@2@A 0000000180061988     libcpmt:wlocale.obj
 0003:00001990       ?id@?$collate@_W@std@@2V0locale@2@A 0000000180061990     libcpmt:wlocale.obj
 0003:00001998       ?id@?$messages@_W@std@@2V0locale@2@A 0000000180061998     libcpmt:wlocale.obj
 0003:000019a0       ?id@?$money_get@_WV?$istreambuf_iterator@_WU?$char_traits@_W@std@@@std@@@std@@2V0locale@2@A 00000001800619a0     libcpmt:wlocale.obj
 0003:000019a8       ?id@?$money_put@_WV?$ostreambuf_iterator@_WU?$char_traits@_W@std@@@std@@@std@@2V0locale@2@A 00000001800619a8     libcpmt:wlocale.obj
 0003:000019b0       ?id@?$moneypunct@_W$0A@@std@@2V0locale@2@A 00000001800619b0     libcpmt:wlocale.obj
 0003:000019b8       ?id@?$moneypunct@_W$00@std@@2V0locale@2@A 00000001800619b8     libcpmt:wlocale.obj
 0003:000019c0       ?id@?$time_get@_WV?$istreambuf_iterator@_WU?$char_traits@_W@std@@@std@@@std@@2V0locale@2@A 00000001800619c0     libcpmt:wlocale.obj
 0003:000019c8       ?id@?$num_get@GV?$istreambuf_iterator@GU?$char_traits@G@std@@@std@@@std@@2V0locale@2@A 00000001800619c8     libcpmt:wlocale.obj
 0003:000019d0       ?id@?$num_put@GV?$ostreambuf_iterator@GU?$char_traits@G@std@@@std@@@std@@2V0locale@2@A 00000001800619d0     libcpmt:wlocale.obj
 0003:000019d8       ?id@?$numpunct@G@std@@2V0locale@2@A 00000001800619d8     libcpmt:wlocale.obj
 0003:000019e0       ?id@?$collate@G@std@@2V0locale@2@A 00000001800619e0     libcpmt:wlocale.obj
 0003:000019e8       ?id@?$messages@G@std@@2V0locale@2@A 00000001800619e8     libcpmt:wlocale.obj
 0003:000019f0       ?id@?$money_get@GV?$istreambuf_iterator@GU?$char_traits@G@std@@@std@@@std@@2V0locale@2@A 00000001800619f0     libcpmt:wlocale.obj
 0003:000019f8       ?id@?$money_put@GV?$ostreambuf_iterator@GU?$char_traits@G@std@@@std@@@std@@2V0locale@2@A 00000001800619f8     libcpmt:wlocale.obj
 0003:00001a00       ?id@?$moneypunct@G$0A@@std@@2V0locale@2@A 0000000180061a00     libcpmt:wlocale.obj
 0003:00001a08       ?id@?$moneypunct@G$00@std@@2V0locale@2@A 0000000180061a08     libcpmt:wlocale.obj
 0003:00001a10       ?id@?$time_get@GV?$istreambuf_iterator@GU?$char_traits@G@std@@@std@@@std@@2V0locale@2@A 0000000180061a10     libcpmt:wlocale.obj
 0003:00001a18       ?id@?$time_put@GV?$ostreambuf_iterator@GU?$char_traits@G@std@@@std@@@std@@2V0locale@2@A 0000000180061a18     libcpmt:wlocale.obj
 0003:00001a20       ?id@?$collate@D@std@@2V0locale@2@A 0000000180061a20     libcpmt:xlocale.obj
 0003:00001a28       ?id@?$messages@D@std@@2V0locale@2@A 0000000180061a28     libcpmt:xlocale.obj
 0003:00001a30       ?id@?$money_get@DV?$istreambuf_iterator@DU?$char_traits@D@std@@@std@@@std@@2V0locale@2@A 0000000180061a30     libcpmt:xlocale.obj
 0003:00001a38       ?id@?$money_put@DV?$ostreambuf_iterator@DU?$char_traits@D@std@@@std@@@std@@2V0locale@2@A 0000000180061a38     libcpmt:xlocale.obj
 0003:00001a40       ?id@?$moneypunct@D$0A@@std@@2V0locale@2@A 0000000180061a40     libcpmt:xlocale.obj
 0003:00001a48       ?id@?$moneypunct@D$00@std@@2V0locale@2@A 0000000180061a48     libcpmt:xlocale.obj
 0003:00001a50       ?id@?$time_get@DV?$istreambuf_iterator@DU?$char_traits@D@std@@@std@@@std@@2V0locale@2@A 0000000180061a50     libcpmt:xlocale.obj
 0003:00001a58       ?id@?$time_put@DV?$ostreambuf_iterator@DU?$char_traits@D@std@@@std@@@std@@2V0locale@2@A 0000000180061a58     libcpmt:xlocale.obj
 0003:00001a60       _FZero                     0000000180061a60     libcpmt:xfvalues.obj
 0003:00001a68       _Zero                      0000000180061a68     libcpmt:xvalues.obj
 0003:00001a70       _LZero                     0000000180061a70     libcpmt:xlvalues.obj
 0003:00001ac0       __scrt_current_native_startup_state 0000000180061ac0     LIBCMT:utility.obj
 0003:00001ac8       __scrt_native_startup_lock 0000000180061ac8     LIBCMT:utility.obj
 0003:00002080       __scrt_debugger_hook_flag  0000000180062080     LIBCMT:utility_desktop.obj
 0003:00002084       _tls_index                 0000000180062084     LIBCMT:tlssup.obj
 0003:00002088       __favor                    0000000180062088     LIBCMT:_cpu_disp_.obj
 0003:00002090       ?__type_info_root_node@@3U__type_info_node@@A 0000000180062090     LIBCMT:tncleanup.obj
 0003:000020a0       ?_OptionsStorage@?1??__local_stdio_scanf_options@@9@4_KA 00000001800620a0     LIBCMT:default_local_stdio_options.obj
 0003:000020a8       ?g_OutOfMemoryExceptionCallback@@3P6APEAXXZEA 00000001800620a8     libvcruntime:frame.obj
 0003:00002198       __pPurecall                0000000180062198     libvcruntime:purevirt_data.obj
 0003:000021d0       ?pArgList@UnDecorator@@0PEAVReplicator@@EA 00000001800621d0     libvcruntime:undname.obj
 0003:000021d8       ?pZNameList@UnDecorator@@0PEAVReplicator@@EA 00000001800621d8     libvcruntime:undname.obj
 0003:000021e0       ?pTemplateArgList@UnDecorator@@0PEAVReplicator@@EA 00000001800621e0     libvcruntime:undname.obj
 0003:000021e8       ?gName@UnDecorator@@0PEBDEB 00000001800621e8     libvcruntime:undname.obj
 0003:000021f0       ?name@UnDecorator@@0PEBDEB 00000001800621f0     libvcruntime:undname.obj
 0003:000021f8       ?outputString@UnDecorator@@0PEADEA 00000001800621f8     libvcruntime:undname.obj
 0003:00002200       ?maxStringLength@UnDecorator@@0HA 0000000180062200     libvcruntime:undname.obj
 0003:00002204       ?disableFlags@UnDecorator@@0KA 0000000180062204     libvcruntime:undname.obj
 0003:00002208       ?fExplicitTemplateParams@UnDecorator@@0_NA 0000000180062208     libvcruntime:undname.obj
 0003:00002209       ?fGetTemplateArgumentList@UnDecorator@@0_NA 0000000180062209     libvcruntime:undname.obj
 0003:00002210       ?m_pGetParameter@UnDecorator@@0P6APEADJ@ZEA 0000000180062210     libvcruntime:undname.obj
 0003:00002248       _nstream                   0000000180062248     libucrt:_file.obj
 0003:00002250       __piob                     0000000180062250     libucrt:_file.obj
 0003:00002258       _cflush                    0000000180062258     libucrt:_file.obj
 0003:0000225c       __acrt_lconv_static_null   000000018006225c     libucrt:localeconv.obj
 0003:00002260       __acrt_lconv_static_W_null 0000000180062260     libucrt:localeconv.obj
 0003:000024a0       _environ_table             00000001800624a0     libucrt:environment_initialization.obj
 0003:000024a8       _wenviron_table            00000001800624a8     libucrt:environment_initialization.obj
 0003:000024b0       __dcrt_initial_wide_environment 00000001800624b0     libucrt:environment_initialization.obj
 0003:000024b8       __dcrt_initial_narrow_environment 00000001800624b8     libucrt:environment_initialization.obj
 0003:000024c0       __acrt_atexit_table        00000001800624c0     libucrt:onexit.obj
 0003:000024d8       __acrt_at_quick_exit_table 00000001800624d8     libucrt:onexit.obj
 0003:00002510       __pioinfo                  0000000180062510     libucrt:ioinit.obj
 0003:00002910       _nhandle                   0000000180062910     libucrt:ioinit.obj
 0003:00002914       __acrt_locale_changed_data 0000000180062914     libucrt:wsetlocale.obj
 0003:00002918       __acrt_current_locale_data 0000000180062918     libucrt:nlsdata.obj
 0003:00002928       __acrt_stdout_buffer       0000000180062928     libucrt:_sftbuf.obj
 0003:00002930       __acrt_stderr_buffer       0000000180062930     libucrt:_sftbuf.obj
 0003:00002af0       ?_timezone@@3V?$dual_state_global@J@__crt_state_management@@A 0000000180062af0     libucrt:timeset.obj
 0003:00002af4       ?_daylight@@3V?$dual_state_global@H@__crt_state_management@@A 0000000180062af4     libucrt:timeset.obj
 0003:00002af8       ?_dstbias@@3V?$dual_state_global@J@__crt_state_management@@A 0000000180062af8     libucrt:timeset.obj
 0003:00002be0       __acrt_heap                0000000180062be0     libucrt:heap_handle.obj
 0003:00002be8       __mbcodepage               0000000180062be8     libucrt:mbctype.obj
 0003:00002bec       __ismbcodepage             0000000180062bec     libucrt:mbctype.obj
 0003:00002bf0       __mbulinfo                 0000000180062bf0     libucrt:mbctype.obj
 0003:00002c00       __mblocalename             0000000180062c00     libucrt:mbctype.obj
 0003:00002c10       __argv                     0000000180062c10     libucrt:argv_data.obj
 0003:00002c18       __wargv                    0000000180062c18     libucrt:argv_data.obj
 0003:00002c20       _acmdln                    0000000180062c20     libucrt:argv_data.obj
 0003:00002c28       _wcmdln                    0000000180062c28     libucrt:argv_data.obj
 0003:00002c38       _commode                   0000000180062c38     libucrt:ncommode.obj
 0003:00002c3c       _umaskval                  0000000180062c3c     libucrt:umask.obj
 0003:00002c40       __fma3_is_available        0000000180062c40     libucrt:fma3_available.obj
 0003:00002c44       __use_fma3_lib             0000000180062c44     libucrt:fma3_available.obj
 0003:00002c48       _fmode                     0000000180062c48     libucrt:txtmode.obj
 0003:00002c50       ?DloadKernel32@@3PEAUHINSTANCE__@@EA 0000000180062c50     DelayImp:delayhlp.obj
 0003:00002c58       ?DloadAcquireSRWLockExclusive@@3P6AXPEA_K@ZEA 0000000180062c58     DelayImp:delayhlp.obj
 0003:00002c60       ?DloadReleaseSRWLockExclusive@@3P6AXPEA_K@ZEA 0000000180062c60     DelayImp:delayhlp.obj
 0003:00002c68       ?DloadSrwLock@@3_KA        0000000180062c68     DelayImp:delayhlp.obj
 0003:00002c70       ?DloadSectionLockCount@@3KA 0000000180062c70     DelayImp:delayhlp.obj
 0003:00002c74       ?DloadSectionOldProtection@@3KA 0000000180062c74     DelayImp:delayhlp.obj
 0003:00002c78       ?DloadSectionCommitPermanent@@3KA 0000000180062c78     DelayImp:delayhlp.obj
 0003:00002c80       __pfnDliFailureHook2       0000000180062c80     DelayImp:delayhk1.obj
 0003:00002c88       ?global_extractor_handle@@3PEAVKeywordExtractor@cppjieba@@EA 0000000180062c88     nodejieba.obj
 0003:00002c90       ?global_jieba_handle@@3PEAVJieba@cppjieba@@EA 0000000180062c90     nodejieba.obj
 0003:00002c98       ?_Psave@?$_Facetptr@V?$codecvt@DDU_Mbstatet@@@std@@@std@@2PEBVfacet@locale@2@EB 0000000180062c98     nodejieba.obj
 0003:00002ca0       ?_Psave@?$_Facetptr@V?$numpunct@D@std@@@std@@2PEBVfacet@locale@2@EB 0000000180062ca0     nodejieba.obj
 0003:00002ca8       ?_Psave@?$_Facetptr@V?$num_put@DV?$ostreambuf_iterator@DU?$char_traits@D@std@@@std@@@std@@@std@@2PEBVfacet@locale@2@EB 0000000180062ca8     nodejieba.obj
 0003:00002cb0       ?_Psave@?$_Facetptr@V?$ctype@D@std@@@std@@2PEBVfacet@locale@2@EB 0000000180062cb0     nodejieba.obj
 0003:00002cb8       ?id@?$num_put@DV?$ostreambuf_iterator@DU?$char_traits@D@std@@@std@@@std@@2V0locale@2@A 0000000180062cb8     nodejieba.obj
 0003:00002cc0       ?_Stinit@?1??_Init@?$basic_filebuf@DU?$char_traits@D@std@@@std@@IEAAXPEAU_iobuf@@W4_Initfl@23@@Z@4U_Mbstatet@@A 0000000180062cc0     nodejieba.obj
 0003:00002cc8       ?_OptionsStorage@?1??__local_stdio_printf_options@@9@4_KA 0000000180062cc8     nodejieba.obj
 0003:00002cd0       ?id@?$numpunct@D@std@@2V0locale@2@A 0000000180062cd0     nodejieba.obj
 0003:00002cd8       ?$TSS0@?1???$_Immortalize@V_Iostream_error_category@std@@@std@@YAAEAV_Iostream_error_category@1@XZ@4HA 0000000180062cd8     nodejieba.obj
 0003:00002ce0       ?id@?$codecvt@DDU_Mbstatet@@@std@@2V0locale@2@A 0000000180062ce0     nodejieba.obj
 0003:00002ce8       ?_Static@?1???$_Immortalize@V_Iostream_error_category@std@@@std@@YAAEAV_Iostream_error_category@1@XZ@4U?$_Immortalizer@V_Iostream_error_category@std@@@1@A 0000000180062ce8     nodejieba.obj
 0003:00002cf8       __dyn_tls_init_callback    0000000180062cf8     <common>
 0003:00002d00       __scrt_ucrt_dll_is_in_use  0000000180062d00     <common>
 0005:00000000       _tls_start                 0000000180067000     LIBCMT:tlssup.obj
 0005:00000004       _Init_thread_epoch         0000000180067004     LIBCMT:thread_safe_statics.obj
 0005:00000008       _tls_end                   0000000180067008     LIBCMT:tlssup.obj

 entry point at        0001:0001f708

 Static symbols

 0000:fff95000       .debug$S                   0000000180000000     kernel32:KERNEL32.dll
 0000:fff95000       .debug$S                   0000000180000000     node:node.exe
 0000:fff95000       .debug$S                   0000000180000000     node:node.exe
 0000:fff95000       .debug$S                   0000000180000000     node:node.exe
 0000:fff95000       .debug$S                   0000000180000000     node:node.exe
 0000:fff95000       .debug$S                   0000000180000000     node:node.exe
 0000:fff95000       .debug$S                   0000000180000000     node:node.exe
 0000:fff95000       .debug$S                   0000000180000000     node:node.exe
 0000:fff95000       .debug$S                   0000000180000000     node:node.exe
 0000:fff95000       .debug$S                   0000000180000000     node:node.exe
 0000:fff95000       .debug$S                   0000000180000000     node:node.exe
 0000:fff95000       .debug$S                   0000000180000000     node:node.exe
 0000:fff95000       .debug$S                   0000000180000000     node:node.exe
 0000:fff95000       .debug$S                   0000000180000000     node:node.exe
 0000:fff95000       .debug$S                   0000000180000000     node:node.exe
 0000:fff95000       .debug$S                   0000000180000000     node:node.exe
 0000:fff95000       .debug$S                   0000000180000000     node:node.exe
 0000:fff95000       .debug$S                   0000000180000000     node:node.exe
 0000:fff95000       .debug$S                   0000000180000000     node:node.exe
 0000:fff95000       .debug$S                   0000000180000000     node:node.exe
 0000:fff95000       .debug$S                   0000000180000000     node:node.exe
 0000:fff95000       .debug$S                   0000000180000000     node:node.exe
 0000:fff95000       .debug$S                   0000000180000000     node:node.exe
 0000:fff95000       .debug$S                   0000000180000000     node:node.exe
 0000:fff95000       .debug$S                   0000000180000000     node:node.exe
 0000:fff95000       .debug$S                   0000000180000000     node:node.exe
 0000:fff95000       .debug$S                   0000000180000000     node:node.exe
 0000:fff95000       .debug$S                   0000000180000000     node:node.exe
 0000:fff95000       .debug$S                   0000000180000000     node:node.exe
 0000:fff95000       .debug$S                   0000000180000000     node:node.exe
 0000:fff95000       .debug$S                   0000000180000000     node:node.exe
 0000:fff95000       .debug$S                   0000000180000000     node:node.exe
 0000:fff95000       .debug$S                   0000000180000000     node:node.exe
 0000:fff95000       .debug$S                   0000000180000000     node:node.exe
 0000:fff95000       .debug$S                   0000000180000000     node:node.exe
 0000:fff95000       .debug$S                   0000000180000000     node:node.exe
 0000:fff95000       .debug$S                   0000000180000000     node:node.exe
 0000:fff95000       .debug$S                   0000000180000000     advapi32:ADVAPI32.dll
 0000:fff95000       .debug$S                   0000000180000000     kernel32:KERNEL32.dll
 0000:fff95000       .debug$S                   0000000180000000     kernel32:KERNEL32.dll
 0000:fff95000       .debug$S                   0000000180000000     kernel32:KERNEL32.dll
 0000:fff95000       .debug$S                   0000000180000000     kernel32:KERNEL32.dll
 0000:fff95000       .debug$S                   0000000180000000     kernel32:KERNEL32.dll
 0000:fff95000       .debug$S                   0000000180000000     kernel32:KERNEL32.dll
 0000:fff95000       .debug$S                   0000000180000000     kernel32:KERNEL32.dll
 0000:fff95000       .debug$S                   0000000180000000     kernel32:KERNEL32.dll
 0000:fff95000       .debug$S                   0000000180000000     kernel32:KERNEL32.dll
 0000:fff95000       .debug$S                   0000000180000000     kernel32:KERNEL32.dll
 0000:fff95000       .debug$S                   0000000180000000     kernel32:KERNEL32.dll
 0000:fff95000       .debug$S                   0000000180000000     kernel32:KERNEL32.dll
 0000:fff95000       .debug$S                   0000000180000000     kernel32:KERNEL32.dll
 0000:fff95000       .debug$S                   0000000180000000     kernel32:KERNEL32.dll
 0000:fff95000       .debug$S                   0000000180000000     kernel32:KERNEL32.dll
 0000:fff95000       .debug$S                   0000000180000000     kernel32:KERNEL32.dll
 0000:fff95000       .debug$S                   0000000180000000     kernel32:KERNEL32.dll
 0000:fff95000       .debug$S                   0000000180000000     kernel32:KERNEL32.dll
 0000:fff95000       .debug$S                   0000000180000000     kernel32:KERNEL32.dll
 0000:fff95000       .debug$S                   0000000180000000     kernel32:KERNEL32.dll
 0000:fff95000       .debug$S                   0000000180000000     kernel32:KERNEL32.dll
 0000:fff95000       .debug$S                   0000000180000000     kernel32:KERNEL32.dll
 0000:fff95000       .debug$S                   0000000180000000     kernel32:KERNEL32.dll
 0000:fff95000       .debug$S                   0000000180000000     kernel32:KERNEL32.dll
 0000:fff95000       .debug$S                   0000000180000000     nodejieba.exp
 0000:fff95000       .debug$S                   0000000180000000     kernel32:KERNEL32.dll
 0000:fff95000       .debug$S                   0000000180000000     kernel32:KERNEL32.dll
 0000:fff95000       .debug$S                   0000000180000000     kernel32:KERNEL32.dll
 0000:fff95000       .debug$S                   0000000180000000     kernel32:KERNEL32.dll
 0000:fff95000       .debug$S                   0000000180000000     kernel32:KERNEL32.dll
 0000:fff95000       .debug$S                   0000000180000000     kernel32:KERNEL32.dll
 0000:fff95000       .debug$S                   0000000180000000     kernel32:KERNEL32.dll
 0000:fff95000       .debug$S                   0000000180000000     kernel32:KERNEL32.dll
 0000:fff95000       .debug$S                   0000000180000000     kernel32:KERNEL32.dll
 0000:fff95000       .debug$S                   0000000180000000     kernel32:KERNEL32.dll
 0000:fff95000       .debug$S                   0000000180000000     kernel32:KERNEL32.dll
 0000:fff95000       .debug$S                   0000000180000000     kernel32:KERNEL32.dll
 0000:fff95000       .debug$S                   0000000180000000     kernel32:KERNEL32.dll
 0000:fff95000       .debug$S                   0000000180000000     kernel32:KERNEL32.dll
 0000:fff95000       .debug$S                   0000000180000000     kernel32:KERNEL32.dll
 0000:fff95000       .debug$S                   0000000180000000     kernel32:KERNEL32.dll
 0000:fff95000       .debug$S                   0000000180000000     kernel32:KERNEL32.dll
 0000:fff95000       .debug$S                   0000000180000000     kernel32:KERNEL32.dll
 0000:fff95000       .debug$S                   0000000180000000     kernel32:KERNEL32.dll
 0000:fff95000       .debug$S                   0000000180000000     kernel32:KERNEL32.dll
 0000:fff95000       .debug$S                   0000000180000000     kernel32:KERNEL32.dll
 0000:fff95000       .debug$S                   0000000180000000     kernel32:KERNEL32.dll
 0000:fff95000       .debug$S                   0000000180000000     kernel32:KERNEL32.dll
 0000:fff95000       .debug$S                   0000000180000000     kernel32:KERNEL32.dll
 0000:fff95000       .debug$S                   0000000180000000     kernel32:KERNEL32.dll
 0000:fff95000       .debug$S                   0000000180000000     kernel32:KERNEL32.dll
 0000:fff95000       .debug$S                   0000000180000000     kernel32:KERNEL32.dll
 0000:fff95000       .debug$S                   0000000180000000     kernel32:KERNEL32.dll
 0000:fff95000       .debug$S                   0000000180000000     kernel32:KERNEL32.dll
 0000:fff95000       .debug$S                   0000000180000000     kernel32:KERNEL32.dll
 0000:fff95000       .debug$S                   0000000180000000     kernel32:KERNEL32.dll
 0000:fff95000       .debug$S                   0000000180000000     kernel32:KERNEL32.dll
 0000:fff95000       .debug$S                   0000000180000000     kernel32:KERNEL32.dll
 0000:fff95000       .debug$S                   0000000180000000     kernel32:KERNEL32.dll
 0000:fff95000       .debug$S                   0000000180000000     kernel32:KERNEL32.dll
 0000:fff95000       .debug$S                   0000000180000000     kernel32:KERNEL32.dll
 0000:fff95000       .debug$S                   0000000180000000     kernel32:KERNEL32.dll
 0000:fff95000       .debug$S                   0000000180000000     kernel32:KERNEL32.dll
 0000:fff95000       .debug$S                   0000000180000000     kernel32:KERNEL32.dll
 0000:fff95000       .debug$S                   0000000180000000     kernel32:KERNEL32.dll
 0000:fff95000       .debug$S                   0000000180000000     kernel32:KERNEL32.dll
 0000:fff95000       .debug$S                   0000000180000000     kernel32:KERNEL32.dll
 0000:fff95000       .debug$S                   0000000180000000     kernel32:KERNEL32.dll
 0000:fff95000       .debug$S                   0000000180000000     kernel32:KERNEL32.dll
 0000:fff95000       .debug$S                   0000000180000000     kernel32:KERNEL32.dll
 0000:fff95000       .debug$S                   0000000180000000     kernel32:KERNEL32.dll
 0000:fff95000       .debug$S                   0000000180000000     kernel32:KERNEL32.dll
 0000:fff95000       .debug$S                   0000000180000000     kernel32:KERNEL32.dll
 0000:fff95000       .debug$S                   0000000180000000     kernel32:KERNEL32.dll
 0000:fff95000       .debug$S                   0000000180000000     kernel32:KERNEL32.dll
 0000:fff95000       .debug$S                   0000000180000000     kernel32:KERNEL32.dll
 0000:fff95000       .debug$S                   0000000180000000     kernel32:KERNEL32.dll
 0000:fff95000       .debug$S                   0000000180000000     kernel32:KERNEL32.dll
 0000:fff95000       .debug$S                   0000000180000000     kernel32:KERNEL32.dll
 0000:fff95000       .debug$S                   0000000180000000     kernel32:KERNEL32.dll
 0000:fff95000       .debug$S                   0000000180000000     kernel32:KERNEL32.dll
 0000:fff95000       .debug$S                   0000000180000000     kernel32:KERNEL32.dll
 0000:fff95000       .debug$S                   0000000180000000     kernel32:KERNEL32.dll
 0000:fff95000       .debug$S                   0000000180000000     kernel32:KERNEL32.dll
 0000:fff95000       .debug$S                   0000000180000000     kernel32:KERNEL32.dll
 0000:fff95000       .debug$S                   0000000180000000     kernel32:KERNEL32.dll
 0000:fff95000       .debug$S                   0000000180000000     kernel32:KERNEL32.dll
 0000:fff95000       .debug$S                   0000000180000000     kernel32:KERNEL32.dll
 0000:fff95000       .debug$S                   0000000180000000     kernel32:KERNEL32.dll
 0000:fff95000       .debug$S                   0000000180000000     kernel32:KERNEL32.dll
 0000:fff95000       .debug$S                   0000000180000000     kernel32:KERNEL32.dll
 0000:fff95000       .debug$S                   0000000180000000     kernel32:KERNEL32.dll
 0000:fff95000       .debug$S                   0000000180000000     kernel32:KERNEL32.dll
 0000:fff95000       .debug$S                   0000000180000000     kernel32:KERNEL32.dll
 0000:fff95000       .debug$S                   0000000180000000     kernel32:KERNEL32.dll
 0000:fff95000       .debug$S                   0000000180000000     kernel32:KERNEL32.dll
 0000:fff95000       .debug$S                   0000000180000000     kernel32:KERNEL32.dll
 0000:fff95000       .debug$S                   0000000180000000     kernel32:KERNEL32.dll
 0001:000001e0       ??__Einitlocks@std@@YAXXZ  00000001800011e0 f   libcpmt:xlock.obj
 0001:00000200       ??__E_Fac_tidy_reg@std@@YAXXZ 0000000180001200 f   libcpmt:locale0.obj
 0001:0000020c       ??__Eclassic_locale@std@@YAXXZ 000000018000120c f   libcpmt:locale0.obj
 0001:00000218       ??__Ecerr@std@@YAXXZ       0000000180001218 f   libcpmt:cerr.obj
 0001:00000248       ??__Eferr@std@@YAXXZ       0000000180001248 f   libcpmt:cerr.obj
 0001:00000298       ??__Einit_cerr@std@@YAXXZ  0000000180001298 f   libcpmt:cerr.obj
 0001:000002d0       ??__Einitlocks@@YAXXZ      00000001800012d0 f   libcpmt:cerr.obj
 0001:000002f0       ??__Einit_atexit@@YAXXZ    00000001800012f0 f   libcpmt:iosptrs.obj
 0001:000002fc       ??__Einitlocks@std@@YAXXZ  00000001800012fc f   libcpmt:iosptrs.obj
 0001:00000320       ?FunctionCallbackWrapper@imp@Nan@@YAXAEBV?$FunctionCallbackInfo@VValue@v8@@@v8@@@Z 0000000180001320 f   index.obj
 0001:000009e0       _register_nodejieba        00000001800019e0 f   index.obj
 0001:00010fa0       no_op_initialize           0000000180011fa0 f i libucrt:wsetlocale.obj
 0001:00011c70       uninitialize_c             0000000180012c70 f i libucrt:initialization.obj
 0001:00011c70       initialize_environment     0000000180012c70 f i libucrt:initialization.obj
 0001:00011c70       report_memory_leaks        0000000180012c70 f i libucrt:initialization.obj
 0001:00011c70       uninitialize_global_state_isolation 0000000180012c70 f i libucrt:initialization.obj
 0001:00011c70       initialize_global_state_isolation 0000000180012c70 f i libucrt:initialization.obj
 0001:0001d110       ?load_exe_hook@@YAP6A_JXZIPEAUDelayLoadInfo@@@Z 000000018001e110 f   win_delay_load_hook.obj
 0001:0001d8e8       tidy_global                000000018001e8e8 f   libcpmt:locale0.obj
 0001:0001e55c       ?initialize_pointers@@YAHXZ 000000018001f55c f   libcpmt:winapisupp.obj
 0001:0001ec60       $$000000                   000000018001fc60     LIBCMT:_amdsecgs_.obj
 0001:0001ec94       ?__scrt_initialize_thread_safe_statics@@YAHXZ 000000018001fc94 f   LIBCMT:thread_safe_statics.obj
 0001:0001edb4       ?__scrt_uninitialize_thread_safe_statics@@YAXXZ 000000018001fdb4 f   LIBCMT:thread_safe_statics.obj
 0001:0001f3ac       ?dllmain_crt_dispatch@@YAHQEAUHINSTANCE__@@KQEAX@Z 00000001800203ac f   LIBCMT:dll_dllmain.obj
 0001:0001f3fc       ?dllmain_crt_process_attach@@YAHQEAUHINSTANCE__@@QEAX@Z 00000001800203fc f   LIBCMT:dll_dllmain.obj
 0001:0001f528       ?dllmain_crt_process_detach@@YAH_N@Z 0000000180020528 f   LIBCMT:dll_dllmain.obj
 0001:0001f5ac       ?dllmain_dispatch@@YAHQEAUHINSTANCE__@@KQEAX@Z 00000001800205ac f   LIBCMT:dll_dllmain.obj
 0001:0001f6b4       ?dllmain_raw@@YAHQEAUHINSTANCE__@@KQEAX@Z 00000001800206b4 f   LIBCMT:dll_dllmain.obj
 0001:0001f890       $$000000                   0000000180020890     LIBCMT:_chkstk_.obj
 0001:0001faac       capture_current_context    0000000180020aac f   LIBCMT:gs_report.obj
 0001:0001fb1c       capture_previous_context   0000000180020b1c f   LIBCMT:gs_report.obj
 0001:000201a8       ?CatchIt@@YAXPEAUEHExceptionRecord@@PEA_KPEAU_CONTEXT@@PEAU_xDISPATCHER_CONTEXT@@PEBU_s_FuncInfo@@PEBU_s_HandlerType@@PEBU_s_CatchableType@@PEBU_s_TryBlockMapEntry@@H1EE@Z 00000001800211a8 f   libvcruntime:frame.obj
 0001:0002026c       ?ExFilterRethrow@@YAHPEAU_EXCEPTION_POINTERS@@PEAUEHExceptionRecord@@PEAH@Z 000000018002126c f   libvcruntime:frame.obj
 0001:000202f4       ?FindHandler@@YAXPEAUEHExceptionRecord@@PEA_KPEAU_CONTEXT@@PEAU_xDISPATCHER_CONTEXT@@PEBU_s_FuncInfo@@EH1@Z 00000001800212f4 f   libvcruntime:frame.obj
 0001:000207a4       ?FindHandlerForForeignException@@YAXPEAUEHExceptionRecord@@PEA_KPEAU_CONTEXT@@PEAU_xDISPATCHER_CONTEXT@@PEBU_s_FuncInfo@@HH1@Z 00000001800217a4 f   libvcruntime:frame.obj
 0001:000209fc       ?IsInExceptionSpec@@YAEPEAUEHExceptionRecord@@PEBU_s_ESTypeList@@@Z 00000001800219fc f   libvcruntime:frame.obj
 0001:00021530       $$000000                   0000000180022530     libvcruntime:memcpy.obj
 0001:000215d7       MoveSmall                  00000001800225d7     libvcruntime:memcpy.obj
 0001:000221a0       $$000000                   00000001800231a0     libvcruntime:memset.obj
 0001:0002228c       MsetTab                    000000018002328c     libvcruntime:memset.obj
 0001:00022350       $$000000                   0000000180023350     libvcruntime:memcmp.obj
 0001:00022428       ?try_get_function@@YAPEAXW4function_id@?A0xece66f1d@@QEBDQEBW4module_id@2@2@Z 0000000180023428 f   libvcruntime:winapi_downlevel.obj
 0001:00022cc4       _TlgDefineProvider_annotation__Tlg_Microsoft_CRTProviderProv 0000000180023cc4 f   libvcruntime:telemetry.obj
 0001:00023230       $$000000                   0000000180024230     libvcruntime:handlers.obj
 0001:00023280       $$000000                   0000000180024280     libvcruntime:_jmpuwind_.obj
 0001:000238a4       common_flush_all           00000001800248a4 f   libucrt:fflush.obj
 0001:00023df0       ??$common_vsprintf@Vformat_validation_base@__crt_stdio_output@@D@@YAH_KQEAD0QEBDQEAU__crt_locale_pointers@@1@Z 0000000180024df0 f   libucrt:output.obj
 0001:00024448       ??R<lambda_dd75445284c072d0bd3768540cc698fa>@@QEBAHXZ 0000000180025448 f   libucrt:output.obj
 0001:00027238       ??R<lambda_532e024f4337e6fc7ad266c2bef9f4ed>@@QEBA_KXZ 0000000180028238 f   libucrt:fwrite.obj
 0001:00027620       ??R<lambda_b721fa326cdb32351d23dfa67958c160>@@QEBAHXZ 0000000180028620 f   libucrt:setvbuf.obj
 0001:000277b0       ??$common_timespec_get@U_timespec64@@@@YAHQEAU_timespec64@@H@Z 00000001800287b0 f   libucrt:time.obj
 0001:00027888       ??$common_localtime_s@_J@@YAHQEAUtm@@QEB_J@Z 0000000180028888 f   libucrt:localtime.obj
 0001:000288dc       ??$common_atof_l@D@@YANQEBDQEAU__crt_locale_pointers@@@Z 00000001800298dc f   libucrt:atof.obj
 0001:00029344       ??R<lambda_5b157d9853193f9f9f8b62eb1b9b9f4d>@@QEBA_NXZ 000000018002a344 f   libucrt:atof.obj
 0001:00029344       ??R<lambda_73acf8ad6384d823b0eabb7cc5a67fbc>@@QEBA_NXZ 000000018002a344 f   libucrt:atof.obj
 0001:00029344       ??R<lambda_4b02b6c4205409ce3a17cd2e58fe2976>@@QEBA_NXZ 000000018002a344 f   libucrt:atof.obj
 0001:0002bea0       ?common_fseek@@YAHV__crt_stdio_stream@@_JH@Z 000000018002cea0 f   libucrt:fseek.obj
 0001:0002bf0c       ?common_fseek_binary_mode_read_only_fast_track_nolock@@YA_NV__crt_stdio_stream@@_JH@Z 000000018002cf0c f   libucrt:fseek.obj
 0001:0002c01c       ?common_fseek_nolock@@YAHV__crt_stdio_stream@@_JH@Z 000000018002d01c f   libucrt:fseek.obj
 0001:0002c124       ??$common_assert_to_message_box@_W@@YAXQEB_W0IQEAX@Z 000000018002d124 f   libucrt:assert.obj
 0001:0002c1e8       ??$common_assert_to_message_box_build_string@_W@@YAXQEA_W_KQEB_W2IQEAX@Z 000000018002d1e8 f   libucrt:assert.obj
 0001:0002c9bc       ??$common_assert_to_stderr@_W@@YAXQEB_W0I@Z 000000018002d9bc f   libucrt:assert.obj
 0001:0002cb2c       ?get_assert_format@@YAPEB_W_W@Z 000000018002db2c f   libucrt:assert.obj
 0001:0002ce68       call_wsetlocale            000000018002de68 f   libucrt:setlocale.obj
 0001:0002d11c       ??$common_fsopen@D@@YAPEAU_iobuf@@QEBD0H@Z 000000018002e11c f   libucrt:fopen.obj
 0001:0002d988       ?x_ismbbtype_l@@YAHPEAU__crt_locale_pointers@@IHH@Z 000000018002e988 f   libucrt:ismbbyte.obj
 0001:0002dbac       ?compute_iso_week_internal@@YAHHHH@Z 000000018002ebac f   libucrt:wcsftime.obj
 0001:0002dca0       ?expand_time@@YA_NPEAU__crt_locale_pointers@@_WPEBUtm@@PEAPEA_WPEA_KPEBU__crt_lc_time_data@@_N@Z 000000018002eca0 f   libucrt:wcsftime.obj
 0001:0002ec40       ?store_number@@YAXHHQEAPEA_WQEA_K_W@Z 000000018002fc40 f   libucrt:wcsftime.obj
 0001:0002ed90       ?store_winword@@YA_NQEAU__crt_locale_pointers@@HQEBUtm@@QEAPEA_WQEA_KQEBU__crt_lc_time_data@@@Z 000000018002fd90 f   libucrt:wcsftime.obj
 0001:0002f49c       ?internal_isupper_l@@YA_NHQEAU__crt_locale_pointers@@@Z 000000018003049c f   libucrt:tolower_toupper.obj
 0001:0002fc2c       ?atexit_exception_filter@@YAHK@Z 0000000180030c2c f   libucrt:exit.obj
 0001:0002fc38       ?common_exit@@YAXHW4_crt_exit_cleanup_mode@@W4_crt_exit_return_mode@@@Z 0000000180030c38 f   libucrt:exit.obj
 0001:0002fda4       ?exit_or_terminate_process@@YAXI@Z 0000000180030da4 f   libucrt:exit.obj
 0001:0002fdf0       ?try_cor_exit_process@@YAXI@Z 0000000180030df0 f   libucrt:exit.obj
 0001:0002fe88       ??$common_get_or_create_environment_nolock@D@@YAPEAPEADXZ 0000000180030e88 f   libucrt:environment_initialization.obj
 0001:0002fed0       ??$common_initialize_environment_nolock@D@@YAHXZ 0000000180030ed0 f   libucrt:environment_initialization.obj
 0001:0002ff3c       ??$create_environment@D@@YAQEAPEADQEAD@Z 0000000180030f3c f   libucrt:environment_initialization.obj
 0001:00030038       ??$free_environment@D@@YAXQEAPEAD@Z 0000000180031038 f   libucrt:environment_initialization.obj
 0001:00030038       ??$free_environment@_W@@YAXQEAPEA_W@Z 0000000180031038 f   libucrt:environment_initialization.obj
 0001:0003007c       ??$initialize_environment_by_cloning_nolock@D@@YAHXZ 000000018003107c f   libucrt:environment_initialization.obj
 0001:00030150       ??$uninitialize_environment_internal@D@@YAXAEAPEAPEAD@Z 0000000180031150 f   libucrt:environment_initialization.obj
 0001:0003016c       ??$uninitialize_environment_internal@_W@@YAXAEAPEAPEA_W@Z 000000018003116c f   libucrt:environment_initialization.obj
 0001:000303ac       ??R<lambda_4e60a939b0d047cfe11ddc22648dfba9>@@QEBAHXZ 00000001800313ac f   libucrt:onexit.obj
 0001:0003065c       initialize_global_variables 000000018003165c f   libucrt:initialization.obj
 0001:00030670       initialize_c               0000000180031670 f   libucrt:initialization.obj
 0001:00030694       uninitialize_environment   0000000180031694 f   libucrt:initialization.obj
 0001:000306a4       initialize_pointers        00000001800316a4 f   libucrt:initialization.obj
 0001:000306f8       uninitialize_vcruntime     00000001800316f8 f   libucrt:initialization.obj
 0001:00030700       uninitialize_allocated_memory 0000000180031700 f   libucrt:initialization.obj
 0001:00030c94       ??$write_buffer_nolock@D@@YA_NDV__crt_stdio_stream@@@Z 0000000180031c94 f   libucrt:_flsbuf.obj
 0001:00030d98       ??$write_buffer_nolock@_W@@YA_N_WV__crt_stdio_stream@@@Z 0000000180031d98 f   libucrt:_flsbuf.obj
 0001:00031078       ?initialize_inherited_file_handles_nolock@@YAXXZ 0000000180032078 f   libucrt:ioinit.obj
 0001:00031164       ?initialize_stdio_handles_nolock@@YAXXZ 0000000180032164 f   libucrt:ioinit.obj
 0001:00031404       ?construct_ptd_array@@YAXQEAU__acrt_ptd@@@Z 0000000180032404 f   libucrt:per_thread_data.obj
 0001:000314d4       ?destroy_fls@@YAXPEAX@Z    00000001800324d4 f   libucrt:per_thread_data.obj
 0001:000314f4       ?destroy_ptd_array@@YAXQEAU__acrt_ptd@@@Z 00000001800324f4 f   libucrt:per_thread_data.obj
 0001:000315ec       ?replace_current_thread_locale_nolock@@YAXQEAU__acrt_ptd@@QEAU__crt_locale_data@@@Z 00000001800325ec f   libucrt:per_thread_data.obj
 0001:0003194c       ?write_double_translated_ansi_nolock@@YA?AUwrite_result@?A0x4392dfaa@@HQEBDI@Z 000000018003294c f   libucrt:write.obj
 0001:00031b54       ?write_text_ansi_nolock@@YA?AUwrite_result@?A0x4392dfaa@@HQEBDI@Z 0000000180032b54 f   libucrt:write.obj
 0001:00031c5c       ?write_text_utf16le_nolock@@YA?AUwrite_result@?A0x4392dfaa@@HQEBDI@Z 0000000180032c5c f   libucrt:write.obj
 0001:00031d78       ?write_text_utf8_nolock@@YA?AUwrite_result@?A0x4392dfaa@@HQEBDI@Z 0000000180032d78 f   libucrt:write.obj
 0001:00032530       ?find_or_allocate_unused_stream_nolock@@YA?AV__crt_stdio_stream@@XZ 0000000180033530 f   libucrt:stream.obj
 0001:0003282c       ??R<lambda_2af78c5f5901b1372d98f9ab3177dfa6>@@QEBAXXZ 000000018003382c f   libucrt:wsetlocale.obj
 0001:00032bf0       _copytlocinfo_nolock       0000000180033bf0 f   libucrt:wsetlocale.obj
 0001:000331b0       _wsetlocale_get_all        00000001800341b0 f   libucrt:wsetlocale.obj
 0001:00033398       _wsetlocale_nolock         0000000180034398 f   libucrt:wsetlocale.obj
 0001:00033620       _wsetlocale_set_cat        0000000180034620 f   libucrt:wsetlocale.obj
 0001:00033d10       ?fp_format_a@@YAHQEBNPEAD_KQEAD2H_NIQEAU__crt_locale_pointers@@@Z 0000000180034d10 f   libucrt:cvt.obj
 0001:00034070       ?fp_format_e@@YAHQEBNQEAD_K12H_NIQEAU__crt_locale_pointers@@@Z 0000000180035070 f   libucrt:cvt.obj
 0001:00034140       ?fp_format_e_internal@@YAHQEAD_KH_NIQEAU_strflt@@2QEAU__crt_locale_pointers@@@Z 0000000180035140 f   libucrt:cvt.obj
 0001:0003431c       ?fp_format_f_internal@@YAHQEAD_KHQEAU_strflt@@_NQEAU__crt_locale_pointers@@@Z 000000018003531c f   libucrt:cvt.obj
 0001:00034464       ?fp_format_g@@YAHQEBNQEAD_K12H_NIQEAU__crt_locale_pointers@@@Z 0000000180035464 f   libucrt:cvt.obj
 0001:0003459c       ?fp_format_nan_or_infinity@@YAHW4__acrt_fp_class@@_NPEAD_K1@Z 000000018003559c f   libucrt:cvt.obj
 0001:00034bc4       ??$common_refill_and_read_nolock@D@@YAHV__crt_stdio_stream@@@Z 0000000180035bc4 f   libucrt:_filbuf.obj
 0001:00034d74       ?<helper_func_cdecl>@<lambda_e2bb8337c48846e80c921ea5ddadc92d>@@CAHPEA_W@Z 0000000180035d74 f   libucrt:winapi_thunks.obj
 0001:00034e50       ?try_get_function@@YAPEAXW4function_id@?A0x1dd686d3@@QEBDQEBW4module_id@2@2@Z 0000000180035e50 f   libucrt:winapi_thunks.obj
 0001:00035d24       ??$common_ftell@_J@@YA_JV__crt_stdio_stream@@@Z 0000000180036d24 f   libucrt:ftell.obj
 0001:00035d78       ??$common_ftell_nolock@_J@@YA_JV__crt_stdio_stream@@@Z 0000000180036d78 f   libucrt:ftell.obj
 0001:00035ef0       ?common_ftell_read_mode_nolock@@YA_JV__crt_stdio_stream@@_J1@Z 0000000180036ef0 f   libucrt:ftell.obj
 0001:00036068       ?common_ftell_translated_utf8_nolock@@YA_JV__crt_stdio_stream@@_J@Z 0000000180037068 f   libucrt:ftell.obj
 0001:000362d0       ??$common_gmtime_s@_J@@YAHQEAUtm@@QEB_J@Z 00000001800372d0 f   libucrt:gmtime.obj
 0001:00036464       ?compute_year@@YAHAEA_JAEA_N@Z 0000000180037464 f   libucrt:gmtime.obj
 0001:0003659c       ?_isindst_nolock@@YAHQEAUtm@@@Z 000000018003759c f   libucrt:tzset.obj
 0001:000368b8       ?cvtdate@@YAXW4transition_type@?A0x1c323342@@W4date_type@2@HHHHHHHHH@Z 00000001800378b8 f   libucrt:tzset.obj
 0001:00036aac       ?tzset_from_environment_nolock@@YAXPEAD@Z 0000000180037aac f   libucrt:tzset.obj
 0001:00036cfc       ?tzset_from_system_nolock@@YAXXZ 0000000180037cfc f   libucrt:tzset.obj
 0001:00036ed0       ?tzset_nolock@@YAXXZ       0000000180037ed0 f   libucrt:tzset.obj
 0001:00037ca0       ??$common_lseek@_J@@YA_JH_JH@Z 0000000180038ca0 f   libucrt:lseek.obj
 0001:00037d90       ??$common_lseek_nolock@_J@@YA_JH_JH@Z 0000000180038d90 f   libucrt:lseek.obj
 0001:00037e44       ??$common_xtox@K_W@@YAHKQEA_W_KI_N@Z 0000000180038e44 f   libucrt:xtoa.obj
 0001:00037ef0       ??$common_xtox_s@K_W@@YAHKQEA_W_KI_N@Z 0000000180038ef0 f   libucrt:xtoa.obj
 0001:0003814c       ??$message_box_wait_thread@_W@@YAKQEAX@Z 000000018003914c f   libucrt:crtmbox.obj
 0001:00038290       ?_mbstowcs_l_helper@@YA_KPEA_WPEBD_KPEAU__crt_locale_pointers@@@Z 0000000180039290 f   libucrt:mbstowcs.obj
 0001:000385bc       ?_wcstombs_l_helper@@YA_KPEADPEB_W_KPEAU__crt_locale_pointers@@@Z 00000001800395bc f   libucrt:wcstombs.obj
 0001:00038d44       ?InternalGetLocaleInfoA@@YAHQEAU__crt_locale_pointers@@QEB_WKQEADH@Z 0000000180039d44 f   libucrt:getlocaleinfoa.obj
 0001:00039260       ?__acrt_LCMapStringA_stat@@YAHPEAU__crt_locale_pointers@@PEB_WKPEBDHPEADHHH@Z 000000018003a260 f   libucrt:lcmapstringa.obj
 0001:0003980c       _call_matherr              000000018003a80c f   libucrt:libm_error.obj
 0001:00039874       _exception_enabled         000000018003a874 f   libucrt:libm_error.obj
 0001:00039aac       ??R<lambda_ad1ced32f4ac17aa236e5ef05d6b3b7c>@@QEBAXXZ 000000018003aaac f   libucrt:mbctype.obj
 0001:00039cc4       ?getSystemCP@@YAHH@Z       000000018003acc4 f   libucrt:mbctype.obj
 0001:00039d44       ?setSBCS@@YAXPEAU__crt_multibyte_data@@@Z 000000018003ad44 f   libucrt:mbctype.obj
 0001:00039dd4       ?setSBUpLow@@YAXPEAU__crt_multibyte_data@@@Z 000000018003add4 f   libucrt:mbctype.obj
 0001:00039fb8       ?setmbcp_internal@@YAHH_N@Z 000000018003afb8 f   libucrt:mbctype.obj
 0001:0003a604       ??$common_set_variable_in_environment_nolock@D@@YAHQEADH@Z 000000018003b604 f   libucrt:setenv.obj
 0001:0003a8f4       ??$copy_environment@D@@YAPEAPEADQEAPEAD@Z 000000018003b8f4 f   libucrt:setenv.obj
 0001:0003bf68       ?free_crt_array_internal@@YAXQEAPEBX_K@Z 000000018003cf68 f   libucrt:inittime.obj
 0001:0003bfc0       ?initialize_lc_time@@YA_NQEAU__crt_lc_time_data@@QEAU__crt_locale_data@@@Z 000000018003cfc0 f   libucrt:inittime.obj
 0001:0003c630       GetLocaleNameFromDefault   000000018003d630 f   libucrt:get_qualified_locale.obj
 0001:0003c6d8       GetLocaleNameFromLangCountry 000000018003d6d8 f   libucrt:get_qualified_locale.obj
 0001:0003c7a8       GetLocaleNameFromLanguage  000000018003d7a8 f   libucrt:get_qualified_locale.obj
 0001:0003c844       LangCountryEnumProcEx      000000018003d844 f   libucrt:get_qualified_locale.obj
 0001:0003cbf8       LanguageEnumProcEx         000000018003dbf8 f   libucrt:get_qualified_locale.obj
 0001:0003cce4       ProcessCodePage            000000018003dce4 f   libucrt:get_qualified_locale.obj
 0001:0003cd98       TestDefaultCountry         000000018003dd98 f   libucrt:get_qualified_locale.obj
 0001:0003ce00       TranslateName              000000018003de00 f   libucrt:get_qualified_locale.obj
 0001:0003d0bc       CountryEnumProc            000000018003e0bc f   libucrt:getqloc_downlevel.obj
 0001:0003d1a8       GetLcidFromLangCountry     000000018003e1a8 f   libucrt:getqloc_downlevel.obj
 0001:0003d278       GetLcidFromLanguage        000000018003e278 f   libucrt:getqloc_downlevel.obj
 0001:0003d310       LangCountryEnumProc        000000018003e310 f   libucrt:getqloc_downlevel.obj
 0001:0003d554       LanguageEnumProc           000000018003e554 f   libucrt:getqloc_downlevel.obj
 0001:0003d650       LcidFromHexString          000000018003e650 f   libucrt:getqloc_downlevel.obj
 0001:0003d6a0       ProcessCodePage            000000018003e6a0 f   libucrt:getqloc_downlevel.obj
 0001:0003d750       TestDefaultLanguage        000000018003e750 f   libucrt:getqloc_downlevel.obj
 0001:0003d7fc       TranslateName              000000018003e7fc f   libucrt:getqloc_downlevel.obj
 0001:0003ef44       memcpy_s                   000000018003ff44 f   libucrt:cfout.obj
 0001:0003ef44       memcpy_s                   000000018003ff44 f   libucrt:atof.obj
 0001:0003efcc       ??$translate_text_mode_nolock@_W@@YAHHQEA_W_K@Z 000000018003ffcc f   libucrt:read.obj
 0001:0003f1fc       ?translate_ansi_or_utf8_nolock@@YAHHQEAD_KQEA_W1@Z 00000001800401fc f   libucrt:read.obj
 0001:0003fa7c       ?GetTableIndexFromLocaleName@@YAHPEB_W@Z 0000000180040a7c f   libucrt:lcidtoname_downlevel.obj
 0001:0003fc5c       ??$common_getenv_nolock@D@@YAPEADQEBD@Z 0000000180040c5c f   libucrt:getenv.obj
 0001:0003fce4       ??$common_getenv_s@D@@YAHQEA_KQEAD_KQEBD@Z 0000000180040ce4 f   libucrt:getenv.obj
 0001:0003fec0       $$000000                   0000000180040ec0     libucrt:fpsr.obj
 0001:00040160       $$000000                   0000000180041160     libucrt:strncmp.obj
 0001:00040364       ??$common_sopen_dispatch@D@@YAHQEBDHHHQEAHH@Z 0000000180041364 f   libucrt:open.obj
 0001:00040444       ?configure_text_mode@@YAHHUfile_options@?A0xc3dee958@@HAEAW4__crt_lowio_text_mode@@@Z 0000000180041444 f   libucrt:open.obj
 0001:000406d8       ?decode_options@@YA?AUfile_options@?A0xc3dee958@@HHH@Z 00000001800416d8 f   libucrt:open.obj
 0001:000408e4       ?truncate_ctrl_z_if_present@@YAHH@Z 00000001800418e4 f   libucrt:open.obj
 0001:00040f20       ?initialize_multibyte@@YAHXZ 0000000180041f20 f   libucrt:multibyte_initializer.obj
 0001:000412a0       $$000000                   00000001800422a0     libucrt:log10.obj
 0001:000418f4       common_control87           00000001800428f4 f   libucrt:ieee.obj
 0001:00041f98       ?InternalCompareStringA@@YAHPEAU__crt_locale_pointers@@PEB_WKPEBDH2HH@Z 0000000180042f98 f   libucrt:comparestringa.obj
 0001:00042470       _log_special_common        0000000180043470 f   libucrt:log_special.obj
 0001:00042f10       $$000000                   0000000180043f10     libucrt:log.obj
 0001:00043440       $$000000                   0000000180044440     LIBCMT:_guard_dispatch_.obj
 0001:00043460       ?dtor$0@?0??NewInstance@Nan@@YA?AV?$MaybeLocal@VObject@v8@@@v8@@V?$Local@VObjectTemplate@v8@@@3@@Z@4HA 0000000180044460 f   index.obj
 0001:00043470       ?dtor$0@?0??New@?$Factory@VFunctionTemplate@v8@@@imp@Nan@@SA?AV?$Local@VFunctionTemplate@v8@@@v8@@P6AXAEBV?$FunctionCallbackInfo@VValue@v8@@@3@@ZV?$Local@VValue@v8@@@5@V?$Local@VSignature@v8@@@5@@Z@4HA 0000000180044470 f   index.obj
 0001:00043480       ?dtor$0@?0??_Getcat@?$ctype@D@std@@SA_KPEAPEBVfacet@locale@2@PEBV42@@Z@4HA 0000000180044480 f   nodejieba.obj
 0001:000434a0       ?dtor$2@?0??_Getcat@?$ctype@D@std@@SA_KPEAPEBVfacet@locale@2@PEBV42@@Z@4HA 00000001800444a0 f   nodejieba.obj
 0001:000434ac       ?dtor$3@?0??_Getcat@?$ctype@D@std@@SA_KPEAPEBVfacet@locale@2@PEBV42@@Z@4HA 00000001800444ac f   nodejieba.obj
 0001:000434bc       ?dtor$4@?0??_Getcat@?$ctype@D@std@@SA_KPEAPEBVfacet@locale@2@PEBV42@@Z@4HA 00000001800444bc f   nodejieba.obj
 0001:000434cc       ?dtor$5@?0??_Getcat@?$ctype@D@std@@SA_KPEAPEBVfacet@locale@2@PEBV42@@Z@4HA 00000001800444cc f   nodejieba.obj
 0001:000434dc       ?dtor$6@?0??_Getcat@?$ctype@D@std@@SA_KPEAPEBVfacet@locale@2@PEBV42@@Z@4HA 00000001800444dc f   nodejieba.obj
 0001:000434ec       ?dtor$7@?0??_Getcat@?$ctype@D@std@@SA_KPEAPEBVfacet@locale@2@PEBV42@@Z@4HA 00000001800444ec f   nodejieba.obj
 0001:000434fc       ?dtor$8@?0??_Getcat@?$ctype@D@std@@SA_KPEAPEBVfacet@locale@2@PEBV42@@Z@4HA 00000001800444fc f   nodejieba.obj
 0001:0004350c       ?dtor$9@?0??_Getcat@?$ctype@D@std@@SA_KPEAPEBVfacet@locale@2@PEBV42@@Z@4HA 000000018004450c f   nodejieba.obj
 0001:00043520       ?dtor$0@?0??_Makestr@_System_error@std@@CA?AV?$basic_string@DU?$char_traits@D@std@@V?$allocator@D@2@@2@Verror_code@2@V32@@Z@4HA 0000000180044520 f   nodejieba.obj
 0001:0004352c       ?dtor$1@?0??_Makestr@_System_error@std@@CA?AV?$basic_string@DU?$char_traits@D@std@@V?$allocator@D@2@@2@Verror_code@2@V32@@Z@4HA 000000018004452c f   nodejieba.obj
 0001:00043540       ?dtor$0@?0???0system_error@std@@QEAA@Verror_code@1@PEBD@Z@4HA 0000000180044540 f   nodejieba.obj
 0001:00043550       ?dtor$0@?0??clear@ios_base@std@@QEAAXH_N@Z@4HA 0000000180044550 f   nodejieba.obj
 0001:0004355c       ?dtor$1@?0??clear@ios_base@std@@QEAAXH_N@Z@4HA 000000018004455c f   nodejieba.obj
 0001:00043568       ?dtor$2@?0??clear@ios_base@std@@QEAAXH_N@Z@4HA 0000000180044568 f   nodejieba.obj
 0001:00043580       ?dtor$0@?0???0?$basic_streambuf@DU?$char_traits@D@std@@@std@@IEAA@XZ@4HA 0000000180044580 f   nodejieba.obj
 0001:00043580       ?dtor$0@?0??_Init@ios_base@std@@IEAAXXZ@4HA 0000000180044580 f   nodejieba.obj
 0001:000435a0       ?dtor$0@?0???0Logger@limonp@@QEAA@_KPEBDH@Z@4HA 00000001800445a0 f   nodejieba.obj
 0001:000435b0       ?dtor$0@?0??Split@limonp@@YAXAEBV?$basic_string@DU?$char_traits@D@std@@V?$allocator@D@2@@std@@AEAV?$vector@V?$basic_string@DU?$char_traits@D@std@@V?$allocator@D@2@@std@@V?$allocator@V?$basic_string@DU?$char_traits@D@std@@V?$allocator@D@2@@std@@@2@@3@0_K@Z@4HA 00000001800445b0 f   nodejieba.obj
 0001:000435bc       ?dtor$1@?0??Split@limonp@@YAXAEBV?$basic_string@DU?$char_traits@D@std@@V?$allocator@D@2@@std@@AEAV?$vector@V?$basic_string@DU?$char_traits@D@std@@V?$allocator@D@2@@std@@V?$allocator@V?$basic_string@DU?$char_traits@D@std@@V?$allocator@D@2@@std@@@2@@3@0_K@Z@4HA 00000001800445bc f   nodejieba.obj
 0001:000435c8       ?dtor$2@?0??Split@limonp@@YAXAEBV?$basic_string@DU?$char_traits@D@std@@V?$allocator@D@2@@std@@AEAV?$vector@V?$basic_string@DU?$char_traits@D@std@@V?$allocator@D@2@@std@@V?$allocator@V?$basic_string@DU?$char_traits@D@std@@V?$allocator@D@2@@std@@@2@@3@0_K@Z@4HA 00000001800445c8 f   nodejieba.obj
 0001:000435d4       ?dtor$3@?0??Split@limonp@@YAXAEBV?$basic_string@DU?$char_traits@D@std@@V?$allocator@D@2@@std@@AEAV?$vector@V?$basic_string@DU?$char_traits@D@std@@V?$allocator@D@2@@std@@V?$allocator@V?$basic_string@DU?$char_traits@D@std@@V?$allocator@D@2@@std@@@2@@3@0_K@Z@4HA 00000001800445d4 f   nodejieba.obj
 0001:000435f0       ?dtor$4@?0??Split@limonp@@YAXAEBV?$basic_string@DU?$char_traits@D@std@@V?$allocator@D@2@@std@@AEAV?$vector@V?$basic_string@DU?$char_traits@D@std@@V?$allocator@D@2@@std@@V?$allocator@V?$basic_string@DU?$char_traits@D@std@@V?$allocator@D@2@@std@@@2@@3@0_K@Z@4HA 00000001800445f0 f   nodejieba.obj
 0001:00043610       ?dtor$0@?0??Split@limonp@@YA?AV?$vector@V?$basic_string@DU?$char_traits@D@std@@V?$allocator@D@2@@std@@V?$allocator@V?$basic_string@DU?$char_traits@D@std@@V?$allocator@D@2@@std@@@2@@std@@AEBV?$basic_string@DU?$char_traits@D@std@@V?$allocator@D@2@@3@0_K@Z@4HA 0000000180044610 f   nodejieba.obj
 0001:00043640       ?dtor$0@?0??GetWordFromRunes@cppjieba@@YA?AUWord@1@AEBV?$basic_string@DU?$char_traits@D@std@@V?$allocator@D@2@@std@@PEBURuneStr@1@1@Z@4HA 0000000180044640 f   nodejieba.obj
 0001:00043650       ?dtor$0@?0??GetLine@HMMModel@cppjieba@@QEAA_NAEAV?$basic_ifstream@DU?$char_traits@D@std@@@std@@AEAV?$basic_string@DU?$char_traits@D@std@@V?$allocator@D@2@@4@@Z@4HA 0000000180044650 f   nodejieba.obj
 0001:00043650       ?dtor$0@?0??GetWordsFromWordRanges@cppjieba@@YAXAEBV?$basic_string@DU?$char_traits@D@std@@V?$allocator@D@2@@std@@AEBV?$vector@UWordRange@cppjieba@@V?$allocator@UWordRange@cppjieba@@@std@@@3@AEAV?$vector@UWord@cppjieba@@V?$allocator@UWord@cppjieba@@@std@@@3@@Z@4HA 0000000180044650 f   nodejieba.obj
 0001:00043660       ?dtor$0@?0??InsertNode@Trie@cppjieba@@QEAAXAEBV?$LocalVector@I@limonp@@PEBUDictUnit@2@@Z@4HA 0000000180044660 f   nodejieba.obj
 0001:00043680       ?dtor$0@?0???0DictTrie@cppjieba@@QEAA@AEBV?$basic_string@DU?$char_traits@D@std@@V?$allocator@D@2@@std@@0W4UserWordWeightOption@01@@Z@4HA 0000000180044680 f   nodejieba.obj
 0001:0004368c       ?dtor$1@?0???0DictTrie@cppjieba@@QEAA@AEBV?$basic_string@DU?$char_traits@D@std@@V?$allocator@D@2@@std@@0W4UserWordWeightOption@01@@Z@4HA 000000018004468c f   nodejieba.obj
 0001:0004369c       ?dtor$2@?0???0DictTrie@cppjieba@@QEAA@AEBV?$basic_string@DU?$char_traits@D@std@@V?$allocator@D@2@@std@@0W4UserWordWeightOption@01@@Z@4HA 000000018004469c f   nodejieba.obj
 0001:000436b0       ?dtor$0@?0???1DictTrie@cppjieba@@QEAA@XZ@4HA 00000001800446b0 f   nodejieba.obj
 0001:000436b5       ?dtor$1@?0???1DictTrie@cppjieba@@QEAA@XZ@4HA 00000001800446b5 f   nodejieba.obj
 0001:000436c0       ?dtor$0@?0??InsertUserWord@DictTrie@cppjieba@@QEAA_NAEBV?$basic_string@DU?$char_traits@D@std@@V?$allocator@D@2@@std@@0@Z@4HA 00000001800446c0 f   nodejieba.obj
 0001:000436cc       ?dtor$3@?0??InsertUserWord@DictTrie@cppjieba@@QEAA_NAEBV?$basic_string@DU?$char_traits@D@std@@V?$allocator@D@2@@std@@0@Z@4HA 00000001800446cc f   nodejieba.obj
 0001:000436e8       ?dtor$4@?0??InsertUserWord@DictTrie@cppjieba@@QEAA_NAEBV?$basic_string@DU?$char_traits@D@std@@V?$allocator@D@2@@std@@0@Z@4HA 00000001800446e8 f   nodejieba.obj
 0001:00043700       ?dtor$0@?0??CreateTrie@DictTrie@cppjieba@@AEAAXAEBV?$vector@UDictUnit@cppjieba@@V?$allocator@UDictUnit@cppjieba@@@std@@@std@@@Z@4HA 0000000180044700 f   nodejieba.obj
 0001:0004370c       ?dtor$1@?0??CreateTrie@DictTrie@cppjieba@@AEAAXAEBV?$vector@UDictUnit@cppjieba@@V?$allocator@UDictUnit@cppjieba@@@std@@@std@@@Z@4HA 000000018004470c f   nodejieba.obj
 0001:00043718       ?dtor$2@?0??CreateTrie@DictTrie@cppjieba@@AEAAXAEBV?$vector@UDictUnit@cppjieba@@V?$allocator@UDictUnit@cppjieba@@@std@@@std@@@Z@4HA 0000000180044718 f   nodejieba.obj
 0001:00043740       ?dtor$0@?0??LoadUserDict@DictTrie@cppjieba@@AEAAXAEBV?$basic_string@DU?$char_traits@D@std@@V?$allocator@D@2@@std@@@Z@4HA 0000000180044740 f   nodejieba.obj
 0001:0004374c       ?dtor$1@?0??LoadUserDict@DictTrie@cppjieba@@AEAAXAEBV?$basic_string@DU?$char_traits@D@std@@V?$allocator@D@2@@std@@@Z@4HA 000000018004474c f   nodejieba.obj
 0001:00043758       ?dtor$2@?0??LoadUserDict@DictTrie@cppjieba@@AEAAXAEBV?$basic_string@DU?$char_traits@D@std@@V?$allocator@D@2@@std@@@Z@4HA 0000000180044758 f   nodejieba.obj
 0001:00043764       ?dtor$10@?0??LoadUserDict@DictTrie@cppjieba@@AEAAXAEBV?$basic_string@DU?$char_traits@D@std@@V?$allocator@D@2@@std@@@Z@4HA 0000000180044764 f   nodejieba.obj
 0001:00043770       ?dtor$3@?0??LoadUserDict@DictTrie@cppjieba@@AEAAXAEBV?$basic_string@DU?$char_traits@D@std@@V?$allocator@D@2@@std@@@Z@4HA 0000000180044770 f   nodejieba.obj
 0001:0004377c       ?dtor$11@?0??LoadUserDict@DictTrie@cppjieba@@AEAAXAEBV?$basic_string@DU?$char_traits@D@std@@V?$allocator@D@2@@std@@@Z@4HA 000000018004477c f   nodejieba.obj
 0001:00043781       ?dtor$4@?0??LoadUserDict@DictTrie@cppjieba@@AEAAXAEBV?$basic_string@DU?$char_traits@D@std@@V?$allocator@D@2@@std@@@Z@4HA 0000000180044781 f   nodejieba.obj
 0001:0004378d       ?dtor$5@?0??LoadUserDict@DictTrie@cppjieba@@AEAAXAEBV?$basic_string@DU?$char_traits@D@std@@V?$allocator@D@2@@std@@@Z@4HA 000000018004478d f   nodejieba.obj
 0001:00043799       ?dtor$6@?0??LoadUserDict@DictTrie@cppjieba@@AEAAXAEBV?$basic_string@DU?$char_traits@D@std@@V?$allocator@D@2@@std@@@Z@4HA 0000000180044799 f   nodejieba.obj
 0001:000437a5       ?dtor$12@?0??LoadUserDict@DictTrie@cppjieba@@AEAAXAEBV?$basic_string@DU?$char_traits@D@std@@V?$allocator@D@2@@std@@@Z@4HA 00000001800447a5 f   nodejieba.obj
 0001:000437b1       ?dtor$7@?0??LoadUserDict@DictTrie@cppjieba@@AEAAXAEBV?$basic_string@DU?$char_traits@D@std@@V?$allocator@D@2@@std@@@Z@4HA 00000001800447b1 f   nodejieba.obj
 0001:000437bd       ?dtor$8@?0??LoadUserDict@DictTrie@cppjieba@@AEAAXAEBV?$basic_string@DU?$char_traits@D@std@@V?$allocator@D@2@@std@@@Z@4HA 00000001800447bd f   nodejieba.obj
 0001:000437c9       ?dtor$9@?0??LoadUserDict@DictTrie@cppjieba@@AEAAXAEBV?$basic_string@DU?$char_traits@D@std@@V?$allocator@D@2@@std@@@Z@4HA 00000001800447c9 f   nodejieba.obj
 0001:000437d5       ?dtor$13@?0??LoadUserDict@DictTrie@cppjieba@@AEAAXAEBV?$basic_string@DU?$char_traits@D@std@@V?$allocator@D@2@@std@@@Z@4HA 00000001800447d5 f   nodejieba.obj
 0001:000437f4       ?dtor$14@?0??LoadUserDict@DictTrie@cppjieba@@AEAAXAEBV?$basic_string@DU?$char_traits@D@std@@V?$allocator@D@2@@std@@@Z@4HA 00000001800447f4 f   nodejieba.obj
 0001:00043800       ?dtor$16@?0??LoadUserDict@DictTrie@cppjieba@@AEAAXAEBV?$basic_string@DU?$char_traits@D@std@@V?$allocator@D@2@@std@@@Z@4HA 0000000180044800 f   nodejieba.obj
 0001:0004381f       ?dtor$17@?0??LoadUserDict@DictTrie@cppjieba@@AEAAXAEBV?$basic_string@DU?$char_traits@D@std@@V?$allocator@D@2@@std@@@Z@4HA 000000018004481f f   nodejieba.obj
 0001:00043830       ?dtor$1@?0??MakeNodeInfo@DictTrie@cppjieba@@AEAA_NAEAUDictUnit@2@AEBV?$basic_string@DU?$char_traits@D@std@@V?$allocator@D@2@@std@@N1@Z@4HA 0000000180044830 f   nodejieba.obj
 0001:0004383c       ?dtor$0@?0??MakeNodeInfo@DictTrie@cppjieba@@AEAA_NAEAUDictUnit@2@AEBV?$basic_string@DU?$char_traits@D@std@@V?$allocator@D@2@@std@@N1@Z@4HA 000000018004483c f   nodejieba.obj
 0001:00043850       ?dtor$0@?0??LoadDict@DictTrie@cppjieba@@AEAAXAEBV?$basic_string@DU?$char_traits@D@std@@V?$allocator@D@2@@std@@@Z@4HA 0000000180044850 f   nodejieba.obj
 0001:0004385c       ?dtor$7@?0??LoadDict@DictTrie@cppjieba@@AEAAXAEBV?$basic_string@DU?$char_traits@D@std@@V?$allocator@D@2@@std@@@Z@4HA 000000018004485c f   nodejieba.obj
 0001:00043868       ?dtor$1@?0??LoadDict@DictTrie@cppjieba@@AEAAXAEBV?$basic_string@DU?$char_traits@D@std@@V?$allocator@D@2@@std@@@Z@4HA 0000000180044868 f   nodejieba.obj
 0001:00043874       ?dtor$2@?0??LoadDict@DictTrie@cppjieba@@AEAAXAEBV?$basic_string@DU?$char_traits@D@std@@V?$allocator@D@2@@std@@@Z@4HA 0000000180044874 f   nodejieba.obj
 0001:00043880       ?dtor$3@?0??LoadDict@DictTrie@cppjieba@@AEAAXAEBV?$basic_string@DU?$char_traits@D@std@@V?$allocator@D@2@@std@@@Z@4HA 0000000180044880 f   nodejieba.obj
 0001:0004388c       ?dtor$4@?0??LoadDict@DictTrie@cppjieba@@AEAAXAEBV?$basic_string@DU?$char_traits@D@std@@V?$allocator@D@2@@std@@@Z@4HA 000000018004488c f   nodejieba.obj
 0001:00043898       ?dtor$8@?0??LoadDict@DictTrie@cppjieba@@AEAAXAEBV?$basic_string@DU?$char_traits@D@std@@V?$allocator@D@2@@std@@@Z@4HA 0000000180044898 f   nodejieba.obj
 0001:000438a4       ?dtor$5@?0??LoadDict@DictTrie@cppjieba@@AEAAXAEBV?$basic_string@DU?$char_traits@D@std@@V?$allocator@D@2@@std@@@Z@4HA 00000001800448a4 f   nodejieba.obj
 0001:000438b0       ?dtor$9@?0??LoadDict@DictTrie@cppjieba@@AEAAXAEBV?$basic_string@DU?$char_traits@D@std@@V?$allocator@D@2@@std@@@Z@4HA 00000001800448b0 f   nodejieba.obj
 0001:000438bc       ?dtor$6@?0??LoadDict@DictTrie@cppjieba@@AEAAXAEBV?$basic_string@DU?$char_traits@D@std@@V?$allocator@D@2@@std@@@Z@4HA 00000001800448bc f   nodejieba.obj
 0001:000438c8       ?dtor$10@?0??LoadDict@DictTrie@cppjieba@@AEAAXAEBV?$basic_string@DU?$char_traits@D@std@@V?$allocator@D@2@@std@@@Z@4HA 00000001800448c8 f   nodejieba.obj
 0001:000438cd       ?dtor$11@?0??LoadDict@DictTrie@cppjieba@@AEAAXAEBV?$basic_string@DU?$char_traits@D@std@@V?$allocator@D@2@@std@@@Z@4HA 00000001800448cd f   nodejieba.obj
 0001:000438e9       ?dtor$12@?0??LoadDict@DictTrie@cppjieba@@AEAAXAEBV?$basic_string@DU?$char_traits@D@std@@V?$allocator@D@2@@std@@@Z@4HA 00000001800448e9 f   nodejieba.obj
 0001:000438f5       ?dtor$14@?0??LoadDict@DictTrie@cppjieba@@AEAAXAEBV?$basic_string@DU?$char_traits@D@std@@V?$allocator@D@2@@std@@@Z@4HA 00000001800448f5 f   nodejieba.obj
 0001:00043911       ?dtor$15@?0??LoadDict@DictTrie@cppjieba@@AEAAXAEBV?$basic_string@DU?$char_traits@D@std@@V?$allocator@D@2@@std@@@Z@4HA 0000000180044911 f   nodejieba.obj
 0001:00043920       ?dtor$2@?0??SetStaticWordWeights@DictTrie@cppjieba@@AEAAXW4UserWordWeightOption@12@@Z@4HA 0000000180044920 f   nodejieba.obj
 0001:0004392c       ?dtor$0@?0??SetStaticWordWeights@DictTrie@cppjieba@@AEAAXW4UserWordWeightOption@12@@Z@4HA 000000018004492c f   nodejieba.obj
 0001:00043938       ?dtor$1@?0??SetStaticWordWeights@DictTrie@cppjieba@@AEAAXW4UserWordWeightOption@12@@Z@4HA 0000000180044938 f   nodejieba.obj
 0001:00043950       ?dtor$0@?0???0PreFilter@cppjieba@@QEAA@AEBV?$unordered_set@IU?$hash@I@std@@U?$equal_to@I@2@V?$allocator@I@2@@std@@AEBV?$basic_string@DU?$char_traits@D@std@@V?$allocator@D@2@@3@@Z@4HA 0000000180044950 f   nodejieba.obj
 0001:00043960       ?dtor$2@?0???0PreFilter@cppjieba@@QEAA@AEBV?$unordered_set@IU?$hash@I@std@@U?$equal_to@I@2@V?$allocator@I@2@@std@@AEBV?$basic_string@DU?$char_traits@D@std@@V?$allocator@D@2@@3@@Z@4HA 0000000180044960 f   nodejieba.obj
 0001:0004396c       ?dtor$1@?0???0PreFilter@cppjieba@@QEAA@AEBV?$unordered_set@IU?$hash@I@std@@U?$equal_to@I@2@V?$allocator@I@2@@std@@AEBV?$basic_string@DU?$char_traits@D@std@@V?$allocator@D@2@@3@@Z@4HA 000000018004496c f   nodejieba.obj
 0001:00043980       ?dtor$0@?0???0SegmentBase@cppjieba@@QEAA@XZ@4HA 0000000180044980 f   nodejieba.obj
 0001:00043990       ?dtor$1@?0???0SegmentBase@cppjieba@@QEAA@XZ@4HA 0000000180044990 f   nodejieba.obj
 0001:0004399c       ?dtor$3@?0???0SegmentBase@cppjieba@@QEAA@XZ@4HA 000000018004499c f   nodejieba.obj
 0001:000439a8       ?dtor$2@?0???0SegmentBase@cppjieba@@QEAA@XZ@4HA 00000001800449a8 f   nodejieba.obj
 0001:000439c0       ?dtor$0@?0??ResetSeparators@SegmentBase@cppjieba@@QEAA_NAEBV?$basic_string@DU?$char_traits@D@std@@V?$allocator@D@2@@std@@@Z@4HA 00000001800449c0 f   nodejieba.obj
 0001:000439cc       ?dtor$4@?0??ResetSeparators@SegmentBase@cppjieba@@QEAA_NAEBV?$basic_string@DU?$char_traits@D@std@@V?$allocator@D@2@@std@@@Z@4HA 00000001800449cc f   nodejieba.obj
 0001:000439d8       ?dtor$1@?0??ResetSeparators@SegmentBase@cppjieba@@QEAA_NAEBV?$basic_string@DU?$char_traits@D@std@@V?$allocator@D@2@@std@@@Z@4HA 00000001800449d8 f   nodejieba.obj
 0001:000439e4       ?dtor$2@?0??ResetSeparators@SegmentBase@cppjieba@@QEAA_NAEBV?$basic_string@DU?$char_traits@D@std@@V?$allocator@D@2@@std@@@Z@4HA 00000001800449e4 f   nodejieba.obj
 0001:000439f0       ?dtor$6@?0??ResetSeparators@SegmentBase@cppjieba@@QEAA_NAEBV?$basic_string@DU?$char_traits@D@std@@V?$allocator@D@2@@std@@@Z@4HA 00000001800449f0 f   nodejieba.obj
 0001:000439fc       ?dtor$3@?0??ResetSeparators@SegmentBase@cppjieba@@QEAA_NAEBV?$basic_string@DU?$char_traits@D@std@@V?$allocator@D@2@@std@@@Z@4HA 00000001800449fc f   nodejieba.obj
 0001:00043a10       ?dtor$0@?0??Cut@HMMSegment@cppjieba@@UEBAXAEBV?$basic_string@DU?$char_traits@D@std@@V?$allocator@D@2@@std@@AEAV?$vector@V?$basic_string@DU?$char_traits@D@std@@V?$allocator@D@2@@std@@V?$allocator@V?$basic_string@DU?$char_traits@D@std@@V?$allocator@D@2@@std@@@2@@4@@Z@4HA 0000000180044a10 f   nodejieba.obj
 0001:00043a10       ?dtor$0@?0??Cut@MPSegment@cppjieba@@QEBAXAEBV?$basic_string@DU?$char_traits@D@std@@V?$allocator@D@2@@std@@AEAV?$vector@V?$basic_string@DU?$char_traits@D@std@@V?$allocator@D@2@@std@@V?$allocator@V?$basic_string@DU?$char_traits@D@std@@V?$allocator@D@2@@std@@@2@@4@_K@Z@4HA 0000000180044a10 f   nodejieba.obj
 0001:00043a10       ?dtor$0@?0??Cut@FullSegment@cppjieba@@UEBAXAEBV?$basic_string@DU?$char_traits@D@std@@V?$allocator@D@2@@std@@AEAV?$vector@V?$basic_string@DU?$char_traits@D@std@@V?$allocator@D@2@@std@@V?$allocator@V?$basic_string@DU?$char_traits@D@std@@V?$allocator@D@2@@std@@@2@@4@@Z@4HA 0000000180044a10 f   nodejieba.obj
 0001:00043a10       ?dtor$0@?0??Cut@QuerySegment@cppjieba@@QEBAXAEBV?$basic_string@DU?$char_traits@D@std@@V?$allocator@D@2@@std@@AEAV?$vector@V?$basic_string@DU?$char_traits@D@std@@V?$allocator@D@2@@std@@V?$allocator@V?$basic_string@DU?$char_traits@D@std@@V?$allocator@D@2@@std@@@2@@4@_N@Z@4HA 0000000180044a10 f   nodejieba.obj
 0001:00043a10       ?dtor$0@?0??Cut@MixSegment@cppjieba@@QEBAXAEBV?$basic_string@DU?$char_traits@D@std@@V?$allocator@D@2@@std@@AEAV?$vector@V?$basic_string@DU?$char_traits@D@std@@V?$allocator@D@2@@std@@V?$allocator@V?$basic_string@DU?$char_traits@D@std@@V?$allocator@D@2@@std@@@2@@4@_N@Z@4HA 0000000180044a10 f   nodejieba.obj
 0001:00043a20       ?dtor$0@?0??Cut@HMMSegment@cppjieba@@QEBAXAEBV?$basic_string@DU?$char_traits@D@std@@V?$allocator@D@2@@std@@AEAV?$vector@UWord@cppjieba@@V?$allocator@UWord@cppjieba@@@std@@@4@@Z@4HA 0000000180044a20 f   nodejieba.obj
 0001:00043a20       ?dtor$0@?0??Cut@FullSegment@cppjieba@@QEBAXAEBV?$basic_string@DU?$char_traits@D@std@@V?$allocator@D@2@@std@@AEAV?$vector@UWord@cppjieba@@V?$allocator@UWord@cppjieba@@@std@@@4@@Z@4HA 0000000180044a20 f   nodejieba.obj
 0001:00043a2c       ?dtor$1@?0??Cut@FullSegment@cppjieba@@QEBAXAEBV?$basic_string@DU?$char_traits@D@std@@V?$allocator@D@2@@std@@AEAV?$vector@UWord@cppjieba@@V?$allocator@UWord@cppjieba@@@std@@@4@@Z@4HA 0000000180044a2c f   nodejieba.obj
 0001:00043a2c       ?dtor$1@?0??Cut@HMMSegment@cppjieba@@QEBAXAEBV?$basic_string@DU?$char_traits@D@std@@V?$allocator@D@2@@std@@AEAV?$vector@UWord@cppjieba@@V?$allocator@UWord@cppjieba@@@std@@@4@@Z@4HA 0000000180044a2c f   nodejieba.obj
 0001:00043a40       ?dtor$0@?0??Cut@FullSegment@cppjieba@@QEBAXPEBURuneStr@2@0AEAV?$vector@UWordRange@cppjieba@@V?$allocator@UWordRange@cppjieba@@@std@@@std@@@Z@4HA 0000000180044a40 f   nodejieba.obj
 0001:00043a4c       ?dtor$1@?0??Cut@FullSegment@cppjieba@@QEBAXPEBURuneStr@2@0AEAV?$vector@UWordRange@cppjieba@@V?$allocator@UWordRange@cppjieba@@@std@@@std@@@Z@4HA 0000000180044a4c f   nodejieba.obj
 0001:00043a60       ?dtor$0@?0??Tag@PosTagger@cppjieba@@QEBA_NAEBV?$basic_string@DU?$char_traits@D@std@@V?$allocator@D@2@@std@@AEAV?$vector@U?$pair@V?$basic_string@DU?$char_traits@D@std@@V?$allocator@D@2@@std@@V12@@std@@V?$allocator@U?$pair@V?$basic_string@DU?$char_traits@D@std@@V?$allocator@D@2@@std@@V12@@std@@@2@@4@AEBVSegmentTagged@2@@Z@4HA 0000000180044a60 f   nodejieba.obj
 0001:00043a6c       ?dtor$1@?0??Tag@PosTagger@cppjieba@@QEBA_NAEBV?$basic_string@DU?$char_traits@D@std@@V?$allocator@D@2@@std@@AEAV?$vector@U?$pair@V?$basic_string@DU?$char_traits@D@std@@V?$allocator@D@2@@std@@V12@@std@@V?$allocator@U?$pair@V?$basic_string@DU?$char_traits@D@std@@V?$allocator@D@2@@std@@V12@@std@@@2@@4@AEBVSegmentTagged@2@@Z@4HA 0000000180044a6c f   nodejieba.obj
 0001:00043a78       ?dtor$2@?0??Tag@PosTagger@cppjieba@@QEBA_NAEBV?$basic_string@DU?$char_traits@D@std@@V?$allocator@D@2@@std@@AEAV?$vector@U?$pair@V?$basic_string@DU?$char_traits@D@std@@V?$allocator@D@2@@std@@V12@@std@@V?$allocator@U?$pair@V?$basic_string@DU?$char_traits@D@std@@V?$allocator@D@2@@std@@V12@@std@@@2@@4@AEBVSegmentTagged@2@@Z@4HA 0000000180044a78 f   nodejieba.obj
 0001:00043a90       ?dtor$0@?0??LookupTag@PosTagger@cppjieba@@QEBA?AV?$basic_string@DU?$char_traits@D@std@@V?$allocator@D@2@@std@@AEBV34@AEBVSegmentTagged@2@@Z@4HA 0000000180044a90 f   nodejieba.obj
 0001:00043a9c       ?dtor$3@?0??LookupTag@PosTagger@cppjieba@@QEBA?AV?$basic_string@DU?$char_traits@D@std@@V?$allocator@D@2@@std@@AEBV34@AEBVSegmentTagged@2@@Z@4HA 0000000180044a9c f   nodejieba.obj
 0001:00043aa8       ?dtor$1@?0??LookupTag@PosTagger@cppjieba@@QEBA?AV?$basic_string@DU?$char_traits@D@std@@V?$allocator@D@2@@std@@AEBV34@AEBVSegmentTagged@2@@Z@4HA 0000000180044aa8 f   nodejieba.obj
 0001:00043ac0       ?dtor$0@?0??Cut@MPSegment@cppjieba@@QEBAXAEBV?$basic_string@DU?$char_traits@D@std@@V?$allocator@D@2@@std@@AEAV?$vector@UWord@cppjieba@@V?$allocator@UWord@cppjieba@@@std@@@4@_K@Z@4HA 0000000180044ac0 f   nodejieba.obj
 0001:00043acc       ?dtor$1@?0??Cut@MPSegment@cppjieba@@QEBAXAEBV?$basic_string@DU?$char_traits@D@std@@V?$allocator@D@2@@std@@AEAV?$vector@UWord@cppjieba@@V?$allocator@UWord@cppjieba@@@std@@@4@_K@Z@4HA 0000000180044acc f   nodejieba.obj
 0001:00043ad8       ?dtor$2@?0??Cut@MPSegment@cppjieba@@QEBAXAEBV?$basic_string@DU?$char_traits@D@std@@V?$allocator@D@2@@std@@AEAV?$vector@UWord@cppjieba@@V?$allocator@UWord@cppjieba@@@std@@@4@_K@Z@4HA 0000000180044ad8 f   nodejieba.obj
 0001:00043af0       ?dtor$0@?0??Cut@MPSegment@cppjieba@@QEBAXPEBURuneStr@2@0AEAV?$vector@UWordRange@cppjieba@@V?$allocator@UWordRange@cppjieba@@@std@@@std@@_K@Z@4HA 0000000180044af0 f   nodejieba.obj
 0001:00043b00       ?dtor$0@?0???0HMMModel@cppjieba@@QEAA@AEBV?$basic_string@DU?$char_traits@D@std@@V?$allocator@D@2@@std@@@Z@4HA 0000000180044b00 f   nodejieba.obj
 0001:00043b13       ?dtor$1@?0???0HMMModel@cppjieba@@QEAA@AEBV?$basic_string@DU?$char_traits@D@std@@V?$allocator@D@2@@std@@@Z@4HA 0000000180044b13 f   nodejieba.obj
 0001:00043b26       ?dtor$2@?0???0HMMModel@cppjieba@@QEAA@AEBV?$basic_string@DU?$char_traits@D@std@@V?$allocator@D@2@@std@@@Z@4HA 0000000180044b26 f   nodejieba.obj
 0001:00043b39       ?dtor$3@?0???0HMMModel@cppjieba@@QEAA@AEBV?$basic_string@DU?$char_traits@D@std@@V?$allocator@D@2@@std@@@Z@4HA 0000000180044b39 f   nodejieba.obj
 0001:00043b4c       ?dtor$4@?0???0HMMModel@cppjieba@@QEAA@AEBV?$basic_string@DU?$char_traits@D@std@@V?$allocator@D@2@@std@@@Z@4HA 0000000180044b4c f   nodejieba.obj
 0001:00043b60       ?dtor$0@?0??LoadModel@HMMModel@cppjieba@@QEAAXAEBV?$basic_string@DU?$char_traits@D@std@@V?$allocator@D@2@@std@@@Z@4HA 0000000180044b60 f   nodejieba.obj
 0001:00043b6c       ?dtor$19@?0??LoadModel@HMMModel@cppjieba@@QEAAXAEBV?$basic_string@DU?$char_traits@D@std@@V?$allocator@D@2@@std@@@Z@4HA 0000000180044b6c f   nodejieba.obj
 0001:00043b78       ?dtor$1@?0??LoadModel@HMMModel@cppjieba@@QEAAXAEBV?$basic_string@DU?$char_traits@D@std@@V?$allocator@D@2@@std@@@Z@4HA 0000000180044b78 f   nodejieba.obj
 0001:00043b84       ?dtor$2@?0??LoadModel@HMMModel@cppjieba@@QEAAXAEBV?$basic_string@DU?$char_traits@D@std@@V?$allocator@D@2@@std@@@Z@4HA 0000000180044b84 f   nodejieba.obj
 0001:00043b90       ?dtor$3@?0??LoadModel@HMMModel@cppjieba@@QEAAXAEBV?$basic_string@DU?$char_traits@D@std@@V?$allocator@D@2@@std@@@Z@4HA 0000000180044b90 f   nodejieba.obj
 0001:00043b9c       ?dtor$4@?0??LoadModel@HMMModel@cppjieba@@QEAAXAEBV?$basic_string@DU?$char_traits@D@std@@V?$allocator@D@2@@std@@@Z@4HA 0000000180044b9c f   nodejieba.obj
 0001:00043ba8       ?dtor$20@?0??LoadModel@HMMModel@cppjieba@@QEAAXAEBV?$basic_string@DU?$char_traits@D@std@@V?$allocator@D@2@@std@@@Z@4HA 0000000180044ba8 f   nodejieba.obj
 0001:00043bb4       ?dtor$5@?0??LoadModel@HMMModel@cppjieba@@QEAAXAEBV?$basic_string@DU?$char_traits@D@std@@V?$allocator@D@2@@std@@@Z@4HA 0000000180044bb4 f   nodejieba.obj
 0001:00043bc0       ?dtor$6@?0??LoadModel@HMMModel@cppjieba@@QEAAXAEBV?$basic_string@DU?$char_traits@D@std@@V?$allocator@D@2@@std@@@Z@4HA 0000000180044bc0 f   nodejieba.obj
 0001:00043bcc       ?dtor$21@?0??LoadModel@HMMModel@cppjieba@@QEAAXAEBV?$basic_string@DU?$char_traits@D@std@@V?$allocator@D@2@@std@@@Z@4HA 0000000180044bcc f   nodejieba.obj
 0001:00043bd8       ?dtor$7@?0??LoadModel@HMMModel@cppjieba@@QEAAXAEBV?$basic_string@DU?$char_traits@D@std@@V?$allocator@D@2@@std@@@Z@4HA 0000000180044bd8 f   nodejieba.obj
 0001:00043be4       ?dtor$22@?0??LoadModel@HMMModel@cppjieba@@QEAAXAEBV?$basic_string@DU?$char_traits@D@std@@V?$allocator@D@2@@std@@@Z@4HA 0000000180044be4 f   nodejieba.obj
 0001:00043bf0       ?dtor$8@?0??LoadModel@HMMModel@cppjieba@@QEAAXAEBV?$basic_string@DU?$char_traits@D@std@@V?$allocator@D@2@@std@@@Z@4HA 0000000180044bf0 f   nodejieba.obj
 0001:00043bfc       ?dtor$23@?0??LoadModel@HMMModel@cppjieba@@QEAAXAEBV?$basic_string@DU?$char_traits@D@std@@V?$allocator@D@2@@std@@@Z@4HA 0000000180044bfc f   nodejieba.obj
 0001:00043c01       ?dtor$9@?0??LoadModel@HMMModel@cppjieba@@QEAAXAEBV?$basic_string@DU?$char_traits@D@std@@V?$allocator@D@2@@std@@@Z@4HA 0000000180044c01 f   nodejieba.obj
 0001:00043c0d       ?dtor$24@?0??LoadModel@HMMModel@cppjieba@@QEAAXAEBV?$basic_string@DU?$char_traits@D@std@@V?$allocator@D@2@@std@@@Z@4HA 0000000180044c0d f   nodejieba.obj
 0001:00043c19       ?dtor$10@?0??LoadModel@HMMModel@cppjieba@@QEAAXAEBV?$basic_string@DU?$char_traits@D@std@@V?$allocator@D@2@@std@@@Z@4HA 0000000180044c19 f   nodejieba.obj
 0001:00043c25       ?dtor$25@?0??LoadModel@HMMModel@cppjieba@@QEAAXAEBV?$basic_string@DU?$char_traits@D@std@@V?$allocator@D@2@@std@@@Z@4HA 0000000180044c25 f   nodejieba.obj
 0001:00043c2a       ?dtor$26@?0??LoadModel@HMMModel@cppjieba@@QEAAXAEBV?$basic_string@DU?$char_traits@D@std@@V?$allocator@D@2@@std@@@Z@4HA 0000000180044c2a f   nodejieba.obj
 0001:00043c36       ?dtor$11@?0??LoadModel@HMMModel@cppjieba@@QEAAXAEBV?$basic_string@DU?$char_traits@D@std@@V?$allocator@D@2@@std@@@Z@4HA 0000000180044c36 f   nodejieba.obj
 0001:00043c42       ?dtor$27@?0??LoadModel@HMMModel@cppjieba@@QEAAXAEBV?$basic_string@DU?$char_traits@D@std@@V?$allocator@D@2@@std@@@Z@4HA 0000000180044c42 f   nodejieba.obj
 0001:00043c47       ?dtor$28@?0??LoadModel@HMMModel@cppjieba@@QEAAXAEBV?$basic_string@DU?$char_traits@D@std@@V?$allocator@D@2@@std@@@Z@4HA 0000000180044c47 f   nodejieba.obj
 0001:00043c53       ?dtor$12@?0??LoadModel@HMMModel@cppjieba@@QEAAXAEBV?$basic_string@DU?$char_traits@D@std@@V?$allocator@D@2@@std@@@Z@4HA 0000000180044c53 f   nodejieba.obj
 0001:00043c5f       ?dtor$29@?0??LoadModel@HMMModel@cppjieba@@QEAAXAEBV?$basic_string@DU?$char_traits@D@std@@V?$allocator@D@2@@std@@@Z@4HA 0000000180044c5f f   nodejieba.obj
 0001:00043c64       ?dtor$30@?0??LoadModel@HMMModel@cppjieba@@QEAAXAEBV?$basic_string@DU?$char_traits@D@std@@V?$allocator@D@2@@std@@@Z@4HA 0000000180044c64 f   nodejieba.obj
 0001:00043c70       ?dtor$13@?0??LoadModel@HMMModel@cppjieba@@QEAAXAEBV?$basic_string@DU?$char_traits@D@std@@V?$allocator@D@2@@std@@@Z@4HA 0000000180044c70 f   nodejieba.obj
 0001:00043c7c       ?dtor$31@?0??LoadModel@HMMModel@cppjieba@@QEAAXAEBV?$basic_string@DU?$char_traits@D@std@@V?$allocator@D@2@@std@@@Z@4HA 0000000180044c7c f   nodejieba.obj
 0001:00043c81       ?dtor$32@?0??LoadModel@HMMModel@cppjieba@@QEAAXAEBV?$basic_string@DU?$char_traits@D@std@@V?$allocator@D@2@@std@@@Z@4HA 0000000180044c81 f   nodejieba.obj
 0001:00043c8d       ?dtor$14@?0??LoadModel@HMMModel@cppjieba@@QEAAXAEBV?$basic_string@DU?$char_traits@D@std@@V?$allocator@D@2@@std@@@Z@4HA 0000000180044c8d f   nodejieba.obj
 0001:00043c99       ?dtor$33@?0??LoadModel@HMMModel@cppjieba@@QEAAXAEBV?$basic_string@DU?$char_traits@D@std@@V?$allocator@D@2@@std@@@Z@4HA 0000000180044c99 f   nodejieba.obj
 0001:00043c9e       ?dtor$34@?0??LoadModel@HMMModel@cppjieba@@QEAAXAEBV?$basic_string@DU?$char_traits@D@std@@V?$allocator@D@2@@std@@@Z@4HA 0000000180044c9e f   nodejieba.obj
 0001:00043caa       ?dtor$15@?0??LoadModel@HMMModel@cppjieba@@QEAAXAEBV?$basic_string@DU?$char_traits@D@std@@V?$allocator@D@2@@std@@@Z@4HA 0000000180044caa f   nodejieba.obj
 0001:00043cb6       ?dtor$35@?0??LoadModel@HMMModel@cppjieba@@QEAAXAEBV?$basic_string@DU?$char_traits@D@std@@V?$allocator@D@2@@std@@@Z@4HA 0000000180044cb6 f   nodejieba.obj
 0001:00043cbb       ?dtor$36@?0??LoadModel@HMMModel@cppjieba@@QEAAXAEBV?$basic_string@DU?$char_traits@D@std@@V?$allocator@D@2@@std@@@Z@4HA 0000000180044cbb f   nodejieba.obj
 0001:00043cc7       ?dtor$16@?0??LoadModel@HMMModel@cppjieba@@QEAAXAEBV?$basic_string@DU?$char_traits@D@std@@V?$allocator@D@2@@std@@@Z@4HA 0000000180044cc7 f   nodejieba.obj
 0001:00043cd3       ?dtor$37@?0??LoadModel@HMMModel@cppjieba@@QEAAXAEBV?$basic_string@DU?$char_traits@D@std@@V?$allocator@D@2@@std@@@Z@4HA 0000000180044cd3 f   nodejieba.obj
 0001:00043cd8       ?dtor$17@?0??LoadModel@HMMModel@cppjieba@@QEAAXAEBV?$basic_string@DU?$char_traits@D@std@@V?$allocator@D@2@@std@@@Z@4HA 0000000180044cd8 f   nodejieba.obj
 0001:00043ce4       ?dtor$18@?0??LoadModel@HMMModel@cppjieba@@QEAAXAEBV?$basic_string@DU?$char_traits@D@std@@V?$allocator@D@2@@std@@@Z@4HA 0000000180044ce4 f   nodejieba.obj
 0001:00043cf0       ?dtor$0@?0??LoadEmitProb@HMMModel@cppjieba@@QEAA_NAEBV?$basic_string@DU?$char_traits@D@std@@V?$allocator@D@2@@std@@AEAV?$unordered_map@INU?$hash@I@std@@U?$equal_to@I@2@V?$allocator@U?$pair@$$CBIN@std@@@2@@4@@Z@4HA 0000000180044cf0 f   nodejieba.obj
 0001:00043cfc       ?dtor$1@?0??LoadEmitProb@HMMModel@cppjieba@@QEAA_NAEBV?$basic_string@DU?$char_traits@D@std@@V?$allocator@D@2@@std@@AEAV?$unordered_map@INU?$hash@I@std@@U?$equal_to@I@2@V?$allocator@U?$pair@$$CBIN@std@@@2@@4@@Z@4HA 0000000180044cfc f   nodejieba.obj
 0001:00043d08       ?dtor$2@?0??LoadEmitProb@HMMModel@cppjieba@@QEAA_NAEBV?$basic_string@DU?$char_traits@D@std@@V?$allocator@D@2@@std@@AEAV?$unordered_map@INU?$hash@I@std@@U?$equal_to@I@2@V?$allocator@U?$pair@$$CBIN@std@@@2@@4@@Z@4HA 0000000180044d08 f   nodejieba.obj
 0001:00043d14       ?dtor$3@?0??LoadEmitProb@HMMModel@cppjieba@@QEAA_NAEBV?$basic_string@DU?$char_traits@D@std@@V?$allocator@D@2@@std@@AEAV?$unordered_map@INU?$hash@I@std@@U?$equal_to@I@2@V?$allocator@U?$pair@$$CBIN@std@@@2@@4@@Z@4HA 0000000180044d14 f   nodejieba.obj
 0001:00043d20       ?dtor$4@?0??LoadEmitProb@HMMModel@cppjieba@@QEAA_NAEBV?$basic_string@DU?$char_traits@D@std@@V?$allocator@D@2@@std@@AEAV?$unordered_map@INU?$hash@I@std@@U?$equal_to@I@2@V?$allocator@U?$pair@$$CBIN@std@@@2@@4@@Z@4HA 0000000180044d20 f   nodejieba.obj
 0001:00043d2c       ?dtor$7@?0??LoadEmitProb@HMMModel@cppjieba@@QEAA_NAEBV?$basic_string@DU?$char_traits@D@std@@V?$allocator@D@2@@std@@AEAV?$unordered_map@INU?$hash@I@std@@U?$equal_to@I@2@V?$allocator@U?$pair@$$CBIN@std@@@2@@4@@Z@4HA 0000000180044d2c f   nodejieba.obj
 0001:00043d38       ?dtor$5@?0??LoadEmitProb@HMMModel@cppjieba@@QEAA_NAEBV?$basic_string@DU?$char_traits@D@std@@V?$allocator@D@2@@std@@AEAV?$unordered_map@INU?$hash@I@std@@U?$equal_to@I@2@V?$allocator@U?$pair@$$CBIN@std@@@2@@4@@Z@4HA 0000000180044d38 f   nodejieba.obj
 0001:00043d44       ?dtor$9@?0??LoadEmitProb@HMMModel@cppjieba@@QEAA_NAEBV?$basic_string@DU?$char_traits@D@std@@V?$allocator@D@2@@std@@AEAV?$unordered_map@INU?$hash@I@std@@U?$equal_to@I@2@V?$allocator@U?$pair@$$CBIN@std@@@2@@4@@Z@4HA 0000000180044d44 f   nodejieba.obj
 0001:00043d50       ?dtor$6@?0??LoadEmitProb@HMMModel@cppjieba@@QEAA_NAEBV?$basic_string@DU?$char_traits@D@std@@V?$allocator@D@2@@std@@AEAV?$unordered_map@INU?$hash@I@std@@U?$equal_to@I@2@V?$allocator@U?$pair@$$CBIN@std@@@2@@4@@Z@4HA 0000000180044d50 f   nodejieba.obj
 0001:00043d60       ?dtor$0@?0??InternalCut@HMMSegment@cppjieba@@AEBAXPEBURuneStr@2@0AEAV?$vector@UWordRange@cppjieba@@V?$allocator@UWordRange@cppjieba@@@std@@@std@@@Z@4HA 0000000180044d60 f   nodejieba.obj
 0001:00043d70       ?dtor$0@?0??Viterbi@HMMSegment@cppjieba@@AEBAXPEBURuneStr@2@0AEAV?$vector@_KV?$allocator@_K@std@@@std@@@Z@4HA 0000000180044d70 f   nodejieba.obj
 0001:00043d7c       ?dtor$1@?0??Viterbi@HMMSegment@cppjieba@@AEBAXPEBURuneStr@2@0AEAV?$vector@_KV?$allocator@_K@std@@@std@@@Z@4HA 0000000180044d7c f   nodejieba.obj
 0001:00043d90       ?dtor$0@?0???0MixSegment@cppjieba@@QEAA@PEBVDictTrie@1@PEBUHMMModel@1@@Z@4HA 0000000180044d90 f   nodejieba.obj
 0001:00043d9c       ?dtor$1@?0???0MixSegment@cppjieba@@QEAA@PEBVDictTrie@1@PEBUHMMModel@1@@Z@4HA 0000000180044d9c f   nodejieba.obj
 0001:00043db0       ?dtor$0@?0??Cut@QuerySegment@cppjieba@@QEBAXAEBV?$basic_string@DU?$char_traits@D@std@@V?$allocator@D@2@@std@@AEAV?$vector@UWord@cppjieba@@V?$allocator@UWord@cppjieba@@@std@@@4@_N@Z@4HA 0000000180044db0 f   nodejieba.obj
 0001:00043db0       ?dtor$0@?0??Cut@MixSegment@cppjieba@@QEBAXAEBV?$basic_string@DU?$char_traits@D@std@@V?$allocator@D@2@@std@@AEAV?$vector@UWord@cppjieba@@V?$allocator@UWord@cppjieba@@@std@@@4@_N@Z@4HA 0000000180044db0 f   nodejieba.obj
 0001:00043dbc       ?dtor$1@?0??Cut@QuerySegment@cppjieba@@QEBAXAEBV?$basic_string@DU?$char_traits@D@std@@V?$allocator@D@2@@std@@AEAV?$vector@UWord@cppjieba@@V?$allocator@UWord@cppjieba@@@std@@@4@_N@Z@4HA 0000000180044dbc f   nodejieba.obj
 0001:00043dbc       ?dtor$1@?0??Cut@MixSegment@cppjieba@@QEBAXAEBV?$basic_string@DU?$char_traits@D@std@@V?$allocator@D@2@@std@@AEAV?$vector@UWord@cppjieba@@V?$allocator@UWord@cppjieba@@@std@@@4@_N@Z@4HA 0000000180044dbc f   nodejieba.obj
 0001:00043dd0       ?dtor$0@?0??Cut@MixSegment@cppjieba@@QEBAXPEBURuneStr@2@0AEAV?$vector@UWordRange@cppjieba@@V?$allocator@UWordRange@cppjieba@@@std@@@std@@_N@Z@4HA 0000000180044dd0 f   nodejieba.obj
 0001:00043ddc       ?dtor$2@?0??Cut@MixSegment@cppjieba@@QEBAXPEBURuneStr@2@0AEAV?$vector@UWordRange@cppjieba@@V?$allocator@UWordRange@cppjieba@@@std@@@std@@_N@Z@4HA 0000000180044ddc f   nodejieba.obj
 0001:00043de8       ?dtor$1@?0??Cut@MixSegment@cppjieba@@QEBAXPEBURuneStr@2@0AEAV?$vector@UWordRange@cppjieba@@V?$allocator@UWordRange@cppjieba@@@std@@@std@@_N@Z@4HA 0000000180044de8 f   nodejieba.obj
 0001:00043e00       ?dtor$0@?0??Cut@QuerySegment@cppjieba@@QEBAXPEBURuneStr@2@0AEAV?$vector@UWordRange@cppjieba@@V?$allocator@UWordRange@cppjieba@@@std@@@std@@_N@Z@4HA 0000000180044e00 f   nodejieba.obj
 0001:00043e0c       ?dtor$1@?0??Cut@QuerySegment@cppjieba@@QEBAXPEBURuneStr@2@0AEAV?$vector@UWordRange@cppjieba@@V?$allocator@UWordRange@cppjieba@@@std@@@std@@_N@Z@4HA 0000000180044e0c f   nodejieba.obj
 0001:00043e20       ?dtor$0@?0???0Jieba@cppjieba@@QEAA@AEBV?$basic_string@DU?$char_traits@D@std@@V?$allocator@D@2@@std@@00@Z@4HA 0000000180044e20 f   nodejieba.obj
 0001:00043e2c       ?dtor$1@?0???0Jieba@cppjieba@@QEAA@AEBV?$basic_string@DU?$char_traits@D@std@@V?$allocator@D@2@@std@@00@Z@4HA 0000000180044e2c f   nodejieba.obj
 0001:00043e3f       ?dtor$2@?0???0Jieba@cppjieba@@QEAA@AEBV?$basic_string@DU?$char_traits@D@std@@V?$allocator@D@2@@std@@00@Z@4HA 0000000180044e3f f   nodejieba.obj
 0001:00043e52       ?dtor$3@?0???0Jieba@cppjieba@@QEAA@AEBV?$basic_string@DU?$char_traits@D@std@@V?$allocator@D@2@@std@@00@Z@4HA 0000000180044e52 f   nodejieba.obj
 0001:00043e65       ?dtor$4@?0???0Jieba@cppjieba@@QEAA@AEBV?$basic_string@DU?$char_traits@D@std@@V?$allocator@D@2@@std@@00@Z@4HA 0000000180044e65 f   nodejieba.obj
 0001:00043e78       ?dtor$5@?0???0Jieba@cppjieba@@QEAA@AEBV?$basic_string@DU?$char_traits@D@std@@V?$allocator@D@2@@std@@00@Z@4HA 0000000180044e78 f   nodejieba.obj
 0001:00043e8b       ?dtor$11@?0???0Jieba@cppjieba@@QEAA@AEBV?$basic_string@DU?$char_traits@D@std@@V?$allocator@D@2@@std@@00@Z@4HA 0000000180044e8b f   nodejieba.obj
 0001:00043ea0       ?dtor$0@?0??Extract@KeywordExtractor@cppjieba@@QEBAXAEBV?$basic_string@DU?$char_traits@D@std@@V?$allocator@D@2@@std@@AEAV?$vector@U?$pair@V?$basic_string@DU?$char_traits@D@std@@V?$allocator@D@2@@std@@N@std@@V?$allocator@U?$pair@V?$basic_string@DU?$char_traits@D@std@@V?$allocator@D@2@@std@@N@std@@@2@@4@_K@Z@4HA 0000000180044ea0 f   nodejieba.obj
 0001:00043eac       ?dtor$1@?0??Extract@KeywordExtractor@cppjieba@@QEBAXAEBV?$basic_string@DU?$char_traits@D@std@@V?$allocator@D@2@@std@@AEAV?$vector@U?$pair@V?$basic_string@DU?$char_traits@D@std@@V?$allocator@D@2@@std@@N@std@@V?$allocator@U?$pair@V?$basic_string@DU?$char_traits@D@std@@V?$allocator@D@2@@std@@N@std@@@2@@4@_K@Z@4HA 0000000180044eac f   nodejieba.obj
 0001:00043ec0       ?dtor$0@?0??Extract@KeywordExtractor@cppjieba@@QEBAXAEBV?$basic_string@DU?$char_traits@D@std@@V?$allocator@D@2@@std@@AEAV?$vector@UWord@KeywordExtractor@cppjieba@@V?$allocator@UWord@KeywordExtractor@cppjieba@@@std@@@4@_K@Z@4HA 0000000180044ec0 f   nodejieba.obj
 0001:00043ecc       ?dtor$1@?0??Extract@KeywordExtractor@cppjieba@@QEBAXAEBV?$basic_string@DU?$char_traits@D@std@@V?$allocator@D@2@@std@@AEAV?$vector@UWord@KeywordExtractor@cppjieba@@V?$allocator@UWord@KeywordExtractor@cppjieba@@@std@@@4@_K@Z@4HA 0000000180044ecc f   nodejieba.obj
 0001:00043ed8       ?dtor$5@?0??Extract@KeywordExtractor@cppjieba@@QEBAXAEBV?$basic_string@DU?$char_traits@D@std@@V?$allocator@D@2@@std@@AEAV?$vector@UWord@KeywordExtractor@cppjieba@@V?$allocator@UWord@KeywordExtractor@cppjieba@@@std@@@4@_K@Z@4HA 0000000180044ed8 f   nodejieba.obj
 0001:00043ee4       ?dtor$2@?0??Extract@KeywordExtractor@cppjieba@@QEBAXAEBV?$basic_string@DU?$char_traits@D@std@@V?$allocator@D@2@@std@@AEAV?$vector@UWord@KeywordExtractor@cppjieba@@V?$allocator@UWord@KeywordExtractor@cppjieba@@@std@@@4@_K@Z@4HA 0000000180044ee4 f   nodejieba.obj
 0001:00043ef0       ?dtor$6@?0??Extract@KeywordExtractor@cppjieba@@QEBAXAEBV?$basic_string@DU?$char_traits@D@std@@V?$allocator@D@2@@std@@AEAV?$vector@UWord@KeywordExtractor@cppjieba@@V?$allocator@UWord@KeywordExtractor@cppjieba@@@std@@@4@_K@Z@4HA 0000000180044ef0 f   nodejieba.obj
 0001:00043ef5       ?dtor$9@?0??Extract@KeywordExtractor@cppjieba@@QEBAXAEBV?$basic_string@DU?$char_traits@D@std@@V?$allocator@D@2@@std@@AEAV?$vector@UWord@KeywordExtractor@cppjieba@@V?$allocator@UWord@KeywordExtractor@cppjieba@@@std@@@4@_K@Z@4HA 0000000180044ef5 f   nodejieba.obj
 0001:00043f00       ?dtor$0@?0??LoadIdfDict@KeywordExtractor@cppjieba@@AEAAXAEBV?$basic_string@DU?$char_traits@D@std@@V?$allocator@D@2@@std@@@Z@4HA 0000000180044f00 f   nodejieba.obj
 0001:00043f0c       ?dtor$7@?0??LoadIdfDict@KeywordExtractor@cppjieba@@AEAAXAEBV?$basic_string@DU?$char_traits@D@std@@V?$allocator@D@2@@std@@@Z@4HA 0000000180044f0c f   nodejieba.obj
 0001:00043f18       ?dtor$1@?0??LoadIdfDict@KeywordExtractor@cppjieba@@AEAAXAEBV?$basic_string@DU?$char_traits@D@std@@V?$allocator@D@2@@std@@@Z@4HA 0000000180044f18 f   nodejieba.obj
 0001:00043f24       ?dtor$2@?0??LoadIdfDict@KeywordExtractor@cppjieba@@AEAAXAEBV?$basic_string@DU?$char_traits@D@std@@V?$allocator@D@2@@std@@@Z@4HA 0000000180044f24 f   nodejieba.obj
 0001:00043f30       ?dtor$3@?0??LoadIdfDict@KeywordExtractor@cppjieba@@AEAAXAEBV?$basic_string@DU?$char_traits@D@std@@V?$allocator@D@2@@std@@@Z@4HA 0000000180044f30 f   nodejieba.obj
 0001:00043f3c       ?dtor$8@?0??LoadIdfDict@KeywordExtractor@cppjieba@@AEAAXAEBV?$basic_string@DU?$char_traits@D@std@@V?$allocator@D@2@@std@@@Z@4HA 0000000180044f3c f   nodejieba.obj
 0001:00043f48       ?dtor$9@?0??LoadIdfDict@KeywordExtractor@cppjieba@@AEAAXAEBV?$basic_string@DU?$char_traits@D@std@@V?$allocator@D@2@@std@@@Z@4HA 0000000180044f48 f   nodejieba.obj
 0001:00043f54       ?dtor$4@?0??LoadIdfDict@KeywordExtractor@cppjieba@@AEAAXAEBV?$basic_string@DU?$char_traits@D@std@@V?$allocator@D@2@@std@@@Z@4HA 0000000180044f54 f   nodejieba.obj
 0001:00043f60       ?dtor$10@?0??LoadIdfDict@KeywordExtractor@cppjieba@@AEAAXAEBV?$basic_string@DU?$char_traits@D@std@@V?$allocator@D@2@@std@@@Z@4HA 0000000180044f60 f   nodejieba.obj
 0001:00043f65       ?dtor$5@?0??LoadIdfDict@KeywordExtractor@cppjieba@@AEAAXAEBV?$basic_string@DU?$char_traits@D@std@@V?$allocator@D@2@@std@@@Z@4HA 0000000180044f65 f   nodejieba.obj
 0001:00043f71       ?dtor$11@?0??LoadIdfDict@KeywordExtractor@cppjieba@@AEAAXAEBV?$basic_string@DU?$char_traits@D@std@@V?$allocator@D@2@@std@@@Z@4HA 0000000180044f71 f   nodejieba.obj
 0001:00043f7d       ?dtor$6@?0??LoadIdfDict@KeywordExtractor@cppjieba@@AEAAXAEBV?$basic_string@DU?$char_traits@D@std@@V?$allocator@D@2@@std@@@Z@4HA 0000000180044f7d f   nodejieba.obj
 0001:00043f90       ?dtor$0@?0??LoadStopWordDict@KeywordExtractor@cppjieba@@AEAAXAEBV?$basic_string@DU?$char_traits@D@std@@V?$allocator@D@2@@std@@@Z@4HA 0000000180044f90 f   nodejieba.obj
 0001:00043f9c       ?dtor$3@?0??LoadStopWordDict@KeywordExtractor@cppjieba@@AEAAXAEBV?$basic_string@DU?$char_traits@D@std@@V?$allocator@D@2@@std@@@Z@4HA 0000000180044f9c f   nodejieba.obj
 0001:00043fa8       ?dtor$1@?0??LoadStopWordDict@KeywordExtractor@cppjieba@@AEAAXAEBV?$basic_string@DU?$char_traits@D@std@@V?$allocator@D@2@@std@@@Z@4HA 0000000180044fa8 f   nodejieba.obj
 0001:00043fb4       ?dtor$2@?0??LoadStopWordDict@KeywordExtractor@cppjieba@@AEAAXAEBV?$basic_string@DU?$char_traits@D@std@@V?$allocator@D@2@@std@@@Z@4HA 0000000180044fb4 f   nodejieba.obj
 0001:00043fc0       ?dtor$4@?0??LoadStopWordDict@KeywordExtractor@cppjieba@@AEAAXAEBV?$basic_string@DU?$char_traits@D@std@@V?$allocator@D@2@@std@@@Z@4HA 0000000180044fc0 f   nodejieba.obj
 0001:00043fd0       ?dtor$0@?0??load@@YAXAEBV?$FunctionCallbackInfo@VValue@v8@@@Nan@@@Z@4HA 0000000180044fd0 f   nodejieba.obj
 0001:00043fde       ?dtor$1@?0??load@@YAXAEBV?$FunctionCallbackInfo@VValue@v8@@@Nan@@@Z@4HA 0000000180044fde f   nodejieba.obj
 0001:00043fec       ?dtor$2@?0??load@@YAXAEBV?$FunctionCallbackInfo@VValue@v8@@@Nan@@@Z@4HA 0000000180044fec f   nodejieba.obj
 0001:00043ffa       ?dtor$3@?0??load@@YAXAEBV?$FunctionCallbackInfo@VValue@v8@@@Nan@@@Z@4HA 0000000180044ffa f   nodejieba.obj
 0001:00044008       ?dtor$4@?0??load@@YAXAEBV?$FunctionCallbackInfo@VValue@v8@@@Nan@@@Z@4HA 0000000180045008 f   nodejieba.obj
 0001:00044016       ?dtor$5@?0??load@@YAXAEBV?$FunctionCallbackInfo@VValue@v8@@@Nan@@@Z@4HA 0000000180045016 f   nodejieba.obj
 0001:00044033       ?dtor$6@?0??load@@YAXAEBV?$FunctionCallbackInfo@VValue@v8@@@Nan@@@Z@4HA 0000000180045033 f   nodejieba.obj
 0001:0004405c       ?dtor$7@?0??load@@YAXAEBV?$FunctionCallbackInfo@VValue@v8@@@Nan@@@Z@4HA 000000018004505c f   nodejieba.obj
 0001:00044085       ?dtor$8@?0??load@@YAXAEBV?$FunctionCallbackInfo@VValue@v8@@@Nan@@@Z@4HA 0000000180045085 f   nodejieba.obj
 0001:000440ae       ?dtor$9@?0??load@@YAXAEBV?$FunctionCallbackInfo@VValue@v8@@@Nan@@@Z@4HA 00000001800450ae f   nodejieba.obj
 0001:000440cb       ?dtor$10@?0??load@@YAXAEBV?$FunctionCallbackInfo@VValue@v8@@@Nan@@@Z@4HA 00000001800450cb f   nodejieba.obj
 0001:000440f4       ?dtor$11@?0??load@@YAXAEBV?$FunctionCallbackInfo@VValue@v8@@@Nan@@@Z@4HA 00000001800450f4 f   nodejieba.obj
 0001:0004411d       ?dtor$14@?0??load@@YAXAEBV?$FunctionCallbackInfo@VValue@v8@@@Nan@@@Z@4HA 000000018004511d f   nodejieba.obj
 0001:00044129       ?dtor$15@?0??load@@YAXAEBV?$FunctionCallbackInfo@VValue@v8@@@Nan@@@Z@4HA 0000000180045129 f   nodejieba.obj
 0001:0004413c       ?dtor$16@?0??load@@YAXAEBV?$FunctionCallbackInfo@VValue@v8@@@Nan@@@Z@4HA 000000018004513c f   nodejieba.obj
 0001:00044150       ?dtor$0@?0??insertWord@@YAXAEBV?$FunctionCallbackInfo@VValue@v8@@@Nan@@@Z@4HA 0000000180045150 f   nodejieba.obj
 0001:0004415e       ?dtor$1@?0??insertWord@@YAXAEBV?$FunctionCallbackInfo@VValue@v8@@@Nan@@@Z@4HA 000000018004515e f   nodejieba.obj
 0001:0004416a       ?dtor$2@?0??insertWord@@YAXAEBV?$FunctionCallbackInfo@VValue@v8@@@Nan@@@Z@4HA 000000018004516a f   nodejieba.obj
 0001:00044176       ?dtor$3@?0??insertWord@@YAXAEBV?$FunctionCallbackInfo@VValue@v8@@@Nan@@@Z@4HA 0000000180045176 f   nodejieba.obj
 0001:00044190       ?dtor$0@?0??cutSmall@@YAXAEBV?$FunctionCallbackInfo@VValue@v8@@@Nan@@@Z@4HA 0000000180045190 f   nodejieba.obj
 0001:00044190       ?dtor$0@?0??cut@@YAXAEBV?$FunctionCallbackInfo@VValue@v8@@@Nan@@@Z@4HA 0000000180045190 f   nodejieba.obj
 0001:00044190       ?dtor$0@?0??cutForSearch@@YAXAEBV?$FunctionCallbackInfo@VValue@v8@@@Nan@@@Z@4HA 0000000180045190 f   nodejieba.obj
 0001:0004419e       ?dtor$1@?0??cut@@YAXAEBV?$FunctionCallbackInfo@VValue@v8@@@Nan@@@Z@4HA 000000018004519e f   nodejieba.obj
 0001:0004419e       ?dtor$1@?0??cutForSearch@@YAXAEBV?$FunctionCallbackInfo@VValue@v8@@@Nan@@@Z@4HA 000000018004519e f   nodejieba.obj
 0001:0004419e       ?dtor$1@?0??cutSmall@@YAXAEBV?$FunctionCallbackInfo@VValue@v8@@@Nan@@@Z@4HA 000000018004519e f   nodejieba.obj
 0001:000441aa       ?dtor$2@?0??cutSmall@@YAXAEBV?$FunctionCallbackInfo@VValue@v8@@@Nan@@@Z@4HA 00000001800451aa f   nodejieba.obj
 0001:000441aa       ?dtor$2@?0??cutForSearch@@YAXAEBV?$FunctionCallbackInfo@VValue@v8@@@Nan@@@Z@4HA 00000001800451aa f   nodejieba.obj
 0001:000441aa       ?dtor$2@?0??cut@@YAXAEBV?$FunctionCallbackInfo@VValue@v8@@@Nan@@@Z@4HA 00000001800451aa f   nodejieba.obj
 0001:000441b6       ?dtor$3@?0??cutSmall@@YAXAEBV?$FunctionCallbackInfo@VValue@v8@@@Nan@@@Z@4HA 00000001800451b6 f   nodejieba.obj
 0001:000441b6       ?dtor$3@?0??cut@@YAXAEBV?$FunctionCallbackInfo@VValue@v8@@@Nan@@@Z@4HA 00000001800451b6 f   nodejieba.obj
 0001:000441b6       ?dtor$3@?0??cutForSearch@@YAXAEBV?$FunctionCallbackInfo@VValue@v8@@@Nan@@@Z@4HA 00000001800451b6 f   nodejieba.obj
 0001:000441d0       ?dtor$0@?0??cutHMM@@YAXAEBV?$FunctionCallbackInfo@VValue@v8@@@Nan@@@Z@4HA 00000001800451d0 f   nodejieba.obj
 0001:000441d0       ?dtor$0@?0??cutAll@@YAXAEBV?$FunctionCallbackInfo@VValue@v8@@@Nan@@@Z@4HA 00000001800451d0 f   nodejieba.obj
 0001:000441de       ?dtor$1@?0??cutAll@@YAXAEBV?$FunctionCallbackInfo@VValue@v8@@@Nan@@@Z@4HA 00000001800451de f   nodejieba.obj
 0001:000441de       ?dtor$1@?0??cutHMM@@YAXAEBV?$FunctionCallbackInfo@VValue@v8@@@Nan@@@Z@4HA 00000001800451de f   nodejieba.obj
 0001:000441ea       ?dtor$2@?0??cutAll@@YAXAEBV?$FunctionCallbackInfo@VValue@v8@@@Nan@@@Z@4HA 00000001800451ea f   nodejieba.obj
 0001:000441ea       ?dtor$2@?0??cutHMM@@YAXAEBV?$FunctionCallbackInfo@VValue@v8@@@Nan@@@Z@4HA 00000001800451ea f   nodejieba.obj
 0001:00044200       ?dtor$0@?0??tag@@YAXAEBV?$FunctionCallbackInfo@VValue@v8@@@Nan@@@Z@4HA 0000000180045200 f   nodejieba.obj
 0001:0004420c       ?dtor$1@?0??tag@@YAXAEBV?$FunctionCallbackInfo@VValue@v8@@@Nan@@@Z@4HA 000000018004520c f   nodejieba.obj
 0001:0004421a       ?dtor$2@?0??tag@@YAXAEBV?$FunctionCallbackInfo@VValue@v8@@@Nan@@@Z@4HA 000000018004521a f   nodejieba.obj
 0001:00044230       ?dtor$0@?0??extract@@YAXAEBV?$FunctionCallbackInfo@VValue@v8@@@Nan@@@Z@4HA 0000000180045230 f   nodejieba.obj
 0001:0004423e       ?dtor$1@?0??extract@@YAXAEBV?$FunctionCallbackInfo@VValue@v8@@@Nan@@@Z@4HA 000000018004523e f   nodejieba.obj
 0001:0004424a       ?dtor$2@?0??extract@@YAXAEBV?$FunctionCallbackInfo@VValue@v8@@@Nan@@@Z@4HA 000000018004524a f   nodejieba.obj
 0001:00044260       ?dtor$0@?0???A?$map@V?$basic_string@DU?$char_traits@D@std@@V?$allocator@D@2@@std@@UWord@KeywordExtractor@cppjieba@@U?$less@V?$basic_string@DU?$char_traits@D@std@@V?$allocator@D@2@@std@@@2@V?$allocator@U?$pair@$$CBV?$basic_string@DU?$char_traits@D@std@@V?$allocator@D@2@@std@@UWord@KeywordExtractor@cppjieba@@@std@@@2@@std@@QEAAAEAUWord@KeywordExtractor@cppjieba@@AEBV?$basic_string@DU?$char_traits@D@std@@V?$allocator@D@2@@1@@Z@4HA 0000000180045260 f   nodejieba.obj
 0001:00044260       ?dtor$0@?0???A?$unordered_map@V?$basic_string@DU?$char_traits@D@std@@V?$allocator@D@2@@std@@NU?$hash@V?$basic_string@DU?$char_traits@D@std@@V?$allocator@D@2@@std@@@2@U?$equal_to@V?$basic_string@DU?$char_traits@D@std@@V?$allocator@D@2@@std@@@2@V?$allocator@U?$pair@$$CBV?$basic_string@DU?$char_traits@D@std@@V?$allocator@D@2@@std@@N@std@@@2@@std@@QEAAAEANAEBV?$basic_string@DU?$char_traits@D@std@@V?$allocator@D@2@@1@@Z@4HA 0000000180045260 f   nodejieba.obj
 0001:00044280       ?dtor$1@?0???0?$unordered_set@V?$basic_string@DU?$char_traits@D@std@@V?$allocator@D@2@@std@@U?$hash@V?$basic_string@DU?$char_traits@D@std@@V?$allocator@D@2@@std@@@2@U?$equal_to@V?$basic_string@DU?$char_traits@D@std@@V?$allocator@D@2@@std@@@2@V?$allocator@V?$basic_string@DU?$char_traits@D@std@@V?$allocator@D@2@@std@@@2@@std@@QEAA@XZ@4HA 0000000180045280 f   nodejieba.obj
 0001:00044280       ?dtor$1@?0???0?$unordered_map@V?$basic_string@DU?$char_traits@D@std@@V?$allocator@D@2@@std@@NU?$hash@V?$basic_string@DU?$char_traits@D@std@@V?$allocator@D@2@@std@@@2@U?$equal_to@V?$basic_string@DU?$char_traits@D@std@@V?$allocator@D@2@@std@@@2@V?$allocator@U?$pair@$$CBV?$basic_string@DU?$char_traits@D@std@@V?$allocator@D@2@@std@@N@std@@@2@@std@@QEAA@XZ@4HA 0000000180045280 f   nodejieba.obj
 0001:00044290       ?dtor$2@?0???0?$unordered_map@V?$basic_string@DU?$char_traits@D@std@@V?$allocator@D@2@@std@@NU?$hash@V?$basic_string@DU?$char_traits@D@std@@V?$allocator@D@2@@std@@@2@U?$equal_to@V?$basic_string@DU?$char_traits@D@std@@V?$allocator@D@2@@std@@@2@V?$allocator@U?$pair@$$CBV?$basic_string@DU?$char_traits@D@std@@V?$allocator@D@2@@std@@N@std@@@2@@std@@QEAA@XZ@4HA 0000000180045290 f   nodejieba.obj
 0001:00044290       ?dtor$2@?0???0?$unordered_set@V?$basic_string@DU?$char_traits@D@std@@V?$allocator@D@2@@std@@U?$hash@V?$basic_string@DU?$char_traits@D@std@@V?$allocator@D@2@@std@@@2@U?$equal_to@V?$basic_string@DU?$char_traits@D@std@@V?$allocator@D@2@@std@@@2@V?$allocator@V?$basic_string@DU?$char_traits@D@std@@V?$allocator@D@2@@std@@@2@@std@@QEAA@XZ@4HA 0000000180045290 f   nodejieba.obj
 0001:000442a0       ?dtor$0@?0??push_back@?$vector@UWord@KeywordExtractor@cppjieba@@V?$allocator@UWord@KeywordExtractor@cppjieba@@@std@@@std@@QEAAXAEBUWord@KeywordExtractor@cppjieba@@@Z@4HA 00000001800452a0 f   nodejieba.obj
 0001:000442bc       ?dtor$1@?0??push_back@?$vector@UWord@KeywordExtractor@cppjieba@@V?$allocator@UWord@KeywordExtractor@cppjieba@@@std@@@std@@QEAAXAEBUWord@KeywordExtractor@cppjieba@@@Z@4HA 00000001800452bc f   nodejieba.obj
 0001:000442c8       ?dtor$3@?0??push_back@?$vector@UWord@KeywordExtractor@cppjieba@@V?$allocator@UWord@KeywordExtractor@cppjieba@@@std@@@std@@QEAAXAEBUWord@KeywordExtractor@cppjieba@@@Z@4HA 00000001800452c8 f   nodejieba.obj
 0001:000442e4       ?dtor$4@?0??push_back@?$vector@UWord@KeywordExtractor@cppjieba@@V?$allocator@UWord@KeywordExtractor@cppjieba@@@std@@@std@@QEAAXAEBUWord@KeywordExtractor@cppjieba@@@Z@4HA 00000001800452e4 f   nodejieba.obj
 0001:000442f0       ?dtor$1@?0???0?$unordered_map@IPEAVTrieNode@cppjieba@@U?$hash@I@std@@U?$equal_to@I@4@V?$allocator@U?$pair@$$CBIPEAVTrieNode@cppjieba@@@std@@@4@@std@@QEAA@XZ@4HA 00000001800452f0 f   nodejieba.obj
 0001:000442f0       ?dtor$1@?0???0?$unordered_map@INU?$hash@I@std@@U?$equal_to@I@2@V?$allocator@U?$pair@$$CBIN@std@@@2@@std@@QEAA@XZ@4HA 00000001800452f0 f   nodejieba.obj
 0001:000442f0       ?dtor$1@?0???0?$unordered_set@IU?$hash@I@std@@U?$equal_to@I@2@V?$allocator@I@2@@std@@QEAA@XZ@4HA 00000001800452f0 f   nodejieba.obj
 0001:00044300       ?dtor$2@?0???0?$unordered_set@IU?$hash@I@std@@U?$equal_to@I@2@V?$allocator@I@2@@std@@QEAA@XZ@4HA 0000000180045300 f   nodejieba.obj
 0001:00044300       ?dtor$2@?0???0?$unordered_map@IPEAVTrieNode@cppjieba@@U?$hash@I@std@@U?$equal_to@I@4@V?$allocator@U?$pair@$$CBIPEAVTrieNode@cppjieba@@@std@@@4@@std@@QEAA@XZ@4HA 0000000180045300 f   nodejieba.obj
 0001:00044300       ?dtor$2@?0???0?$unordered_map@INU?$hash@I@std@@U?$equal_to@I@2@V?$allocator@U?$pair@$$CBIN@std@@@2@@std@@QEAA@XZ@4HA 0000000180045300 f   nodejieba.obj
 0001:00044310       ?dtor$0@?0??push_back@?$vector@V?$basic_string@DU?$char_traits@D@std@@V?$allocator@D@2@@std@@V?$allocator@V?$basic_string@DU?$char_traits@D@std@@V?$allocator@D@2@@std@@@2@@std@@QEAAXAEBV?$basic_string@DU?$char_traits@D@std@@V?$allocator@D@2@@2@@Z@4HA 0000000180045310 f   nodejieba.obj
 0001:0004432c       ?dtor$1@?0??push_back@?$vector@V?$basic_string@DU?$char_traits@D@std@@V?$allocator@D@2@@std@@V?$allocator@V?$basic_string@DU?$char_traits@D@std@@V?$allocator@D@2@@std@@@2@@std@@QEAAXAEBV?$basic_string@DU?$char_traits@D@std@@V?$allocator@D@2@@2@@Z@4HA 000000018004532c f   nodejieba.obj
 0001:00044350       ?dtor$0@?0???0?$basic_ifstream@DU?$char_traits@D@std@@@std@@QEAA@PEBDHH@Z@4HA 0000000180045350 f   nodejieba.obj
 0001:0004437d       ?dtor$1@?0???0?$basic_ifstream@DU?$char_traits@D@std@@@std@@QEAA@PEBDHH@Z@4HA 000000018004537d f   nodejieba.obj
 0001:0004438d       ?dtor$2@?0???0?$basic_ifstream@DU?$char_traits@D@std@@@std@@QEAA@PEBDHH@Z@4HA 000000018004538d f   nodejieba.obj
 0001:000443a0       ?dtor$0@?0??uflow@?$basic_filebuf@DU?$char_traits@D@std@@@std@@MEAAHXZ@4HA 00000001800453a0 f   nodejieba.obj
 0001:000443a0       ?dtor$0@?0??overflow@?$basic_filebuf@DU?$char_traits@D@std@@@std@@MEAAHH@Z@4HA 00000001800453a0 f   nodejieba.obj
 0001:000443a0       ?dtor$0@?0??do_put@?$num_put@DV?$ostreambuf_iterator@DU?$char_traits@D@std@@@std@@@std@@MEBA?AV?$ostreambuf_iterator@DU?$char_traits@D@std@@@2@V32@AEAVios_base@2@DN@Z@4HA 00000001800453a0 f   nodejieba.obj
 0001:000443a0       ?dtor$0@?0??do_put@?$num_put@DV?$ostreambuf_iterator@DU?$char_traits@D@std@@@std@@@std@@MEBA?AV?$ostreambuf_iterator@DU?$char_traits@D@std@@@2@V32@AEAVios_base@2@DO@Z@4HA 00000001800453a0 f   nodejieba.obj
 0001:000443b0       ?dtor$0@?0???0?$basic_ostringstream@DU?$char_traits@D@std@@V?$allocator@D@2@@std@@QEAA@H@Z@4HA 00000001800453b0 f   nodejieba.obj
 0001:000443dd       ?dtor$1@?0???0?$basic_ostringstream@DU?$char_traits@D@std@@V?$allocator@D@2@@std@@QEAA@H@Z@4HA 00000001800453dd f   nodejieba.obj
 0001:000443ed       ?dtor$4@?0???0?$basic_ostringstream@DU?$char_traits@D@std@@V?$allocator@D@2@@std@@QEAA@H@Z@4HA 00000001800453ed f   nodejieba.obj
 0001:00044400       ?dtor$2@?0???6?$basic_ostream@DU?$char_traits@D@std@@@std@@QEAAAEAV01@H@Z@4HA 0000000180045400 f   nodejieba.obj
 0001:00044400       ?dtor$2@?0???6?$basic_ostream@DU?$char_traits@D@std@@@std@@QEAAAEAV01@_K@Z@4HA 0000000180045400 f   nodejieba.obj
 0001:0004440c       ?dtor$0@?0???6?$basic_ostream@DU?$char_traits@D@std@@@std@@QEAAAEAV01@H@Z@4HA 000000018004540c f   nodejieba.obj
 0001:0004440c       ?dtor$0@?0???6?$basic_ostream@DU?$char_traits@D@std@@@std@@QEAAAEAV01@_K@Z@4HA 000000018004540c f   nodejieba.obj
 0001:00044418       ?dtor$1@?0???6?$basic_ostream@DU?$char_traits@D@std@@@std@@QEAAAEAV01@H@Z@4HA 0000000180045418 f   nodejieba.obj
 0001:00044418       ?dtor$1@?0???6?$basic_ostream@DU?$char_traits@D@std@@@std@@QEAAAEAV01@_K@Z@4HA 0000000180045418 f   nodejieba.obj
 0001:00044430       ?dtor$0@?0???0sentry@?$basic_ostream@DU?$char_traits@D@std@@@std@@QEAA@AEAV12@@Z@4HA 0000000180045430 f   nodejieba.obj
 0001:00044440       ?dtor$0@?0??do_put@?$num_put@DV?$ostreambuf_iterator@DU?$char_traits@D@std@@@std@@@std@@MEBA?AV?$ostreambuf_iterator@DU?$char_traits@D@std@@@2@V32@AEAVios_base@2@D_N@Z@4HA 0000000180045440 f   nodejieba.obj
 0001:0004444c       ?dtor$1@?0??do_put@?$num_put@DV?$ostreambuf_iterator@DU?$char_traits@D@std@@@std@@@std@@MEBA?AV?$ostreambuf_iterator@DU?$char_traits@D@std@@@2@V32@AEAVios_base@2@D_N@Z@4HA 000000018004544c f   nodejieba.obj
 0001:00044460       ?dtor$0@?0??_Endwrite@?$basic_filebuf@DU?$char_traits@D@std@@@std@@IEAA_NXZ@4HA 0000000180045460 f   nodejieba.obj
 0001:00044470       ?dtor$0@?0??init@?$basic_ios@DU?$char_traits@D@std@@@std@@IEAAXPEAV?$basic_streambuf@DU?$char_traits@D@std@@@2@_N@Z@4HA 0000000180045470 f   nodejieba.obj
 0001:00044470       ?dtor$0@?0???$endl@DU?$char_traits@D@std@@@std@@YAAEAV?$basic_ostream@DU?$char_traits@D@std@@@0@AEAV10@@Z@4HA 0000000180045470 f   nodejieba.obj
 0001:00044470       ?dtor$0@?0???$getline@DU?$char_traits@D@std@@V?$allocator@D@2@@std@@YAAEAV?$basic_istream@DU?$char_traits@D@std@@@0@AEAV10@AEAV?$basic_string@DU?$char_traits@D@std@@V?$allocator@D@2@@0@@Z@4HA 0000000180045470 f   nodejieba.obj
 0001:00044470       ?dtor$0@?0??open@?$basic_filebuf@DU?$char_traits@D@std@@@std@@QEAAPEAV12@PEBDHH@Z@4HA 0000000180045470 f   nodejieba.obj
 0001:00044480       ?dtor$0@?0???0?$basic_ostream@DU?$char_traits@D@std@@@std@@QEAA@PEAV?$basic_streambuf@DU?$char_traits@D@std@@@1@_N@Z@4HA 0000000180045480 f   nodejieba.obj
 0001:000444b0       ?dtor$0@?0??_Iput@?$num_put@DV?$ostreambuf_iterator@DU?$char_traits@D@std@@@std@@@std@@AEBA?AV?$ostreambuf_iterator@DU?$char_traits@D@std@@@2@V32@AEAVios_base@2@DPEAD_K@Z@4HA 00000001800454b0 f   nodejieba.obj
 0001:000444bc       ?dtor$1@?0??_Iput@?$num_put@DV?$ostreambuf_iterator@DU?$char_traits@D@std@@@std@@@std@@AEBA?AV?$ostreambuf_iterator@DU?$char_traits@D@std@@@2@V32@AEAVios_base@2@DPEAD_K@Z@4HA 00000001800454bc f   nodejieba.obj
 0001:000444c8       ?dtor$2@?0??_Iput@?$num_put@DV?$ostreambuf_iterator@DU?$char_traits@D@std@@@std@@@std@@AEBA?AV?$ostreambuf_iterator@DU?$char_traits@D@std@@@2@V32@AEAVios_base@2@DPEAD_K@Z@4HA 00000001800454c8 f   nodejieba.obj
 0001:000444d4       ?dtor$3@?0??_Iput@?$num_put@DV?$ostreambuf_iterator@DU?$char_traits@D@std@@@std@@@std@@AEBA?AV?$ostreambuf_iterator@DU?$char_traits@D@std@@@2@V32@AEAVios_base@2@DPEAD_K@Z@4HA 00000001800454d4 f   nodejieba.obj
 0001:000444e0       ?dtor$0@?0??_Fput@?$num_put@DV?$ostreambuf_iterator@DU?$char_traits@D@std@@@std@@@std@@AEBA?AV?$ostreambuf_iterator@DU?$char_traits@D@std@@@2@V32@AEAVios_base@2@DPEBD_K@Z@4HA 00000001800454e0 f   nodejieba.obj
 0001:000444ec       ?dtor$1@?0??_Fput@?$num_put@DV?$ostreambuf_iterator@DU?$char_traits@D@std@@@std@@@std@@AEBA?AV?$ostreambuf_iterator@DU?$char_traits@D@std@@@2@V32@AEAVios_base@2@DPEBD_K@Z@4HA 00000001800454ec f   nodejieba.obj
 0001:000444f8       ?dtor$2@?0??_Fput@?$num_put@DV?$ostreambuf_iterator@DU?$char_traits@D@std@@@std@@@std@@AEBA?AV?$ostreambuf_iterator@DU?$char_traits@D@std@@@2@V32@AEAVios_base@2@DPEBD_K@Z@4HA 00000001800454f8 f   nodejieba.obj
 0001:00044504       ?dtor$3@?0??_Fput@?$num_put@DV?$ostreambuf_iterator@DU?$char_traits@D@std@@@std@@@std@@AEBA?AV?$ostreambuf_iterator@DU?$char_traits@D@std@@@2@V32@AEAVios_base@2@DPEBD_K@Z@4HA 0000000180045504 f   nodejieba.obj
 0001:00044510       ?dtor$0@?0??flush@?$basic_ostream@DU?$char_traits@D@std@@@std@@QEAAAEAV12@XZ@4HA 0000000180045510 f   nodejieba.obj
 0001:00044520       ?dtor$0@?0???$use_facet@V?$numpunct@D@std@@@std@@YAAEBV?$numpunct@D@0@AEBVlocale@0@@Z@4HA 0000000180045520 f   nodejieba.obj
 0001:00044520       ?dtor$0@?0???$use_facet@V?$num_put@DV?$ostreambuf_iterator@DU?$char_traits@D@std@@@std@@@std@@@std@@YAAEBV?$num_put@DV?$ostreambuf_iterator@DU?$char_traits@D@std@@@std@@@0@AEBVlocale@0@@Z@4HA 0000000180045520 f   nodejieba.obj
 0001:00044520       ?dtor$0@?0???$use_facet@V?$codecvt@DDU_Mbstatet@@@std@@@std@@YAAEBV?$codecvt@DDU_Mbstatet@@@0@AEBVlocale@0@@Z@4HA 0000000180045520 f   nodejieba.obj
 0001:00044520       ?dtor$0@?0???$use_facet@V?$ctype@D@std@@@std@@YAAEBV?$ctype@D@0@AEBVlocale@0@@Z@4HA 0000000180045520 f   nodejieba.obj
 0001:00044530       ?dtor$0@?0???$New@VString@v8@@V?$basic_string@DU?$char_traits@D@std@@V?$allocator@D@2@@std@@@Nan@@YA?AV?$MaybeLocal@VString@v8@@@v8@@V?$basic_string@DU?$char_traits@D@std@@V?$allocator@D@2@@std@@@Z@4HA 0000000180045530 f   nodejieba.obj
 0001:00044540       ?dtor$1@?0??put@?$basic_ostream@DU?$char_traits@D@std@@@std@@QEAAAEAV12@D@Z@4HA 0000000180045540 f   nodejieba.obj
 0001:00044540       ?dtor$1@?0???$?6U?$char_traits@D@std@@@std@@YAAEAV?$basic_ostream@DU?$char_traits@D@std@@@0@AEAV10@PEBD@Z@4HA 0000000180045540 f   nodejieba.obj
 0001:00044540       ?dtor$1@?0???$?6DU?$char_traits@D@std@@V?$allocator@D@1@@std@@YAAEAV?$basic_ostream@DU?$char_traits@D@std@@@0@AEAV10@AEBV?$basic_string@DU?$char_traits@D@std@@V?$allocator@D@2@@0@@Z@4HA 0000000180045540 f   nodejieba.obj
 0001:0004454c       ?dtor$0@?0???$?6U?$char_traits@D@std@@@std@@YAAEAV?$basic_ostream@DU?$char_traits@D@std@@@0@AEAV10@PEBD@Z@4HA 000000018004554c f   nodejieba.obj
 0001:0004454c       ?dtor$0@?0???$?6DU?$char_traits@D@std@@V?$allocator@D@1@@std@@YAAEAV?$basic_ostream@DU?$char_traits@D@std@@@0@AEAV10@AEBV?$basic_string@DU?$char_traits@D@std@@V?$allocator@D@2@@0@@Z@4HA 000000018004554c f   nodejieba.obj
 0001:0004454c       ?dtor$0@?0??put@?$basic_ostream@DU?$char_traits@D@std@@@std@@QEAAAEAV12@D@Z@4HA 000000018004554c f   nodejieba.obj
 0001:00044560       ?dtor$0@?0???$_Insert@AEBV?$basic_string@DU?$char_traits@D@std@@V?$allocator@D@2@@std@@U_Nil@2@@?$_Hash@V?$_Uset_traits@V?$basic_string@DU?$char_traits@D@std@@V?$allocator@D@2@@std@@V?$_Uhash_compare@V?$basic_string@DU?$char_traits@D@std@@V?$allocator@D@2@@std@@U?$hash@V?$basic_string@DU?$char_traits@D@std@@V?$allocator@D@2@@std@@@2@U?$equal_to@V?$basic_string@DU?$char_traits@D@std@@V?$allocator@D@2@@std@@@2@@2@V?$allocator@V?$basic_string@DU?$char_traits@D@std@@V?$allocator@D@2@@std@@@2@$0A@@std@@@std@@IEAA?AU?$pair@V?$_List_const_iterator@V?$_List_val@U?$_List_simple_types@V?$basic_string@DU?$char_traits@D@std@@V?$allocator@D@2@@std@@@std@@@std@@@std@@_N@1@AEBV?$basic_string@DU?$char_traits@D@std@@V?$allocator@D@2@@1@U_Nil@1@@Z@4HA 0000000180045560 f   nodejieba.obj
 0001:00044580       ?dtor$0@?0??_Getcat@?$numpunct@D@std@@SA_KPEAPEBVfacet@locale@2@PEBV42@@Z@4HA 0000000180045580 f   nodejieba.obj
 0001:000445a0       ?dtor$2@?0??_Getcat@?$numpunct@D@std@@SA_KPEAPEBVfacet@locale@2@PEBV42@@Z@4HA 00000001800455a0 f   nodejieba.obj
 0001:000445ac       ?dtor$3@?0??_Getcat@?$numpunct@D@std@@SA_KPEAPEBVfacet@locale@2@PEBV42@@Z@4HA 00000001800455ac f   nodejieba.obj
 0001:000445bc       ?dtor$4@?0??_Getcat@?$numpunct@D@std@@SA_KPEAPEBVfacet@locale@2@PEBV42@@Z@4HA 00000001800455bc f   nodejieba.obj
 0001:000445cc       ?dtor$5@?0??_Getcat@?$numpunct@D@std@@SA_KPEAPEBVfacet@locale@2@PEBV42@@Z@4HA 00000001800455cc f   nodejieba.obj
 0001:000445dc       ?dtor$6@?0??_Getcat@?$numpunct@D@std@@SA_KPEAPEBVfacet@locale@2@PEBV42@@Z@4HA 00000001800455dc f   nodejieba.obj
 0001:000445ec       ?dtor$7@?0??_Getcat@?$numpunct@D@std@@SA_KPEAPEBVfacet@locale@2@PEBV42@@Z@4HA 00000001800455ec f   nodejieba.obj
 0001:000445fc       ?dtor$8@?0??_Getcat@?$numpunct@D@std@@SA_KPEAPEBVfacet@locale@2@PEBV42@@Z@4HA 00000001800455fc f   nodejieba.obj
 0001:0004460c       ?dtor$9@?0??_Getcat@?$numpunct@D@std@@SA_KPEAPEBVfacet@locale@2@PEBV42@@Z@4HA 000000018004560c f   nodejieba.obj
 0001:00044618       ?dtor$1@?0??_Getcat@?$numpunct@D@std@@SA_KPEAPEBVfacet@locale@2@PEBV42@@Z@4HA 0000000180045618 f   nodejieba.obj
 0001:00044644       ?dtor$11@?0??_Getcat@?$numpunct@D@std@@SA_KPEAPEBVfacet@locale@2@PEBV42@@Z@4HA 0000000180045644 f   nodejieba.obj
 0001:00044650       ?dtor$0@?0??_Getcat@?$codecvt@DDU_Mbstatet@@@std@@SA_KPEAPEBVfacet@locale@2@PEBV42@@Z@4HA 0000000180045650 f   nodejieba.obj
 0001:00044650       ?dtor$0@?0??_Getcat@?$num_put@DV?$ostreambuf_iterator@DU?$char_traits@D@std@@@std@@@std@@SA_KPEAPEBVfacet@locale@2@PEBV42@@Z@4HA 0000000180045650 f   nodejieba.obj
 0001:00044670       ?dtor$2@?0??_Getcat@?$codecvt@DDU_Mbstatet@@@std@@SA_KPEAPEBVfacet@locale@2@PEBV42@@Z@4HA 0000000180045670 f   nodejieba.obj
 0001:00044670       ?dtor$2@?0??_Getcat@?$num_put@DV?$ostreambuf_iterator@DU?$char_traits@D@std@@@std@@@std@@SA_KPEAPEBVfacet@locale@2@PEBV42@@Z@4HA 0000000180045670 f   nodejieba.obj
 0001:0004467c       ?dtor$3@?0??_Getcat@?$num_put@DV?$ostreambuf_iterator@DU?$char_traits@D@std@@@std@@@std@@SA_KPEAPEBVfacet@locale@2@PEBV42@@Z@4HA 000000018004567c f   nodejieba.obj
 0001:0004467c       ?dtor$3@?0??_Getcat@?$codecvt@DDU_Mbstatet@@@std@@SA_KPEAPEBVfacet@locale@2@PEBV42@@Z@4HA 000000018004567c f   nodejieba.obj
 0001:0004468c       ?dtor$4@?0??_Getcat@?$codecvt@DDU_Mbstatet@@@std@@SA_KPEAPEBVfacet@locale@2@PEBV42@@Z@4HA 000000018004568c f   nodejieba.obj
 0001:0004468c       ?dtor$4@?0??_Getcat@?$num_put@DV?$ostreambuf_iterator@DU?$char_traits@D@std@@@std@@@std@@SA_KPEAPEBVfacet@locale@2@PEBV42@@Z@4HA 000000018004568c f   nodejieba.obj
 0001:0004469c       ?dtor$5@?0??_Getcat@?$codecvt@DDU_Mbstatet@@@std@@SA_KPEAPEBVfacet@locale@2@PEBV42@@Z@4HA 000000018004569c f   nodejieba.obj
 0001:0004469c       ?dtor$5@?0??_Getcat@?$num_put@DV?$ostreambuf_iterator@DU?$char_traits@D@std@@@std@@@std@@SA_KPEAPEBVfacet@locale@2@PEBV42@@Z@4HA 000000018004569c f   nodejieba.obj
 0001:000446ac       ?dtor$6@?0??_Getcat@?$codecvt@DDU_Mbstatet@@@std@@SA_KPEAPEBVfacet@locale@2@PEBV42@@Z@4HA 00000001800456ac f   nodejieba.obj
 0001:000446ac       ?dtor$6@?0??_Getcat@?$num_put@DV?$ostreambuf_iterator@DU?$char_traits@D@std@@@std@@@std@@SA_KPEAPEBVfacet@locale@2@PEBV42@@Z@4HA 00000001800456ac f   nodejieba.obj
 0001:000446bc       ?dtor$7@?0??_Getcat@?$codecvt@DDU_Mbstatet@@@std@@SA_KPEAPEBVfacet@locale@2@PEBV42@@Z@4HA 00000001800456bc f   nodejieba.obj
 0001:000446bc       ?dtor$7@?0??_Getcat@?$num_put@DV?$ostreambuf_iterator@DU?$char_traits@D@std@@@std@@@std@@SA_KPEAPEBVfacet@locale@2@PEBV42@@Z@4HA 00000001800456bc f   nodejieba.obj
 0001:000446cc       ?dtor$8@?0??_Getcat@?$codecvt@DDU_Mbstatet@@@std@@SA_KPEAPEBVfacet@locale@2@PEBV42@@Z@4HA 00000001800456cc f   nodejieba.obj
 0001:000446cc       ?dtor$8@?0??_Getcat@?$num_put@DV?$ostreambuf_iterator@DU?$char_traits@D@std@@@std@@@std@@SA_KPEAPEBVfacet@locale@2@PEBV42@@Z@4HA 00000001800456cc f   nodejieba.obj
 0001:000446dc       ?dtor$9@?0??_Getcat@?$num_put@DV?$ostreambuf_iterator@DU?$char_traits@D@std@@@std@@@std@@SA_KPEAPEBVfacet@locale@2@PEBV42@@Z@4HA 00000001800456dc f   nodejieba.obj
 0001:000446dc       ?dtor$9@?0??_Getcat@?$codecvt@DDU_Mbstatet@@@std@@SA_KPEAPEBVfacet@locale@2@PEBV42@@Z@4HA 00000001800456dc f   nodejieba.obj
 0001:000446f0       ?dtor$1@?0???$getline@DU?$char_traits@D@std@@V?$allocator@D@2@@std@@YAAEAV?$basic_istream@DU?$char_traits@D@std@@@0@$$QEAV10@AEAV?$basic_string@DU?$char_traits@D@std@@V?$allocator@D@2@@0@D@Z@4HA 00000001800456f0 f   nodejieba.obj
 0001:000446fc       ?dtor$0@?0???$getline@DU?$char_traits@D@std@@V?$allocator@D@2@@std@@YAAEAV?$basic_istream@DU?$char_traits@D@std@@@0@$$QEAV10@AEAV?$basic_string@DU?$char_traits@D@std@@V?$allocator@D@2@@0@D@Z@4HA 00000001800456fc f   nodejieba.obj
 0001:00044708       ?dtor$3@?0???$getline@DU?$char_traits@D@std@@V?$allocator@D@2@@std@@YAAEAV?$basic_istream@DU?$char_traits@D@std@@@0@$$QEAV10@AEAV?$basic_string@DU?$char_traits@D@std@@V?$allocator@D@2@@0@D@Z@4HA 0000000180045708 f   nodejieba.obj
 0001:00044710       ?dtor$0@?0???$_Partial_sort@PEAUWord@KeywordExtractor@cppjieba@@U123@P6A_NAEBU123@0@Z@std@@YAXPEAUWord@KeywordExtractor@cppjieba@@00P6A_NAEBU123@1@Z0@Z@4HA 0000000180045710 f   nodejieba.obj
 0001:00044710       ?dtor$0@?0???$_Make_heap@PEAUWord@KeywordExtractor@cppjieba@@_JU123@P6A_NAEBU123@0@Z@std@@YAXPEAUWord@KeywordExtractor@cppjieba@@0P6A_NAEBU123@1@ZPEA_J0@Z@4HA 0000000180045710 f   nodejieba.obj
 0001:00044710       ?dtor$0@?0???$_Pop_heap_0@PEAUWord@KeywordExtractor@cppjieba@@U123@P6A_NAEBU123@0@Z@std@@YAXPEAUWord@KeywordExtractor@cppjieba@@0P6A_NAEBU123@1@Z0@Z@4HA 0000000180045710 f   nodejieba.obj
 0001:00044720       ?dtor$0@?0???$_Pop_heap_0@PEAUDictUnit@cppjieba@@U12@P6A_NAEBU12@0@Z@std@@YAXPEAUDictUnit@cppjieba@@0P6A_NAEBU12@1@Z0@Z@4HA 0000000180045720 f   nodejieba.obj
 0001:00044720       ?dtor$0@?0???$_Make_heap@PEAUDictUnit@cppjieba@@_JU12@P6A_NAEBU12@0@Z@std@@YAXPEAUDictUnit@cppjieba@@0P6A_NAEBU12@1@ZPEA_J0@Z@4HA 0000000180045720 f   nodejieba.obj
 0001:00044720       ?dtor$0@?0???$_Insertion_sort1@PEAUDictUnit@cppjieba@@P6A_NAEBU12@0@ZU12@@std@@YAXPEAUDictUnit@cppjieba@@0P6A_NAEBU12@1@Z0@Z@4HA 0000000180045720 f   nodejieba.obj
 0001:00044730       ?dtor$0@?0???$_Uninit_copy@PEBUDictUnit@cppjieba@@PEAU12@V?$allocator@UDictUnit@cppjieba@@@std@@@std@@YAPEAUDictUnit@cppjieba@@PEBU12@0PEAU12@AEAU?$_Wrap_alloc@V?$allocator@UDictUnit@cppjieba@@@std@@@0@U_Nonscalar_ptr_iterator_tag@0@@Z@4HA 0000000180045730 f   nodejieba.obj
 0001:00044730       ?dtor$0@?0???$_Uninit_copy@PEAUDictUnit@cppjieba@@PEAU12@V?$allocator@UDictUnit@cppjieba@@@std@@@std@@YAPEAUDictUnit@cppjieba@@PEAU12@00AEAU?$_Wrap_alloc@V?$allocator@UDictUnit@cppjieba@@@std@@@0@U_Nonscalar_ptr_iterator_tag@0@@Z@4HA 0000000180045730 f   nodejieba.obj
 0001:0004474c       ?dtor$1@?0???$_Uninit_copy@PEBUDictUnit@cppjieba@@PEAU12@V?$allocator@UDictUnit@cppjieba@@@std@@@std@@YAPEAUDictUnit@cppjieba@@PEBU12@0PEAU12@AEAU?$_Wrap_alloc@V?$allocator@UDictUnit@cppjieba@@@std@@@0@U_Nonscalar_ptr_iterator_tag@0@@Z@4HA 000000018004574c f   nodejieba.obj
 0001:0004474c       ?dtor$1@?0???$_Uninit_copy@PEAUDictUnit@cppjieba@@PEAU12@V?$allocator@UDictUnit@cppjieba@@@std@@@std@@YAPEAUDictUnit@cppjieba@@PEAU12@00AEAU?$_Wrap_alloc@V?$allocator@UDictUnit@cppjieba@@@std@@@0@U_Nonscalar_ptr_iterator_tag@0@@Z@4HA 000000018004574c f   nodejieba.obj
 0001:00044760       ?dtor$0@?0???$swap@UDictUnit@cppjieba@@@std@@YAXAEAUDictUnit@cppjieba@@0@Z@4HA 0000000180045760 f   nodejieba.obj
 0001:0004476c       ?dtor$0@?0??_Locimp_dtor@_Locimp@locale@std@@CAXPEAV123@@Z@4HA 000000018004576c f   libcpmt:locale0.obj
 0001:0004476c       ?dtor$0@?0??_Init@locale@std@@CAPEAV_Locimp@12@_N@Z@4HA 000000018004576c f   libcpmt:locale0.obj
 0001:00044778       ?dtor$0@?0???__Fcerr@std@@YAXXZ@4HA 0000000180045778 f   libcpmt:cerr.obj
 0001:0004477d       ?dtor$2@?0???__Fcerr@std@@YAXXZ@4HA 000000018004577d f   libcpmt:cerr.obj
 0001:00044782       ?dtor$3@?0???__Fcerr@std@@YAXXZ@4HA 0000000180045782 f   libcpmt:cerr.obj
 0001:00044787       ?dtor$0@?0???__Fclassic_locale@std@@YAXXZ@4HA 0000000180045787 f   libcpmt:locale0.obj
 0001:00044787       ?dtor$0@?0???_G_Locimp@locale@std@@MEAAPEAXI@Z@4HA 0000000180045787 f   libcpmt:locale0.obj
 0001:00044787       ?dtor$0@?0???__Finit_atexit@@YAXXZ@4HA 0000000180045787 f   libcpmt:iosptrs.obj
 0001:00044787       ?dtor$0@?0???_G_Fac_node@std@@QEAAPEAXI@Z@4HA 0000000180045787 f   libcpmt:locale0.obj
 0001:0004478c       __scrt_is_nonwritable_in_current_image$filt$0 000000018004578c f   LIBCMT:utility.obj
 0001:000447a4       ?fin$0@?0??dllmain_crt_process_attach@@YAHQEAUHINSTANCE__@@QEAX@Z@4HA 00000001800457a4 f   LIBCMT:dll_dllmain.obj
 0001:000447bb       ?fin$0@?0??dllmain_crt_process_detach@@YAH_N@Z@4HA 00000001800457bb f   LIBCMT:dll_dllmain.obj
 0001:000447d7       ?filt$0@?0??dllmain_dispatch@@YAHQEAUHINSTANCE__@@KQEAX@Z@4HA 00000001800457d7 f   LIBCMT:dll_dllmain.obj
 0001:0004480d       __CxxCallCatchBlock$filt$0 000000018004580d f   libvcruntime:frame.obj
 0001:00044832       __CxxCallCatchBlock$fin$1  0000000180045832 f   libvcruntime:frame.obj
 0001:000448aa       __DestructExceptionObject$filt$0 00000001800458aa f   libvcruntime:frame.obj
 0001:000448c2       __FrameUnwindToState$filt$0 00000001800458c2 f   libvcruntime:frame.obj
 0001:000448d8       __FrameUnwindToState$fin$1 00000001800458d8 f   libvcruntime:frame.obj
 0001:000448fb       _CallSETranslator$filt$0   00000001800458fb f   libvcruntime:trnsctrl.obj
 0001:00044947       fputc$fin$0                0000000180045947 f   libucrt:fputc.obj
 0001:00044961       common_flush_all$fin$0     0000000180045961 f   libucrt:fflush.obj
 0001:0004497b       common_flush_all$fin$1     000000018004597b f   libucrt:fflush.obj
 0001:00044994       fflush$fin$0               0000000180045994 f   libucrt:fflush.obj
 0001:00044994       fclose$fin$0               0000000180045994 f   libucrt:fclose.obj
 0001:000449ac       fgetc$fin$0                00000001800459ac f   libucrt:fgetc.obj
 0001:000449c6       ?fin$0@?0???$?RV<lambda_5d4c3fee44080f75d5d9762853974fe0>@@AEAV<lambda_532e024f4337e6fc7ad266c2bef9f4ed>@@V<lambda_c87bdc10097eb2402edb8ba9bdf0697b>@@@?$__crt_seh_guarded_call@_K@@QEAA_K$$QEAV<lambda_5d4c3fee44080f75d5d9762853974fe0>@@AEAV<lambda_532e024f4337e6fc7ad266c2bef9f4ed>@@$$QEAV<lambda_c87bdc10097eb2402edb8ba9bdf0697b>@@@Z@4HA 00000001800459c6 f   libucrt:fwrite.obj
 0001:000449c6       ?fin$0@?0???$?RV<lambda_7a5ef57ff966f610505f1d28a3d40618>@@AEAV<lambda_b721fa326cdb32351d23dfa67958c160>@@V<lambda_5e0fb27672408a07956fe59e48ccb2aa>@@@?$__crt_seh_guarded_call@H@@QEAAH$$QEAV<lambda_7a5ef57ff966f610505f1d28a3d40618>@@AEAV<lambda_b721fa326cdb32351d23dfa67958c160>@@$$QEAV<lambda_5e0fb27672408a07956fe59e48ccb2aa>@@@Z@4HA 00000001800459c6 f   libucrt:setvbuf.obj
 0001:000449c6       ?fin$0@?0???$?RV<lambda_7b91131dde12e1c3dfc74ff76b3f2eac>@@AEAV<lambda_dd75445284c072d0bd3768540cc698fa>@@V<lambda_16bc4ecb55b4718497c16bceaea2ceaf>@@@?$__crt_seh_guarded_call@H@@QEAAH$$QEAV<lambda_7b91131dde12e1c3dfc74ff76b3f2eac>@@AEAV<lambda_dd75445284c072d0bd3768540cc698fa>@@$$QEAV<lambda_16bc4ecb55b4718497c16bceaea2ceaf>@@@Z@4HA 00000001800459c6 f   libucrt:output.obj
 0001:000449e1       ungetc$fin$0               00000001800459e1 f   libucrt:ungetc.obj
 0001:000449f9       ?fin$0@?0???$common_ftell@_J@@YA_JV__crt_stdio_stream@@@Z@4HA 00000001800459f9 f   libucrt:ftell.obj
 0001:000449f9       ?fin$0@?0??common_fseek@@YAHV__crt_stdio_stream@@_JH@Z@4HA 00000001800459f9 f   libucrt:fseek.obj
 0001:00044a13       setlocale$fin$0            0000000180045a13 f   libucrt:setlocale.obj
 0001:00044a2e       ?fin$0@?0???$common_fsopen@D@@YAPEAU_iobuf@@QEBD0H@Z@4HA 0000000180045a2e f   libucrt:fopen.obj
 0001:00044a59       _query_new_handler$fin$0   0000000180045a59 f   libucrt:new_handler.obj
 0001:00044a6f       ?filt$0@?0??common_exit@@YAXHW4_crt_exit_cleanup_mode@@W4_crt_exit_return_mode@@@Z@4HA 0000000180045a6f f   libucrt:exit.obj
 0001:00044a8a       ?fin$1@?0??common_exit@@YAXHW4_crt_exit_cleanup_mode@@W4_crt_exit_return_mode@@@Z@4HA 0000000180045a8a f   libucrt:exit.obj
 0001:00044aa3       ?fin$0@?0???$?RV<lambda_e24bbb7b643b32fcea6fa61b31d4c984>@@AEAV<lambda_275893d493268fdec8709772e3fcec0e>@@V<lambda_9d71df4d7cf3f480f8d633942495c3b0>@@@?$__crt_seh_guarded_call@H@@QEAAH$$QEAV<lambda_e24bbb7b643b32fcea6fa61b31d4c984>@@AEAV<lambda_275893d493268fdec8709772e3fcec0e>@@$$QEAV<lambda_9d71df4d7cf3f480f8d633942495c3b0>@@@Z@4HA 0000000180045aa3 f   libucrt:onexit.obj
 0001:00044ac0       raise$fin$0                0000000180045ac0 f   libucrt:signal.obj
 0001:00044ae4       ?fin$0@?0???$?RV<lambda_b521505b218e5242e90febf6bfebc422>@@AEAV<lambda_6978c1fb23f02e42e1d9e99668cc68aa>@@V<lambda_314360699dd331753a4119843814e9a7>@@@?$__crt_seh_guarded_call@H@@QEAAH$$QEAV<lambda_b521505b218e5242e90febf6bfebc422>@@AEAV<lambda_6978c1fb23f02e42e1d9e99668cc68aa>@@$$QEAV<lambda_314360699dd331753a4119843814e9a7>@@@Z@4HA 0000000180045ae4 f   libucrt:commit.obj
 0001:00044ae4       ?fin$0@?0???$?RV<lambda_bfedae4ebbf01fab1bb6dcc6a9e276e0>@@AEAV<lambda_2fe9b910cf3cbf4a0ab98a02ba45b3ec>@@V<lambda_237c231691f317818eb88cc1d5d642d6>@@@?$__crt_seh_guarded_call@H@@QEAAH$$QEAV<lambda_bfedae4ebbf01fab1bb6dcc6a9e276e0>@@AEAV<lambda_2fe9b910cf3cbf4a0ab98a02ba45b3ec>@@$$QEAV<lambda_237c231691f317818eb88cc1d5d642d6>@@@Z@4HA 0000000180045ae4 f   libucrt:close.obj
 0001:00044afe       ?fin$0@?0??__acrt_stdio_allocate_stream@@YA?AV__crt_stdio_stream@@XZ@4HA 0000000180045afe f   libucrt:stream.obj
 0001:00044afe       _fcloseall$fin$0           0000000180045afe f   libucrt:closeall.obj
 0001:00044b17       ?fin$0@?0???$?RV<lambda_5df02c53a8f32f81fd64e5bbb78039f1>@@AEAV<lambda_2af78c5f5901b1372d98f9ab3177dfa6>@@AEAV<lambda_f51fe5fd7c79a33db34fc9310f277369>@@@?$__crt_seh_guarded_call@X@@QEAAX$$QEAV<lambda_5df02c53a8f32f81fd64e5bbb78039f1>@@AEAV<lambda_2af78c5f5901b1372d98f9ab3177dfa6>@@AEAV<lambda_f51fe5fd7c79a33db34fc9310f277369>@@@Z@4HA 0000000180045b17 f   libucrt:wsetlocale.obj
 0001:00044b38       __acrt_uninitialize_locale$fin$0 0000000180045b38 f   libucrt:wsetlocale.obj
 0001:00044b38       __acrt_update_thread_locale_data$fin$0 0000000180045b38 f   libucrt:locale_refcounting.obj
 0001:00044b51       ?fin$0@?0???$?RV<lambda_fb3a7dec4e47f37f22dae91bb15c9095>@@AEAV<lambda_698284760c8add0bfb0756c19673e34b>@@V<lambda_dfb8eca1e75fef3034a8fb18dd509707>@@@?$__crt_seh_guarded_call@X@@QEAAX$$QEAV<lambda_fb3a7dec4e47f37f22dae91bb15c9095>@@AEAV<lambda_698284760c8add0bfb0756c19673e34b>@@$$QEAV<lambda_dfb8eca1e75fef3034a8fb18dd509707>@@@Z@4HA 0000000180045b51 f   libucrt:per_thread_data.obj
 0001:00044b51       ?fin$0@?0???$?RV<lambda_c36588078e9f5dfd39652860aa6b3aaf>@@AEAV<lambda_ec61778202f4f5fc7e7711acc23c3bca>@@V<lambda_dc9d2797ccde5d239b4a0efae8ebd7db>@@@?$__crt_seh_guarded_call@P6AXH@Z@@QEAAP6AXH@Z$$QEAV<lambda_c36588078e9f5dfd39652860aa6b3aaf>@@AEAV<lambda_ec61778202f4f5fc7e7711acc23c3bca>@@$$QEAV<lambda_dc9d2797ccde5d239b4a0efae8ebd7db>@@@Z@4HA 0000000180045b51 f   libucrt:signal.obj
 0001:00044b51       ?fin$0@?0???$?RV<lambda_d67e8342c384adda8f857579ab50b2ae>@@AEAV<lambda_30712929f77e709619002f448b6a9510>@@V<lambda_4525336fd7e478d965fb7ca7a337cad8>@@@?$__crt_seh_guarded_call@X@@QEAAX$$QEAV<lambda_d67e8342c384adda8f857579ab50b2ae>@@AEAV<lambda_30712929f77e709619002f448b6a9510>@@$$QEAV<lambda_4525336fd7e478d965fb7ca7a337cad8>@@@Z@4HA 0000000180045b51 f   libucrt:wsetlocale.obj
 0001:00044b51       ?fin$0@?0???$?RV<lambda_630b2aca97f6d20d5b5ea6529ea6b6af>@@AEAV<lambda_af91936f1d075d609f72d9d8cba980af>@@V<lambda_e82fa975f615b5c7c7b0e4d178fdae67>@@@?$__crt_seh_guarded_call@H@@QEAAH$$QEAV<lambda_630b2aca97f6d20d5b5ea6529ea6b6af>@@AEAV<lambda_af91936f1d075d609f72d9d8cba980af>@@$$QEAV<lambda_e82fa975f615b5c7c7b0e4d178fdae67>@@@Z@4HA 0000000180045b51 f   libucrt:winapi_thunks.obj
 0001:00044b51       ?fin$0@?0???$?RV<lambda_99476a1ad63dd22509b5d3e65b0ffc95>@@AEAV<lambda_ad1ced32f4ac17aa236e5ef05d6b3b7c>@@V<lambda_f7424dd8d45958661754dc4f2697e9c3>@@@?$__crt_seh_guarded_call@X@@QEAAX$$QEAV<lambda_99476a1ad63dd22509b5d3e65b0ffc95>@@AEAV<lambda_ad1ced32f4ac17aa236e5ef05d6b3b7c>@@$$QEAV<lambda_f7424dd8d45958661754dc4f2697e9c3>@@@Z@4HA 0000000180045b51 f   libucrt:mbctype.obj
 0001:00044b51       ?fin$0@?0???$?RV<lambda_72d1df2b273a38828b1ce30cbf4cdab5>@@AEAV<lambda_876a65b173b8412d3a47c70a915b0cf4>@@V<lambda_41932305e351933ebe8f8be3ed8bb5dc>@@@?$__crt_seh_guarded_call@X@@QEAAX$$QEAV<lambda_72d1df2b273a38828b1ce30cbf4cdab5>@@AEAV<lambda_876a65b173b8412d3a47c70a915b0cf4>@@$$QEAV<lambda_41932305e351933ebe8f8be3ed8bb5dc>@@@Z@4HA 0000000180045b51 f   libucrt:per_thread_data.obj
 0001:00044b51       ?fin$0@?0???$?RV<lambda_5e887d1dcbef67a5eb4283622ba103bf>@@AEAV<lambda_4466841279450cc726390878d4a41900>@@V<lambda_341c25c0346d94847f1f3c463c57e077>@@@?$__crt_seh_guarded_call@X@@QEAAX$$QEAV<lambda_5e887d1dcbef67a5eb4283622ba103bf>@@AEAV<lambda_4466841279450cc726390878d4a41900>@@$$QEAV<lambda_341c25c0346d94847f1f3c463c57e077>@@@Z@4HA 0000000180045b51 f   libucrt:per_thread_data.obj
 0001:00044b51       ?fin$0@?0???$?RV<lambda_b8c45f8f788dd370798f47cfe8ac3a86>@@AEAV<lambda_4e60a939b0d047cfe11ddc22648dfba9>@@V<lambda_332c3edc96d0294ec56c57d38c1cdfd5>@@@?$__crt_seh_guarded_call@H@@QEAAH$$QEAV<lambda_b8c45f8f788dd370798f47cfe8ac3a86>@@AEAV<lambda_4e60a939b0d047cfe11ddc22648dfba9>@@$$QEAV<lambda_332c3edc96d0294ec56c57d38c1cdfd5>@@@Z@4HA 0000000180045b51 f   libucrt:onexit.obj
 0001:00044b51       ?fin$0@?0???$?RV<lambda_46352004c1216016012b18bd6f87e700>@@AEAV<lambda_3bd07e1a1191394380780325891bf33f>@@V<lambda_334532d3f185bcaa59b5be82d7d22bff>@@@?$__crt_seh_guarded_call@X@@QEAAX$$QEAV<lambda_46352004c1216016012b18bd6f87e700>@@AEAV<lambda_3bd07e1a1191394380780325891bf33f>@@$$QEAV<lambda_334532d3f185bcaa59b5be82d7d22bff>@@@Z@4HA 0000000180045b51 f   libucrt:per_thread_data.obj
 0001:00044b6b       _isindst$fin$0             0000000180045b6b f   libucrt:tzset.obj
 0001:00044b6b       __tzset$fin$0              0000000180045b6b f   libucrt:tzset.obj
 0001:00044b84       __acrt_update_thread_multibyte_data$fin$0 0000000180045b84 f   libucrt:mbctype.obj
 0001:00044b9d       _alloc_osfhnd$fin$0        0000000180045b9d f   libucrt:osfinfo.obj
 0001:00044b9d       __acrt_lowio_ensure_fh_exists$fin$0 0000000180045b9d f   libucrt:osfinfo.obj
 0001:00044b9d       __acrt_initialize_lowio$fin$0 0000000180045b9d f   libucrt:ioinit.obj
 0001:00044bb6       _read$fin$0                0000000180045bb6 f   libucrt:read.obj
 0001:00044bb6       _write$fin$0               0000000180045bb6 f   libucrt:write.obj
 0001:00044bb6       ?fin$0@?0???$common_lseek@_J@@YA_JH_JH@Z@4HA 0000000180045bb6 f   libucrt:lseek.obj
 0001:00044bcd       ?fin$0@?0???$common_getenv_s@D@@YAHQEA_KQEAD_KQEBD@Z@4HA 0000000180045bcd f   libucrt:getenv.obj
 0001:00044be6       ?fin$0@?0???$common_sopen_dispatch@D@@YAHQEBDHHHQEAHH@Z@4HA 0000000180045be6 f   libucrt:open.obj
 0001:00044c39       _ctrlfp$filt$0             0000000180045c39 f   libucrt:fpctrl.obj
 0001:00044c39       common_control87$filt$0    0000000180045c39 f   libucrt:ieee.obj
 0001:00044c70       _IsNonwritableInCurrentImage$filt$0 0000000180045c70 f   LIBCMT:pesect.obj
 0001:00044c94       ??__Finitlocks@std@@YAXXZ  0000000180045c94 f   libcpmt:xlock.obj
 0001:00044ca0       ??__F_Fac_tidy_reg@std@@YAXXZ 0000000180045ca0 f   libcpmt:locale0.obj
 0001:00044ccc       ??__Fclassic_locale@std@@YAXXZ 0000000180045ccc f   libcpmt:locale0.obj
 0001:00044d2c       ??__Fcerr@std@@YAXXZ       0000000180045d2c f   libcpmt:cerr.obj
 0001:00044d8c       ??__Fferr@std@@YAXXZ       0000000180045d8c f   libcpmt:cerr.obj
 0001:00044d98       ??__Finitlocks@@YAXXZ      0000000180045d98 f   libcpmt:cerr.obj
 0001:00044da4       ??__Finit_atexit@@YAXXZ    0000000180045da4 f   libcpmt:iosptrs.obj
 0001:00044df8       ??__Finitlocks@std@@YAXXZ  0000000180045df8 f   libcpmt:iosptrs.obj
 0002:000002f8       ?initlocks$initializer$@std@@3P6AXXZEA 00000001800462f8     libcpmt:xlock.obj
 0002:00000300       ?initlocks$initializer$@@3P6AXXZEA 0000000180046300     libcpmt:cerr.obj
 0002:00000308       ?ferr$initializer$@std@@3P6AXXZEA 0000000180046308     libcpmt:cerr.obj
 0002:00000310       ?cerr$initializer$@std@@3P6AXXZEA 0000000180046310     libcpmt:cerr.obj
 0002:00000318       ?init_cerr$initializer$@std@@3P6AXXZEA 0000000180046318     libcpmt:cerr.obj
